ARM GAS  C:\Users\sur\AppData\Local\Temp\ccgUkA5n.s 			page 1


   1              		.syntax unified
   2              		.cpu cortex-m0
   3              		.fpu softvfp
   4              		.eabi_attribute 20, 1
   5              		.eabi_attribute 21, 1
   6              		.eabi_attribute 23, 3
   7              		.eabi_attribute 24, 1
   8              		.eabi_attribute 25, 1
   9              		.eabi_attribute 26, 1
  10              		.eabi_attribute 30, 6
  11              		.eabi_attribute 34, 0
  12              		.eabi_attribute 18, 4
  13              		.thumb
  14              		.syntax unified
  15              		.file	"cyfitter_cfg.c"
  16              		.text
  17              	.Ltext0:
  18              		.cfi_sections	.debug_frame
  19              		.section	.text.CYMEMZERO,"ax",%progbits
  20              		.align	2
  21              		.code	16
  22              		.thumb_func
  23              		.type	CYMEMZERO, %function
  24              	CYMEMZERO:
  25              	.LFB0:
  26              		.file 1 "Generated_Source\\PSoC4\\cyfitter_cfg.c"
   1:Generated_Source\PSoC4/cyfitter_cfg.c **** 
   2:Generated_Source\PSoC4/cyfitter_cfg.c **** /*******************************************************************************
   3:Generated_Source\PSoC4/cyfitter_cfg.c **** * File Name: cyfitter_cfg.c
   4:Generated_Source\PSoC4/cyfitter_cfg.c **** * 
   5:Generated_Source\PSoC4/cyfitter_cfg.c **** * PSoC Creator  4.2
   6:Generated_Source\PSoC4/cyfitter_cfg.c **** *
   7:Generated_Source\PSoC4/cyfitter_cfg.c **** * Description:
   8:Generated_Source\PSoC4/cyfitter_cfg.c **** * This file contains device initialization code.
   9:Generated_Source\PSoC4/cyfitter_cfg.c **** * Except for the user defined sections in CyClockStartupError(), this file should not be modified.
  10:Generated_Source\PSoC4/cyfitter_cfg.c **** * This file is automatically generated by PSoC Creator.
  11:Generated_Source\PSoC4/cyfitter_cfg.c **** *
  12:Generated_Source\PSoC4/cyfitter_cfg.c **** ********************************************************************************
  13:Generated_Source\PSoC4/cyfitter_cfg.c **** * Copyright (c) 2007-2018 Cypress Semiconductor.  All rights reserved.
  14:Generated_Source\PSoC4/cyfitter_cfg.c **** * You may use this file only in accordance with the license, terms, conditions, 
  15:Generated_Source\PSoC4/cyfitter_cfg.c **** * disclaimers, and limitations in the end user license agreement accompanying 
  16:Generated_Source\PSoC4/cyfitter_cfg.c **** * the software package with which this file was provided.
  17:Generated_Source\PSoC4/cyfitter_cfg.c **** ********************************************************************************/
  18:Generated_Source\PSoC4/cyfitter_cfg.c **** 
  19:Generated_Source\PSoC4/cyfitter_cfg.c **** #include <string.h>
  20:Generated_Source\PSoC4/cyfitter_cfg.c **** #include "cytypes.h"
  21:Generated_Source\PSoC4/cyfitter_cfg.c **** #include "cydevice_trm.h"
  22:Generated_Source\PSoC4/cyfitter_cfg.c **** #include "cyfitter.h"
  23:Generated_Source\PSoC4/cyfitter_cfg.c **** #include "CyLib.h"
  24:Generated_Source\PSoC4/cyfitter_cfg.c **** #include "cyfitter_cfg.h"
  25:Generated_Source\PSoC4/cyfitter_cfg.c **** 
  26:Generated_Source\PSoC4/cyfitter_cfg.c **** 
  27:Generated_Source\PSoC4/cyfitter_cfg.c **** #if defined(__GNUC__) || defined(__ARMCC_VERSION)
  28:Generated_Source\PSoC4/cyfitter_cfg.c ****     #define CYPACKED 
  29:Generated_Source\PSoC4/cyfitter_cfg.c ****     #define CYPACKED_ATTR __attribute__ ((packed))
  30:Generated_Source\PSoC4/cyfitter_cfg.c ****     #define CYALIGNED __attribute__ ((aligned))
  31:Generated_Source\PSoC4/cyfitter_cfg.c ****     #define CY_CFG_UNUSED __attribute__ ((unused))
ARM GAS  C:\Users\sur\AppData\Local\Temp\ccgUkA5n.s 			page 2


  32:Generated_Source\PSoC4/cyfitter_cfg.c ****     #ifndef CY_CFG_SECTION
  33:Generated_Source\PSoC4/cyfitter_cfg.c ****         #define CY_CFG_SECTION __attribute__ ((section(".psocinit")))
  34:Generated_Source\PSoC4/cyfitter_cfg.c ****     #endif
  35:Generated_Source\PSoC4/cyfitter_cfg.c ****     
  36:Generated_Source\PSoC4/cyfitter_cfg.c ****     #if defined(__ARMCC_VERSION)
  37:Generated_Source\PSoC4/cyfitter_cfg.c ****         #define CY_CFG_MEMORY_BARRIER() __memory_changed()
  38:Generated_Source\PSoC4/cyfitter_cfg.c ****     #else
  39:Generated_Source\PSoC4/cyfitter_cfg.c ****         #define CY_CFG_MEMORY_BARRIER() __sync_synchronize()
  40:Generated_Source\PSoC4/cyfitter_cfg.c ****     #endif
  41:Generated_Source\PSoC4/cyfitter_cfg.c ****     
  42:Generated_Source\PSoC4/cyfitter_cfg.c **** #elif defined(__ICCARM__)
  43:Generated_Source\PSoC4/cyfitter_cfg.c ****     #include <intrinsics.h>
  44:Generated_Source\PSoC4/cyfitter_cfg.c **** 
  45:Generated_Source\PSoC4/cyfitter_cfg.c ****     #define CYPACKED __packed
  46:Generated_Source\PSoC4/cyfitter_cfg.c ****     #define CYPACKED_ATTR 
  47:Generated_Source\PSoC4/cyfitter_cfg.c ****     #define CYALIGNED _Pragma("data_alignment=4")
  48:Generated_Source\PSoC4/cyfitter_cfg.c ****     #define CY_CFG_UNUSED _Pragma("diag_suppress=Pe177")
  49:Generated_Source\PSoC4/cyfitter_cfg.c ****     #define CY_CFG_SECTION _Pragma("location=\".psocinit\"")
  50:Generated_Source\PSoC4/cyfitter_cfg.c ****     
  51:Generated_Source\PSoC4/cyfitter_cfg.c ****     #define CY_CFG_MEMORY_BARRIER() __DMB()
  52:Generated_Source\PSoC4/cyfitter_cfg.c ****     
  53:Generated_Source\PSoC4/cyfitter_cfg.c **** #else
  54:Generated_Source\PSoC4/cyfitter_cfg.c ****     #error Unsupported toolchain
  55:Generated_Source\PSoC4/cyfitter_cfg.c **** #endif
  56:Generated_Source\PSoC4/cyfitter_cfg.c **** 
  57:Generated_Source\PSoC4/cyfitter_cfg.c **** #ifndef CYCODE
  58:Generated_Source\PSoC4/cyfitter_cfg.c ****     #define CYCODE
  59:Generated_Source\PSoC4/cyfitter_cfg.c **** #endif
  60:Generated_Source\PSoC4/cyfitter_cfg.c **** #ifndef CYDATA
  61:Generated_Source\PSoC4/cyfitter_cfg.c ****     #define CYDATA
  62:Generated_Source\PSoC4/cyfitter_cfg.c **** #endif
  63:Generated_Source\PSoC4/cyfitter_cfg.c **** #ifndef CYFAR
  64:Generated_Source\PSoC4/cyfitter_cfg.c ****     #define CYFAR
  65:Generated_Source\PSoC4/cyfitter_cfg.c **** #endif
  66:Generated_Source\PSoC4/cyfitter_cfg.c **** #ifndef CYXDATA
  67:Generated_Source\PSoC4/cyfitter_cfg.c ****     #define CYXDATA
  68:Generated_Source\PSoC4/cyfitter_cfg.c **** #endif
  69:Generated_Source\PSoC4/cyfitter_cfg.c **** 
  70:Generated_Source\PSoC4/cyfitter_cfg.c **** 
  71:Generated_Source\PSoC4/cyfitter_cfg.c **** CY_CFG_UNUSED
  72:Generated_Source\PSoC4/cyfitter_cfg.c **** static void CYMEMZERO(void *s, size_t n);
  73:Generated_Source\PSoC4/cyfitter_cfg.c **** CY_CFG_UNUSED
  74:Generated_Source\PSoC4/cyfitter_cfg.c **** static void CYMEMZERO(void *s, size_t n)
  75:Generated_Source\PSoC4/cyfitter_cfg.c **** {
  27              		.loc 1 75 0
  28              		.cfi_startproc
  29              		@ args = 0, pretend = 0, frame = 8
  30              		@ frame_needed = 1, uses_anonymous_args = 0
  31 0000 80B5     		push	{r7, lr}
  32              		.cfi_def_cfa_offset 8
  33              		.cfi_offset 7, -8
  34              		.cfi_offset 14, -4
  35 0002 82B0     		sub	sp, sp, #8
  36              		.cfi_def_cfa_offset 16
  37 0004 00AF     		add	r7, sp, #0
  38              		.cfi_def_cfa_register 7
  39 0006 7860     		str	r0, [r7, #4]
ARM GAS  C:\Users\sur\AppData\Local\Temp\ccgUkA5n.s 			page 3


  40 0008 3960     		str	r1, [r7]
  76:Generated_Source\PSoC4/cyfitter_cfg.c **** 	(void)memset(s, 0, n);
  41              		.loc 1 76 0
  42 000a 3A68     		ldr	r2, [r7]
  43 000c 7B68     		ldr	r3, [r7, #4]
  44 000e 0021     		movs	r1, #0
  45 0010 1800     		movs	r0, r3
  46 0012 FFF7FEFF 		bl	memset
  77:Generated_Source\PSoC4/cyfitter_cfg.c **** }
  47              		.loc 1 77 0
  48 0016 C046     		nop
  49 0018 BD46     		mov	sp, r7
  50 001a 02B0     		add	sp, sp, #8
  51              		@ sp needed
  52 001c 80BD     		pop	{r7, pc}
  53              		.cfi_endproc
  54              	.LFE0:
  55              		.size	CYMEMZERO, .-CYMEMZERO
  56 001e C046     		.section	.text.CYCONFIGCPY,"ax",%progbits
  57              		.align	2
  58              		.code	16
  59              		.thumb_func
  60              		.type	CYCONFIGCPY, %function
  61              	CYCONFIGCPY:
  62              	.LFB1:
  78:Generated_Source\PSoC4/cyfitter_cfg.c **** CY_CFG_UNUSED
  79:Generated_Source\PSoC4/cyfitter_cfg.c **** static void CYCONFIGCPY(void *dest, const void *src, size_t n);
  80:Generated_Source\PSoC4/cyfitter_cfg.c **** CY_CFG_UNUSED
  81:Generated_Source\PSoC4/cyfitter_cfg.c **** static void CYCONFIGCPY(void *dest, const void *src, size_t n)
  82:Generated_Source\PSoC4/cyfitter_cfg.c **** {
  63              		.loc 1 82 0
  64              		.cfi_startproc
  65              		@ args = 0, pretend = 0, frame = 16
  66              		@ frame_needed = 1, uses_anonymous_args = 0
  67 0000 80B5     		push	{r7, lr}
  68              		.cfi_def_cfa_offset 8
  69              		.cfi_offset 7, -8
  70              		.cfi_offset 14, -4
  71 0002 84B0     		sub	sp, sp, #16
  72              		.cfi_def_cfa_offset 24
  73 0004 00AF     		add	r7, sp, #0
  74              		.cfi_def_cfa_register 7
  75 0006 F860     		str	r0, [r7, #12]
  76 0008 B960     		str	r1, [r7, #8]
  77 000a 7A60     		str	r2, [r7, #4]
  83:Generated_Source\PSoC4/cyfitter_cfg.c **** 	(void)memcpy(dest, src, n);
  78              		.loc 1 83 0
  79 000c 7A68     		ldr	r2, [r7, #4]
  80 000e B968     		ldr	r1, [r7, #8]
  81 0010 FB68     		ldr	r3, [r7, #12]
  82 0012 1800     		movs	r0, r3
  83 0014 FFF7FEFF 		bl	memcpy
  84:Generated_Source\PSoC4/cyfitter_cfg.c **** }
  84              		.loc 1 84 0
  85 0018 C046     		nop
  86 001a BD46     		mov	sp, r7
  87 001c 04B0     		add	sp, sp, #16
ARM GAS  C:\Users\sur\AppData\Local\Temp\ccgUkA5n.s 			page 4


  88              		@ sp needed
  89 001e 80BD     		pop	{r7, pc}
  90              		.cfi_endproc
  91              	.LFE1:
  92              		.size	CYCONFIGCPY, .-CYCONFIGCPY
  93              		.section	.text.CYCONFIGCPYCODE,"ax",%progbits
  94              		.align	2
  95              		.code	16
  96              		.thumb_func
  97              		.type	CYCONFIGCPYCODE, %function
  98              	CYCONFIGCPYCODE:
  99              	.LFB2:
  85:Generated_Source\PSoC4/cyfitter_cfg.c **** CY_CFG_UNUSED
  86:Generated_Source\PSoC4/cyfitter_cfg.c **** static void CYCONFIGCPYCODE(void *dest, const void *src, size_t n);
  87:Generated_Source\PSoC4/cyfitter_cfg.c **** CY_CFG_UNUSED
  88:Generated_Source\PSoC4/cyfitter_cfg.c **** static void CYCONFIGCPYCODE(void *dest, const void *src, size_t n)
  89:Generated_Source\PSoC4/cyfitter_cfg.c **** {
 100              		.loc 1 89 0
 101              		.cfi_startproc
 102              		@ args = 0, pretend = 0, frame = 16
 103              		@ frame_needed = 1, uses_anonymous_args = 0
 104 0000 80B5     		push	{r7, lr}
 105              		.cfi_def_cfa_offset 8
 106              		.cfi_offset 7, -8
 107              		.cfi_offset 14, -4
 108 0002 84B0     		sub	sp, sp, #16
 109              		.cfi_def_cfa_offset 24
 110 0004 00AF     		add	r7, sp, #0
 111              		.cfi_def_cfa_register 7
 112 0006 F860     		str	r0, [r7, #12]
 113 0008 B960     		str	r1, [r7, #8]
 114 000a 7A60     		str	r2, [r7, #4]
  90:Generated_Source\PSoC4/cyfitter_cfg.c **** 	(void)memcpy(dest, src, n);
 115              		.loc 1 90 0
 116 000c 7A68     		ldr	r2, [r7, #4]
 117 000e B968     		ldr	r1, [r7, #8]
 118 0010 FB68     		ldr	r3, [r7, #12]
 119 0012 1800     		movs	r0, r3
 120 0014 FFF7FEFF 		bl	memcpy
  91:Generated_Source\PSoC4/cyfitter_cfg.c **** }
 121              		.loc 1 91 0
 122 0018 C046     		nop
 123 001a BD46     		mov	sp, r7
 124 001c 04B0     		add	sp, sp, #16
 125              		@ sp needed
 126 001e 80BD     		pop	{r7, pc}
 127              		.cfi_endproc
 128              	.LFE2:
 129              		.size	CYCONFIGCPYCODE, .-CYCONFIGCPYCODE
 130              		.section	.text.cfg_write_bytes32,"ax",%progbits
 131              		.align	2
 132              		.code	16
 133              		.thumb_func
 134              		.type	cfg_write_bytes32, %function
 135              	cfg_write_bytes32:
 136              	.LFB3:
  92:Generated_Source\PSoC4/cyfitter_cfg.c **** 
ARM GAS  C:\Users\sur\AppData\Local\Temp\ccgUkA5n.s 			page 5


  93:Generated_Source\PSoC4/cyfitter_cfg.c **** 
  94:Generated_Source\PSoC4/cyfitter_cfg.c **** 
  95:Generated_Source\PSoC4/cyfitter_cfg.c **** 
  96:Generated_Source\PSoC4/cyfitter_cfg.c **** /* Clock startup error codes                                                   */
  97:Generated_Source\PSoC4/cyfitter_cfg.c **** #define CYCLOCKSTART_NO_ERROR    0u
  98:Generated_Source\PSoC4/cyfitter_cfg.c **** #define CYCLOCKSTART_XTAL_ERROR  1u
  99:Generated_Source\PSoC4/cyfitter_cfg.c **** #define CYCLOCKSTART_32KHZ_ERROR 2u
 100:Generated_Source\PSoC4/cyfitter_cfg.c **** #define CYCLOCKSTART_PLL_ERROR   3u
 101:Generated_Source\PSoC4/cyfitter_cfg.c **** #define CYCLOCKSTART_FLL_ERROR   4u
 102:Generated_Source\PSoC4/cyfitter_cfg.c **** #define CYCLOCKSTART_WCO_ERROR   5u
 103:Generated_Source\PSoC4/cyfitter_cfg.c **** 
 104:Generated_Source\PSoC4/cyfitter_cfg.c **** 
 105:Generated_Source\PSoC4/cyfitter_cfg.c **** #ifdef CY_NEED_CYCLOCKSTARTUPERROR
 106:Generated_Source\PSoC4/cyfitter_cfg.c **** /*******************************************************************************
 107:Generated_Source\PSoC4/cyfitter_cfg.c **** * Function Name: CyClockStartupError
 108:Generated_Source\PSoC4/cyfitter_cfg.c **** ********************************************************************************
 109:Generated_Source\PSoC4/cyfitter_cfg.c **** * Summary:
 110:Generated_Source\PSoC4/cyfitter_cfg.c **** *  If an error is encountered during clock configuration (crystal startup error,
 111:Generated_Source\PSoC4/cyfitter_cfg.c **** *  PLL lock error, etc.), the system will end up here.  Unless reimplemented by
 112:Generated_Source\PSoC4/cyfitter_cfg.c **** *  the customer, this function will stop in an infinite loop.
 113:Generated_Source\PSoC4/cyfitter_cfg.c **** *
 114:Generated_Source\PSoC4/cyfitter_cfg.c **** * Parameters:
 115:Generated_Source\PSoC4/cyfitter_cfg.c **** *   void
 116:Generated_Source\PSoC4/cyfitter_cfg.c **** *
 117:Generated_Source\PSoC4/cyfitter_cfg.c **** * Return:
 118:Generated_Source\PSoC4/cyfitter_cfg.c **** *   void
 119:Generated_Source\PSoC4/cyfitter_cfg.c **** *
 120:Generated_Source\PSoC4/cyfitter_cfg.c **** *******************************************************************************/
 121:Generated_Source\PSoC4/cyfitter_cfg.c **** CY_CFG_UNUSED
 122:Generated_Source\PSoC4/cyfitter_cfg.c **** static void CyClockStartupError(uint8 errorCode);
 123:Generated_Source\PSoC4/cyfitter_cfg.c **** CY_CFG_UNUSED
 124:Generated_Source\PSoC4/cyfitter_cfg.c **** static void CyClockStartupError(uint8 errorCode)
 125:Generated_Source\PSoC4/cyfitter_cfg.c **** {
 126:Generated_Source\PSoC4/cyfitter_cfg.c ****     /* To remove the compiler warning if errorCode not used.                */
 127:Generated_Source\PSoC4/cyfitter_cfg.c ****     errorCode = errorCode;
 128:Generated_Source\PSoC4/cyfitter_cfg.c **** 
 129:Generated_Source\PSoC4/cyfitter_cfg.c ****     /* If we have a clock startup error (bad MHz crystal, PLL lock, etc.),  */
 130:Generated_Source\PSoC4/cyfitter_cfg.c ****     /* we will end up here to allow the customer to implement something to  */
 131:Generated_Source\PSoC4/cyfitter_cfg.c ****     /* deal with the clock condition.                                       */
 132:Generated_Source\PSoC4/cyfitter_cfg.c **** 
 133:Generated_Source\PSoC4/cyfitter_cfg.c **** #ifdef CY_CFG_CLOCK_STARTUP_ERROR_CALLBACK
 134:Generated_Source\PSoC4/cyfitter_cfg.c ****     CY_CFG_Clock_Startup_ErrorCallback();
 135:Generated_Source\PSoC4/cyfitter_cfg.c **** #else
 136:Generated_Source\PSoC4/cyfitter_cfg.c ****     /*  If not using CY_CFG_CLOCK_STARTUP_ERROR_CALLBACK, place your clock startup code here. */
 137:Generated_Source\PSoC4/cyfitter_cfg.c ****     /* `#START CyClockStartupError` */
 138:Generated_Source\PSoC4/cyfitter_cfg.c **** 
 139:Generated_Source\PSoC4/cyfitter_cfg.c ****     /* If we have a clock startup error (bad MHz crystal, PLL lock, etc.),  */
 140:Generated_Source\PSoC4/cyfitter_cfg.c ****     /* we will end up here to allow the customer to implement something to  */
 141:Generated_Source\PSoC4/cyfitter_cfg.c ****     /* deal with the clock condition.                                       */
 142:Generated_Source\PSoC4/cyfitter_cfg.c **** 
 143:Generated_Source\PSoC4/cyfitter_cfg.c ****     /* `#END` */
 144:Generated_Source\PSoC4/cyfitter_cfg.c **** 
 145:Generated_Source\PSoC4/cyfitter_cfg.c ****     while(1) {}
 146:Generated_Source\PSoC4/cyfitter_cfg.c **** #endif /* CY_CFG_CLOCK_STARTUP_ERROR_CALLBACK */
 147:Generated_Source\PSoC4/cyfitter_cfg.c **** }
 148:Generated_Source\PSoC4/cyfitter_cfg.c **** #endif
 149:Generated_Source\PSoC4/cyfitter_cfg.c **** 
ARM GAS  C:\Users\sur\AppData\Local\Temp\ccgUkA5n.s 			page 6


 150:Generated_Source\PSoC4/cyfitter_cfg.c **** #define CY_CFG_BASE_ADDR_COUNT 9u
 151:Generated_Source\PSoC4/cyfitter_cfg.c **** CYPACKED typedef struct
 152:Generated_Source\PSoC4/cyfitter_cfg.c **** {
 153:Generated_Source\PSoC4/cyfitter_cfg.c **** 	uint8 offset;
 154:Generated_Source\PSoC4/cyfitter_cfg.c **** 	uint8 value;
 155:Generated_Source\PSoC4/cyfitter_cfg.c **** } CYPACKED_ATTR cy_cfg_addrvalue_t;
 156:Generated_Source\PSoC4/cyfitter_cfg.c **** 
 157:Generated_Source\PSoC4/cyfitter_cfg.c **** 
 158:Generated_Source\PSoC4/cyfitter_cfg.c **** 
 159:Generated_Source\PSoC4/cyfitter_cfg.c **** /*******************************************************************************
 160:Generated_Source\PSoC4/cyfitter_cfg.c **** * Function Name: cfg_write_bytes32
 161:Generated_Source\PSoC4/cyfitter_cfg.c **** ********************************************************************************
 162:Generated_Source\PSoC4/cyfitter_cfg.c **** * Summary:
 163:Generated_Source\PSoC4/cyfitter_cfg.c **** *  This function is used for setting up the chip configuration areas that
 164:Generated_Source\PSoC4/cyfitter_cfg.c **** *  contain relatively sparse data.
 165:Generated_Source\PSoC4/cyfitter_cfg.c **** *
 166:Generated_Source\PSoC4/cyfitter_cfg.c **** * Parameters:
 167:Generated_Source\PSoC4/cyfitter_cfg.c **** *   void
 168:Generated_Source\PSoC4/cyfitter_cfg.c **** *
 169:Generated_Source\PSoC4/cyfitter_cfg.c **** * Return:
 170:Generated_Source\PSoC4/cyfitter_cfg.c **** *   void
 171:Generated_Source\PSoC4/cyfitter_cfg.c **** *
 172:Generated_Source\PSoC4/cyfitter_cfg.c **** *******************************************************************************/
 173:Generated_Source\PSoC4/cyfitter_cfg.c **** static void cfg_write_bytes32(const uint32 addr_table[], const cy_cfg_addrvalue_t data_table[]);
 174:Generated_Source\PSoC4/cyfitter_cfg.c **** static void cfg_write_bytes32(const uint32 addr_table[], const cy_cfg_addrvalue_t data_table[])
 175:Generated_Source\PSoC4/cyfitter_cfg.c **** {
 137              		.loc 1 175 0
 138              		.cfi_startproc
 139              		@ args = 0, pretend = 0, frame = 24
 140              		@ frame_needed = 1, uses_anonymous_args = 0
 141 0000 80B5     		push	{r7, lr}
 142              		.cfi_def_cfa_offset 8
 143              		.cfi_offset 7, -8
 144              		.cfi_offset 14, -4
 145 0002 86B0     		sub	sp, sp, #24
 146              		.cfi_def_cfa_offset 32
 147 0004 00AF     		add	r7, sp, #0
 148              		.cfi_def_cfa_register 7
 149 0006 7860     		str	r0, [r7, #4]
 150 0008 3960     		str	r1, [r7]
 176:Generated_Source\PSoC4/cyfitter_cfg.c **** 	/* For 32-bit little-endian architectures */
 177:Generated_Source\PSoC4/cyfitter_cfg.c **** 	uint32 i, j = 0u;
 151              		.loc 1 177 0
 152 000a 0023     		movs	r3, #0
 153 000c 3B61     		str	r3, [r7, #16]
 178:Generated_Source\PSoC4/cyfitter_cfg.c **** 	for (i = 0u; i < CY_CFG_BASE_ADDR_COUNT; i++)
 154              		.loc 1 178 0
 155 000e 0023     		movs	r3, #0
 156 0010 7B61     		str	r3, [r7, #20]
 157 0012 2FE0     		b	.L5
 158              	.L8:
 159              	.LBB2:
 179:Generated_Source\PSoC4/cyfitter_cfg.c **** 	{
 180:Generated_Source\PSoC4/cyfitter_cfg.c **** 		uint32 baseAddr = addr_table[i];
 160              		.loc 1 180 0
 161 0014 7B69     		ldr	r3, [r7, #20]
 162 0016 9B00     		lsls	r3, r3, #2
ARM GAS  C:\Users\sur\AppData\Local\Temp\ccgUkA5n.s 			page 7


 163 0018 7A68     		ldr	r2, [r7, #4]
 164 001a D318     		adds	r3, r2, r3
 165 001c 1B68     		ldr	r3, [r3]
 166 001e BB60     		str	r3, [r7, #8]
 181:Generated_Source\PSoC4/cyfitter_cfg.c **** 		uint8 count = (uint8)baseAddr;
 167              		.loc 1 181 0
 168 0020 0F23     		movs	r3, #15
 169 0022 FB18     		adds	r3, r7, r3
 170 0024 BA68     		ldr	r2, [r7, #8]
 171 0026 1A70     		strb	r2, [r3]
 182:Generated_Source\PSoC4/cyfitter_cfg.c **** 		baseAddr &= 0xFFFFFF00u;
 172              		.loc 1 182 0
 173 0028 BB68     		ldr	r3, [r7, #8]
 174 002a FF22     		movs	r2, #255
 175 002c 9343     		bics	r3, r2
 176 002e BB60     		str	r3, [r7, #8]
 183:Generated_Source\PSoC4/cyfitter_cfg.c **** 		while (count != 0u)
 177              		.loc 1 183 0
 178 0030 18E0     		b	.L6
 179              	.L7:
 184:Generated_Source\PSoC4/cyfitter_cfg.c **** 		{
 185:Generated_Source\PSoC4/cyfitter_cfg.c **** 			CY_SET_REG8((void *)(baseAddr + data_table[j].offset), data_table[j].value);
 180              		.loc 1 185 0
 181 0032 3B69     		ldr	r3, [r7, #16]
 182 0034 5B00     		lsls	r3, r3, #1
 183 0036 3A68     		ldr	r2, [r7]
 184 0038 D318     		adds	r3, r2, r3
 185 003a 1B78     		ldrb	r3, [r3]
 186 003c 1A00     		movs	r2, r3
 187 003e BB68     		ldr	r3, [r7, #8]
 188 0040 D318     		adds	r3, r2, r3
 189 0042 1900     		movs	r1, r3
 190 0044 3B69     		ldr	r3, [r7, #16]
 191 0046 5B00     		lsls	r3, r3, #1
 192 0048 3A68     		ldr	r2, [r7]
 193 004a D318     		adds	r3, r2, r3
 194 004c 5B78     		ldrb	r3, [r3, #1]
 195 004e 0B70     		strb	r3, [r1]
 186:Generated_Source\PSoC4/cyfitter_cfg.c **** 			j++;
 196              		.loc 1 186 0
 197 0050 3B69     		ldr	r3, [r7, #16]
 198 0052 0133     		adds	r3, r3, #1
 199 0054 3B61     		str	r3, [r7, #16]
 187:Generated_Source\PSoC4/cyfitter_cfg.c **** 			count--;
 200              		.loc 1 187 0
 201 0056 0F23     		movs	r3, #15
 202 0058 FB18     		adds	r3, r7, r3
 203 005a 1A78     		ldrb	r2, [r3]
 204 005c 0F23     		movs	r3, #15
 205 005e FB18     		adds	r3, r7, r3
 206 0060 013A     		subs	r2, r2, #1
 207 0062 1A70     		strb	r2, [r3]
 208              	.L6:
 183:Generated_Source\PSoC4/cyfitter_cfg.c **** 		{
 209              		.loc 1 183 0
 210 0064 0F23     		movs	r3, #15
 211 0066 FB18     		adds	r3, r7, r3
ARM GAS  C:\Users\sur\AppData\Local\Temp\ccgUkA5n.s 			page 8


 212 0068 1B78     		ldrb	r3, [r3]
 213 006a 002B     		cmp	r3, #0
 214 006c E1D1     		bne	.L7
 215              	.LBE2:
 178:Generated_Source\PSoC4/cyfitter_cfg.c **** 	{
 216              		.loc 1 178 0 discriminator 2
 217 006e 7B69     		ldr	r3, [r7, #20]
 218 0070 0133     		adds	r3, r3, #1
 219 0072 7B61     		str	r3, [r7, #20]
 220              	.L5:
 178:Generated_Source\PSoC4/cyfitter_cfg.c **** 	{
 221              		.loc 1 178 0 is_stmt 0 discriminator 1
 222 0074 7B69     		ldr	r3, [r7, #20]
 223 0076 082B     		cmp	r3, #8
 224 0078 CCD9     		bls	.L8
 188:Generated_Source\PSoC4/cyfitter_cfg.c **** 		}
 189:Generated_Source\PSoC4/cyfitter_cfg.c **** 	}
 190:Generated_Source\PSoC4/cyfitter_cfg.c **** }
 225              		.loc 1 190 0 is_stmt 1
 226 007a C046     		nop
 227 007c BD46     		mov	sp, r7
 228 007e 06B0     		add	sp, sp, #24
 229              		@ sp needed
 230 0080 80BD     		pop	{r7, pc}
 231              		.cfi_endproc
 232              	.LFE3:
 233              		.size	cfg_write_bytes32, .-cfg_write_bytes32
 234 0082 C046     		.section	.psocinit,"ax",%progbits
 235              		.align	2
 236              		.code	16
 237              		.thumb_func
 238              		.type	ClockSetup, %function
 239              	ClockSetup:
 240              	.LFB4:
 191:Generated_Source\PSoC4/cyfitter_cfg.c **** 
 192:Generated_Source\PSoC4/cyfitter_cfg.c **** 
 193:Generated_Source\PSoC4/cyfitter_cfg.c **** /*******************************************************************************
 194:Generated_Source\PSoC4/cyfitter_cfg.c **** * Function Name: ClockSetup
 195:Generated_Source\PSoC4/cyfitter_cfg.c **** ********************************************************************************
 196:Generated_Source\PSoC4/cyfitter_cfg.c **** *
 197:Generated_Source\PSoC4/cyfitter_cfg.c **** * Summary:
 198:Generated_Source\PSoC4/cyfitter_cfg.c **** *   Performs the initialization of all of the clocks in the device based on the
 199:Generated_Source\PSoC4/cyfitter_cfg.c **** *   settings in the Clock tab of the DWR.  This includes enabling the requested
 200:Generated_Source\PSoC4/cyfitter_cfg.c **** *   clocks and setting the necessary dividers to produce the desired frequency. 
 201:Generated_Source\PSoC4/cyfitter_cfg.c **** *
 202:Generated_Source\PSoC4/cyfitter_cfg.c **** * Parameters:
 203:Generated_Source\PSoC4/cyfitter_cfg.c **** *   void
 204:Generated_Source\PSoC4/cyfitter_cfg.c **** *
 205:Generated_Source\PSoC4/cyfitter_cfg.c **** * Return:
 206:Generated_Source\PSoC4/cyfitter_cfg.c **** *   void
 207:Generated_Source\PSoC4/cyfitter_cfg.c **** *
 208:Generated_Source\PSoC4/cyfitter_cfg.c **** *******************************************************************************/
 209:Generated_Source\PSoC4/cyfitter_cfg.c **** static void ClockSetup(void);
 210:Generated_Source\PSoC4/cyfitter_cfg.c **** CY_CFG_SECTION
 211:Generated_Source\PSoC4/cyfitter_cfg.c **** static void ClockSetup(void)
 212:Generated_Source\PSoC4/cyfitter_cfg.c **** {
 241              		.loc 1 212 0
ARM GAS  C:\Users\sur\AppData\Local\Temp\ccgUkA5n.s 			page 9


 242              		.cfi_startproc
 243              		@ args = 0, pretend = 0, frame = 0
 244              		@ frame_needed = 1, uses_anonymous_args = 0
 245 0000 80B5     		push	{r7, lr}
 246              		.cfi_def_cfa_offset 8
 247              		.cfi_offset 7, -8
 248              		.cfi_offset 14, -4
 249 0002 00AF     		add	r7, sp, #0
 250              		.cfi_def_cfa_register 7
 213:Generated_Source\PSoC4/cyfitter_cfg.c **** 	/* Enable HALF_EN before trimming for the flash accelerator. */
 214:Generated_Source\PSoC4/cyfitter_cfg.c **** 	CY_SET_REG32((void CYXDATA *)(CYREG_CLK_SELECT), (CY_GET_REG32((void *)CYREG_CLK_SELECT) | 0x00040
 251              		.loc 1 214 0
 252 0004 124B     		ldr	r3, .L10
 253 0006 124A     		ldr	r2, .L10
 254 0008 1268     		ldr	r2, [r2]
 255 000a 8021     		movs	r1, #128
 256 000c C902     		lsls	r1, r1, #11
 257 000e 0A43     		orrs	r2, r1
 258 0010 1A60     		str	r2, [r3]
 215:Generated_Source\PSoC4/cyfitter_cfg.c **** 
 216:Generated_Source\PSoC4/cyfitter_cfg.c **** 	/* Setup and trim IMO based on desired frequency. */
 217:Generated_Source\PSoC4/cyfitter_cfg.c **** 	CySysClkWriteImoFreq(24u);
 259              		.loc 1 217 0
 260 0012 1820     		movs	r0, #24
 261 0014 FFF7FEFF 		bl	CySysClkWriteImoFreq
 218:Generated_Source\PSoC4/cyfitter_cfg.c **** 
 219:Generated_Source\PSoC4/cyfitter_cfg.c **** 	/* Disable HALF_EN since it is not required at this IMO frequency. */
 220:Generated_Source\PSoC4/cyfitter_cfg.c **** 	CY_SET_REG32((void CYXDATA *)(CYREG_CLK_SELECT), (CY_GET_REG32((void *)CYREG_CLK_SELECT) & 0xFFFBF
 262              		.loc 1 220 0
 263 0018 0D4B     		ldr	r3, .L10
 264 001a 0D4A     		ldr	r2, .L10
 265 001c 1268     		ldr	r2, [r2]
 266 001e 0D49     		ldr	r1, .L10+4
 267 0020 0A40     		ands	r2, r1
 268 0022 1A60     		str	r2, [r3]
 221:Generated_Source\PSoC4/cyfitter_cfg.c **** 	/* CYDEV_CLK_ILO_CONFIG Starting address: CYDEV_CLK_ILO_CONFIG */
 222:Generated_Source\PSoC4/cyfitter_cfg.c **** 	CY_SET_REG32((void *)(CYREG_CLK_ILO_CONFIG), 0x80000006u);
 269              		.loc 1 222 0
 270 0024 0C4B     		ldr	r3, .L10+8
 271 0026 0D4A     		ldr	r2, .L10+12
 272 0028 1A60     		str	r2, [r3]
 223:Generated_Source\PSoC4/cyfitter_cfg.c **** 
 224:Generated_Source\PSoC4/cyfitter_cfg.c **** 
 225:Generated_Source\PSoC4/cyfitter_cfg.c **** 	/* CYDEV_CLK_SELECT00 Starting address: CYDEV_CLK_SELECT00 */
 226:Generated_Source\PSoC4/cyfitter_cfg.c **** 	CY_SET_REG32((void *)(CYREG_CLK_SELECT12), 0x00000010u);
 273              		.loc 1 226 0
 274 002a 0D4B     		ldr	r3, .L10+16
 275 002c 1022     		movs	r2, #16
 276 002e 1A60     		str	r2, [r3]
 227:Generated_Source\PSoC4/cyfitter_cfg.c **** 
 228:Generated_Source\PSoC4/cyfitter_cfg.c **** 	/* CYDEV_CLK_IMO_CONFIG Starting address: CYDEV_CLK_IMO_CONFIG */
 229:Generated_Source\PSoC4/cyfitter_cfg.c **** 	CY_SET_REG32((void *)(CYREG_CLK_IMO_CONFIG), 0x80000000u);
 277              		.loc 1 229 0
 278 0030 0C4B     		ldr	r3, .L10+20
 279 0032 8022     		movs	r2, #128
 280 0034 1206     		lsls	r2, r2, #24
 281 0036 1A60     		str	r2, [r3]
ARM GAS  C:\Users\sur\AppData\Local\Temp\ccgUkA5n.s 			page 10


 230:Generated_Source\PSoC4/cyfitter_cfg.c **** 
 231:Generated_Source\PSoC4/cyfitter_cfg.c **** 	/* CYDEV_CLK_SELECT Starting address: CYDEV_CLK_SELECT */
 232:Generated_Source\PSoC4/cyfitter_cfg.c **** 	CY_SET_REG32((void *)(CYREG_CLK_SELECT), 0x00000000u);
 282              		.loc 1 232 0
 283 0038 054B     		ldr	r3, .L10
 284 003a 0022     		movs	r2, #0
 285 003c 1A60     		str	r2, [r3]
 233:Generated_Source\PSoC4/cyfitter_cfg.c **** 
 234:Generated_Source\PSoC4/cyfitter_cfg.c **** 	/* CYDEV_CLK_DIVIDER_A00 Starting address: CYDEV_CLK_DIVIDER_A00 */
 235:Generated_Source\PSoC4/cyfitter_cfg.c **** 	CY_SET_REG32((void *)(CYREG_CLK_DIVIDER_A00), 0x80000001u);
 286              		.loc 1 235 0
 287 003e 0A4B     		ldr	r3, .L10+24
 288 0040 0A4A     		ldr	r2, .L10+28
 289 0042 1A60     		str	r2, [r3]
 236:Generated_Source\PSoC4/cyfitter_cfg.c **** 
 237:Generated_Source\PSoC4/cyfitter_cfg.c **** 	CY_SET_REG32((void *)(CYREG_WDT_CONFIG), 0x00000000u);
 290              		.loc 1 237 0
 291 0044 0A4B     		ldr	r3, .L10+32
 292 0046 0022     		movs	r2, #0
 293 0048 1A60     		str	r2, [r3]
 238:Generated_Source\PSoC4/cyfitter_cfg.c **** }
 294              		.loc 1 238 0
 295 004a C046     		nop
 296 004c BD46     		mov	sp, r7
 297              		@ sp needed
 298 004e 80BD     		pop	{r7, pc}
 299              	.L11:
 300              		.align	2
 301              	.L10:
 302 0050 00010B40 		.word	1074462976
 303 0054 FFFFFBFF 		.word	-262145
 304 0058 04010B40 		.word	1074462980
 305 005c 06000080 		.word	-2147483642
 306 0060 30020240 		.word	1073873456
 307 0064 08010B40 		.word	1074462984
 308 0068 00000240 		.word	1073872896
 309 006c 01000080 		.word	-2147483647
 310 0070 0C020B40 		.word	1074463244
 311              		.cfi_endproc
 312              	.LFE4:
 313              		.size	ClockSetup, .-ClockSetup
 314              		.section	.text.AnalogSetDefault,"ax",%progbits
 315              		.align	2
 316              		.code	16
 317              		.thumb_func
 318              		.type	AnalogSetDefault, %function
 319              	AnalogSetDefault:
 320              	.LFB5:
 239:Generated_Source\PSoC4/cyfitter_cfg.c **** 
 240:Generated_Source\PSoC4/cyfitter_cfg.c **** 
 241:Generated_Source\PSoC4/cyfitter_cfg.c **** /* Analog API Functions */
 242:Generated_Source\PSoC4/cyfitter_cfg.c **** 
 243:Generated_Source\PSoC4/cyfitter_cfg.c **** 
 244:Generated_Source\PSoC4/cyfitter_cfg.c **** /*******************************************************************************
 245:Generated_Source\PSoC4/cyfitter_cfg.c **** * Function Name: AnalogSetDefault
 246:Generated_Source\PSoC4/cyfitter_cfg.c **** ********************************************************************************
 247:Generated_Source\PSoC4/cyfitter_cfg.c **** *
ARM GAS  C:\Users\sur\AppData\Local\Temp\ccgUkA5n.s 			page 11


 248:Generated_Source\PSoC4/cyfitter_cfg.c **** * Summary:
 249:Generated_Source\PSoC4/cyfitter_cfg.c **** *  Sets up the analog portions of the chip to default values based on chip
 250:Generated_Source\PSoC4/cyfitter_cfg.c **** *  configuration options from the project.
 251:Generated_Source\PSoC4/cyfitter_cfg.c **** *
 252:Generated_Source\PSoC4/cyfitter_cfg.c **** * Parameters:
 253:Generated_Source\PSoC4/cyfitter_cfg.c **** *  void
 254:Generated_Source\PSoC4/cyfitter_cfg.c **** *
 255:Generated_Source\PSoC4/cyfitter_cfg.c **** * Return:
 256:Generated_Source\PSoC4/cyfitter_cfg.c **** *  void
 257:Generated_Source\PSoC4/cyfitter_cfg.c **** *
 258:Generated_Source\PSoC4/cyfitter_cfg.c **** *******************************************************************************/
 259:Generated_Source\PSoC4/cyfitter_cfg.c **** static void AnalogSetDefault(void);
 260:Generated_Source\PSoC4/cyfitter_cfg.c **** static void AnalogSetDefault(void)
 261:Generated_Source\PSoC4/cyfitter_cfg.c **** {
 321              		.loc 1 261 0
 322              		.cfi_startproc
 323              		@ args = 0, pretend = 0, frame = 0
 324              		@ frame_needed = 1, uses_anonymous_args = 0
 325 0000 80B5     		push	{r7, lr}
 326              		.cfi_def_cfa_offset 8
 327              		.cfi_offset 7, -8
 328              		.cfi_offset 14, -4
 329 0002 00AF     		add	r7, sp, #0
 330              		.cfi_def_cfa_register 7
 262:Generated_Source\PSoC4/cyfitter_cfg.c **** }
 331              		.loc 1 262 0
 332 0004 C046     		nop
 333 0006 BD46     		mov	sp, r7
 334              		@ sp needed
 335 0008 80BD     		pop	{r7, pc}
 336              		.cfi_endproc
 337              	.LFE5:
 338              		.size	AnalogSetDefault, .-AnalogSetDefault
 339 000a C046     		.section	.psocinit
 340              		.align	2
 341              		.global	cyfitter_cfg
 342              		.code	16
 343              		.thumb_func
 344              		.type	cyfitter_cfg, %function
 345              	cyfitter_cfg:
 346              	.LFB6:
 263:Generated_Source\PSoC4/cyfitter_cfg.c **** 
 264:Generated_Source\PSoC4/cyfitter_cfg.c **** 
 265:Generated_Source\PSoC4/cyfitter_cfg.c **** 
 266:Generated_Source\PSoC4/cyfitter_cfg.c **** 
 267:Generated_Source\PSoC4/cyfitter_cfg.c **** /*******************************************************************************
 268:Generated_Source\PSoC4/cyfitter_cfg.c **** * Function Name: cyfitter_cfg
 269:Generated_Source\PSoC4/cyfitter_cfg.c **** ********************************************************************************
 270:Generated_Source\PSoC4/cyfitter_cfg.c **** * Summary:
 271:Generated_Source\PSoC4/cyfitter_cfg.c **** *  This function is called by the start-up code for the selected device. It
 272:Generated_Source\PSoC4/cyfitter_cfg.c **** *  performs all of the necessary device configuration based on the design
 273:Generated_Source\PSoC4/cyfitter_cfg.c **** *  settings.  This includes settings from the Design Wide Resources (DWR) such
 274:Generated_Source\PSoC4/cyfitter_cfg.c **** *  as Clocks and Pins as well as any component configuration that is necessary.
 275:Generated_Source\PSoC4/cyfitter_cfg.c **** *
 276:Generated_Source\PSoC4/cyfitter_cfg.c **** * Parameters:
 277:Generated_Source\PSoC4/cyfitter_cfg.c **** *   void
 278:Generated_Source\PSoC4/cyfitter_cfg.c **** *
ARM GAS  C:\Users\sur\AppData\Local\Temp\ccgUkA5n.s 			page 12


 279:Generated_Source\PSoC4/cyfitter_cfg.c **** * Return:
 280:Generated_Source\PSoC4/cyfitter_cfg.c **** *   void
 281:Generated_Source\PSoC4/cyfitter_cfg.c **** *
 282:Generated_Source\PSoC4/cyfitter_cfg.c **** *******************************************************************************/
 283:Generated_Source\PSoC4/cyfitter_cfg.c **** CY_CFG_SECTION
 284:Generated_Source\PSoC4/cyfitter_cfg.c **** void cyfitter_cfg(void)
 285:Generated_Source\PSoC4/cyfitter_cfg.c **** {
 347              		.loc 1 285 0
 348              		.cfi_startproc
 349              		@ args = 0, pretend = 0, frame = 24
 350              		@ frame_needed = 1, uses_anonymous_args = 0
 351 0074 80B5     		push	{r7, lr}
 352              		.cfi_def_cfa_offset 8
 353              		.cfi_offset 7, -8
 354              		.cfi_offset 14, -4
 355 0076 86B0     		sub	sp, sp, #24
 356              		.cfi_def_cfa_offset 32
 357 0078 00AF     		add	r7, sp, #0
 358              		.cfi_def_cfa_register 7
 286:Generated_Source\PSoC4/cyfitter_cfg.c **** 	/* Disable interrupts by default. Let user enable if/when they want. */
 287:Generated_Source\PSoC4/cyfitter_cfg.c **** 	CyGlobalIntDisable;
 359              		.loc 1 287 0
 360              		.syntax divided
 361              	@ 287 "Generated_Source\PSoC4\cyfitter_cfg.c" 1
 362 007a 72B6     		CPSID   i
 363              	@ 0 "" 2
 364              		.thumb
 365              		.syntax unified
 366              	.LBB3:
 288:Generated_Source\PSoC4/cyfitter_cfg.c **** 
 289:Generated_Source\PSoC4/cyfitter_cfg.c **** 	{
 290:Generated_Source\PSoC4/cyfitter_cfg.c **** 		static const uint32 CYCODE cy_cfg_addr_table[] = {
 291:Generated_Source\PSoC4/cyfitter_cfg.c **** 			0x400F0001u, /* Base address: 0x400F0000 Count: 1 */
 292:Generated_Source\PSoC4/cyfitter_cfg.c **** 			0x400F303Fu, /* Base address: 0x400F3000 Count: 63 */
 293:Generated_Source\PSoC4/cyfitter_cfg.c **** 			0x400F3128u, /* Base address: 0x400F3100 Count: 40 */
 294:Generated_Source\PSoC4/cyfitter_cfg.c **** 			0x400F3220u, /* Base address: 0x400F3200 Count: 32 */
 295:Generated_Source\PSoC4/cyfitter_cfg.c **** 			0x400F3336u, /* Base address: 0x400F3300 Count: 54 */
 296:Generated_Source\PSoC4/cyfitter_cfg.c **** 			0x400F4003u, /* Base address: 0x400F4000 Count: 3 */
 297:Generated_Source\PSoC4/cyfitter_cfg.c **** 			0x400F4201u, /* Base address: 0x400F4200 Count: 1 */
 298:Generated_Source\PSoC4/cyfitter_cfg.c **** 			0x400F4306u, /* Base address: 0x400F4300 Count: 6 */
 299:Generated_Source\PSoC4/cyfitter_cfg.c **** 			0x400F6002u, /* Base address: 0x400F6000 Count: 2 */
 300:Generated_Source\PSoC4/cyfitter_cfg.c **** 		};
 301:Generated_Source\PSoC4/cyfitter_cfg.c **** 
 302:Generated_Source\PSoC4/cyfitter_cfg.c **** 		static const cy_cfg_addrvalue_t CYCODE cy_cfg_data_table[] = {
 303:Generated_Source\PSoC4/cyfitter_cfg.c **** 			{0x81u, 0x11u},
 304:Generated_Source\PSoC4/cyfitter_cfg.c **** 			{0x04u, 0x05u},
 305:Generated_Source\PSoC4/cyfitter_cfg.c **** 			{0x06u, 0x0Au},
 306:Generated_Source\PSoC4/cyfitter_cfg.c **** 			{0x0Cu, 0x0Eu},
 307:Generated_Source\PSoC4/cyfitter_cfg.c **** 			{0x1Cu, 0x03u},
 308:Generated_Source\PSoC4/cyfitter_cfg.c **** 			{0x1Eu, 0x04u},
 309:Generated_Source\PSoC4/cyfitter_cfg.c **** 			{0x28u, 0x04u},
 310:Generated_Source\PSoC4/cyfitter_cfg.c **** 			{0x2Au, 0x09u},
 311:Generated_Source\PSoC4/cyfitter_cfg.c **** 			{0x36u, 0x0Fu},
 312:Generated_Source\PSoC4/cyfitter_cfg.c **** 			{0x38u, 0x80u},
 313:Generated_Source\PSoC4/cyfitter_cfg.c **** 			{0x54u, 0x40u},
 314:Generated_Source\PSoC4/cyfitter_cfg.c **** 			{0x58u, 0x04u},
 315:Generated_Source\PSoC4/cyfitter_cfg.c **** 			{0x5Bu, 0x04u},
ARM GAS  C:\Users\sur\AppData\Local\Temp\ccgUkA5n.s 			page 13


 316:Generated_Source\PSoC4/cyfitter_cfg.c **** 			{0x5Fu, 0x01u},
 317:Generated_Source\PSoC4/cyfitter_cfg.c **** 			{0x81u, 0x07u},
 318:Generated_Source\PSoC4/cyfitter_cfg.c **** 			{0x82u, 0x01u},
 319:Generated_Source\PSoC4/cyfitter_cfg.c **** 			{0x83u, 0x38u},
 320:Generated_Source\PSoC4/cyfitter_cfg.c **** 			{0x84u, 0x2Eu},
 321:Generated_Source\PSoC4/cyfitter_cfg.c **** 			{0x85u, 0x04u},
 322:Generated_Source\PSoC4/cyfitter_cfg.c **** 			{0x86u, 0x80u},
 323:Generated_Source\PSoC4/cyfitter_cfg.c **** 			{0x88u, 0x22u},
 324:Generated_Source\PSoC4/cyfitter_cfg.c **** 			{0x89u, 0x80u},
 325:Generated_Source\PSoC4/cyfitter_cfg.c **** 			{0x8Au, 0x4Cu},
 326:Generated_Source\PSoC4/cyfitter_cfg.c **** 			{0x8Bu, 0x04u},
 327:Generated_Source\PSoC4/cyfitter_cfg.c **** 			{0x8Cu, 0x20u},
 328:Generated_Source\PSoC4/cyfitter_cfg.c **** 			{0x8Du, 0x04u},
 329:Generated_Source\PSoC4/cyfitter_cfg.c **** 			{0x8Eu, 0xD0u},
 330:Generated_Source\PSoC4/cyfitter_cfg.c **** 			{0x8Fu, 0x80u},
 331:Generated_Source\PSoC4/cyfitter_cfg.c **** 			{0x90u, 0xD8u},
 332:Generated_Source\PSoC4/cyfitter_cfg.c **** 			{0x91u, 0x84u},
 333:Generated_Source\PSoC4/cyfitter_cfg.c **** 			{0x92u, 0x01u},
 334:Generated_Source\PSoC4/cyfitter_cfg.c **** 			{0x94u, 0xD1u},
 335:Generated_Source\PSoC4/cyfitter_cfg.c **** 			{0x95u, 0x84u},
 336:Generated_Source\PSoC4/cyfitter_cfg.c **** 			{0x96u, 0x08u},
 337:Generated_Source\PSoC4/cyfitter_cfg.c **** 			{0x98u, 0x02u},
 338:Generated_Source\PSoC4/cyfitter_cfg.c **** 			{0x99u, 0x56u},
 339:Generated_Source\PSoC4/cyfitter_cfg.c **** 			{0x9Au, 0x0Cu},
 340:Generated_Source\PSoC4/cyfitter_cfg.c **** 			{0x9Bu, 0x09u},
 341:Generated_Source\PSoC4/cyfitter_cfg.c **** 			{0x9Cu, 0x10u},
 342:Generated_Source\PSoC4/cyfitter_cfg.c **** 			{0x9Du, 0x01u},
 343:Generated_Source\PSoC4/cyfitter_cfg.c **** 			{0x9Eu, 0x26u},
 344:Generated_Source\PSoC4/cyfitter_cfg.c **** 			{0xA0u, 0xD9u},
 345:Generated_Source\PSoC4/cyfitter_cfg.c **** 			{0xA1u, 0x84u},
 346:Generated_Source\PSoC4/cyfitter_cfg.c **** 			{0xA5u, 0x0Au},
 347:Generated_Source\PSoC4/cyfitter_cfg.c **** 			{0xA7u, 0x10u},
 348:Generated_Source\PSoC4/cyfitter_cfg.c **** 			{0xA8u, 0xD9u},
 349:Generated_Source\PSoC4/cyfitter_cfg.c **** 			{0xACu, 0xD9u},
 350:Generated_Source\PSoC4/cyfitter_cfg.c **** 			{0xADu, 0x60u},
 351:Generated_Source\PSoC4/cyfitter_cfg.c **** 			{0xB1u, 0x7Fu},
 352:Generated_Source\PSoC4/cyfitter_cfg.c **** 			{0xB2u, 0x01u},
 353:Generated_Source\PSoC4/cyfitter_cfg.c **** 			{0xB3u, 0x80u},
 354:Generated_Source\PSoC4/cyfitter_cfg.c **** 			{0xB4u, 0x0Eu},
 355:Generated_Source\PSoC4/cyfitter_cfg.c **** 			{0xB6u, 0xF0u},
 356:Generated_Source\PSoC4/cyfitter_cfg.c **** 			{0xB7u, 0x80u},
 357:Generated_Source\PSoC4/cyfitter_cfg.c **** 			{0xB9u, 0x02u},
 358:Generated_Source\PSoC4/cyfitter_cfg.c **** 			{0xBAu, 0xA0u},
 359:Generated_Source\PSoC4/cyfitter_cfg.c **** 			{0xBEu, 0x04u},
 360:Generated_Source\PSoC4/cyfitter_cfg.c **** 			{0xBFu, 0x44u},
 361:Generated_Source\PSoC4/cyfitter_cfg.c **** 			{0xD6u, 0x02u},
 362:Generated_Source\PSoC4/cyfitter_cfg.c **** 			{0xD7u, 0x24u},
 363:Generated_Source\PSoC4/cyfitter_cfg.c **** 			{0xD8u, 0x04u},
 364:Generated_Source\PSoC4/cyfitter_cfg.c **** 			{0xD9u, 0x04u},
 365:Generated_Source\PSoC4/cyfitter_cfg.c **** 			{0xDBu, 0x04u},
 366:Generated_Source\PSoC4/cyfitter_cfg.c **** 			{0xDFu, 0x01u},
 367:Generated_Source\PSoC4/cyfitter_cfg.c **** 			{0x01u, 0x80u},
 368:Generated_Source\PSoC4/cyfitter_cfg.c **** 			{0x03u, 0x20u},
 369:Generated_Source\PSoC4/cyfitter_cfg.c **** 			{0x05u, 0x50u},
 370:Generated_Source\PSoC4/cyfitter_cfg.c **** 			{0x06u, 0xC0u},
 371:Generated_Source\PSoC4/cyfitter_cfg.c **** 			{0x07u, 0x20u},
 372:Generated_Source\PSoC4/cyfitter_cfg.c **** 			{0x0Au, 0x01u},
ARM GAS  C:\Users\sur\AppData\Local\Temp\ccgUkA5n.s 			page 14


 373:Generated_Source\PSoC4/cyfitter_cfg.c **** 			{0x0Eu, 0x55u},
 374:Generated_Source\PSoC4/cyfitter_cfg.c **** 			{0x13u, 0x20u},
 375:Generated_Source\PSoC4/cyfitter_cfg.c **** 			{0x15u, 0x01u},
 376:Generated_Source\PSoC4/cyfitter_cfg.c **** 			{0x16u, 0x02u},
 377:Generated_Source\PSoC4/cyfitter_cfg.c **** 			{0x17u, 0x10u},
 378:Generated_Source\PSoC4/cyfitter_cfg.c **** 			{0x19u, 0x80u},
 379:Generated_Source\PSoC4/cyfitter_cfg.c **** 			{0x1Cu, 0x10u},
 380:Generated_Source\PSoC4/cyfitter_cfg.c **** 			{0x1Du, 0x40u},
 381:Generated_Source\PSoC4/cyfitter_cfg.c **** 			{0x1Eu, 0x04u},
 382:Generated_Source\PSoC4/cyfitter_cfg.c **** 			{0x26u, 0x08u},
 383:Generated_Source\PSoC4/cyfitter_cfg.c **** 			{0x27u, 0x82u},
 384:Generated_Source\PSoC4/cyfitter_cfg.c **** 			{0x2Eu, 0x02u},
 385:Generated_Source\PSoC4/cyfitter_cfg.c **** 			{0x2Fu, 0x21u},
 386:Generated_Source\PSoC4/cyfitter_cfg.c **** 			{0x36u, 0x05u},
 387:Generated_Source\PSoC4/cyfitter_cfg.c **** 			{0x37u, 0xA0u},
 388:Generated_Source\PSoC4/cyfitter_cfg.c **** 			{0x3Eu, 0x55u},
 389:Generated_Source\PSoC4/cyfitter_cfg.c **** 			{0x60u, 0x10u},
 390:Generated_Source\PSoC4/cyfitter_cfg.c **** 			{0x62u, 0x50u},
 391:Generated_Source\PSoC4/cyfitter_cfg.c **** 			{0x67u, 0x08u},
 392:Generated_Source\PSoC4/cyfitter_cfg.c **** 			{0x6Du, 0x01u},
 393:Generated_Source\PSoC4/cyfitter_cfg.c **** 			{0x6Eu, 0x5Au},
 394:Generated_Source\PSoC4/cyfitter_cfg.c **** 			{0x6Fu, 0x51u},
 395:Generated_Source\PSoC4/cyfitter_cfg.c **** 			{0x76u, 0x02u},
 396:Generated_Source\PSoC4/cyfitter_cfg.c **** 			{0x87u, 0x80u},
 397:Generated_Source\PSoC4/cyfitter_cfg.c **** 			{0x89u, 0x80u},
 398:Generated_Source\PSoC4/cyfitter_cfg.c **** 			{0xC0u, 0xF5u},
 399:Generated_Source\PSoC4/cyfitter_cfg.c **** 			{0xC2u, 0xF1u},
 400:Generated_Source\PSoC4/cyfitter_cfg.c **** 			{0xC4u, 0xD2u},
 401:Generated_Source\PSoC4/cyfitter_cfg.c **** 			{0xCAu, 0xD0u},
 402:Generated_Source\PSoC4/cyfitter_cfg.c **** 			{0xCCu, 0xF0u},
 403:Generated_Source\PSoC4/cyfitter_cfg.c **** 			{0xCEu, 0xF0u},
 404:Generated_Source\PSoC4/cyfitter_cfg.c **** 			{0xD8u, 0x2Eu},
 405:Generated_Source\PSoC4/cyfitter_cfg.c **** 			{0xE0u, 0x02u},
 406:Generated_Source\PSoC4/cyfitter_cfg.c **** 			{0xE6u, 0x80u},
 407:Generated_Source\PSoC4/cyfitter_cfg.c **** 			{0x86u, 0x02u},
 408:Generated_Source\PSoC4/cyfitter_cfg.c **** 			{0x96u, 0x03u},
 409:Generated_Source\PSoC4/cyfitter_cfg.c **** 			{0x9Au, 0x03u},
 410:Generated_Source\PSoC4/cyfitter_cfg.c **** 			{0x9Cu, 0x01u},
 411:Generated_Source\PSoC4/cyfitter_cfg.c **** 			{0xB4u, 0x03u},
 412:Generated_Source\PSoC4/cyfitter_cfg.c **** 			{0xC0u, 0x23u},
 413:Generated_Source\PSoC4/cyfitter_cfg.c **** 			{0xC1u, 0x01u},
 414:Generated_Source\PSoC4/cyfitter_cfg.c **** 			{0xC2u, 0x60u},
 415:Generated_Source\PSoC4/cyfitter_cfg.c **** 			{0xC7u, 0xB0u},
 416:Generated_Source\PSoC4/cyfitter_cfg.c **** 			{0xC8u, 0x20u},
 417:Generated_Source\PSoC4/cyfitter_cfg.c **** 			{0xC9u, 0x01u},
 418:Generated_Source\PSoC4/cyfitter_cfg.c **** 			{0xCAu, 0xFFu},
 419:Generated_Source\PSoC4/cyfitter_cfg.c **** 			{0xCBu, 0xFFu},
 420:Generated_Source\PSoC4/cyfitter_cfg.c **** 			{0xCCu, 0x23u},
 421:Generated_Source\PSoC4/cyfitter_cfg.c **** 			{0xCEu, 0x80u},
 422:Generated_Source\PSoC4/cyfitter_cfg.c **** 			{0xCFu, 0x08u},
 423:Generated_Source\PSoC4/cyfitter_cfg.c **** 			{0xD0u, 0x04u},
 424:Generated_Source\PSoC4/cyfitter_cfg.c **** 			{0xD8u, 0x04u},
 425:Generated_Source\PSoC4/cyfitter_cfg.c **** 			{0xDAu, 0x04u},
 426:Generated_Source\PSoC4/cyfitter_cfg.c **** 			{0xDFu, 0x01u},
 427:Generated_Source\PSoC4/cyfitter_cfg.c **** 			{0xE2u, 0xC0u},
 428:Generated_Source\PSoC4/cyfitter_cfg.c **** 			{0xE4u, 0x40u},
 429:Generated_Source\PSoC4/cyfitter_cfg.c **** 			{0xE5u, 0x01u},
ARM GAS  C:\Users\sur\AppData\Local\Temp\ccgUkA5n.s 			page 15


 430:Generated_Source\PSoC4/cyfitter_cfg.c **** 			{0xE6u, 0x10u},
 431:Generated_Source\PSoC4/cyfitter_cfg.c **** 			{0xE7u, 0x11u},
 432:Generated_Source\PSoC4/cyfitter_cfg.c **** 			{0xE8u, 0xC0u},
 433:Generated_Source\PSoC4/cyfitter_cfg.c **** 			{0xE9u, 0x01u},
 434:Generated_Source\PSoC4/cyfitter_cfg.c **** 			{0xEBu, 0x11u},
 435:Generated_Source\PSoC4/cyfitter_cfg.c **** 			{0xECu, 0x40u},
 436:Generated_Source\PSoC4/cyfitter_cfg.c **** 			{0xEDu, 0x01u},
 437:Generated_Source\PSoC4/cyfitter_cfg.c **** 			{0xEEu, 0x40u},
 438:Generated_Source\PSoC4/cyfitter_cfg.c **** 			{0xEFu, 0x01u},
 439:Generated_Source\PSoC4/cyfitter_cfg.c **** 			{0x00u, 0x04u},
 440:Generated_Source\PSoC4/cyfitter_cfg.c **** 			{0x05u, 0x12u},
 441:Generated_Source\PSoC4/cyfitter_cfg.c **** 			{0x06u, 0x02u},
 442:Generated_Source\PSoC4/cyfitter_cfg.c **** 			{0x07u, 0x20u},
 443:Generated_Source\PSoC4/cyfitter_cfg.c **** 			{0x09u, 0xA8u},
 444:Generated_Source\PSoC4/cyfitter_cfg.c **** 			{0x0Eu, 0x16u},
 445:Generated_Source\PSoC4/cyfitter_cfg.c **** 			{0x17u, 0x51u},
 446:Generated_Source\PSoC4/cyfitter_cfg.c **** 			{0x18u, 0x04u},
 447:Generated_Source\PSoC4/cyfitter_cfg.c **** 			{0x1Du, 0xB0u},
 448:Generated_Source\PSoC4/cyfitter_cfg.c **** 			{0x1Eu, 0x43u},
 449:Generated_Source\PSoC4/cyfitter_cfg.c **** 			{0x1Fu, 0x20u},
 450:Generated_Source\PSoC4/cyfitter_cfg.c **** 			{0x24u, 0x08u},
 451:Generated_Source\PSoC4/cyfitter_cfg.c **** 			{0x25u, 0x48u},
 452:Generated_Source\PSoC4/cyfitter_cfg.c **** 			{0x27u, 0x28u},
 453:Generated_Source\PSoC4/cyfitter_cfg.c **** 			{0x2Fu, 0x20u},
 454:Generated_Source\PSoC4/cyfitter_cfg.c **** 			{0x35u, 0x02u},
 455:Generated_Source\PSoC4/cyfitter_cfg.c **** 			{0x37u, 0x28u},
 456:Generated_Source\PSoC4/cyfitter_cfg.c **** 			{0x38u, 0x08u},
 457:Generated_Source\PSoC4/cyfitter_cfg.c **** 			{0x3Bu, 0x08u},
 458:Generated_Source\PSoC4/cyfitter_cfg.c **** 			{0x3Eu, 0x01u},
 459:Generated_Source\PSoC4/cyfitter_cfg.c **** 			{0x41u, 0xA8u},
 460:Generated_Source\PSoC4/cyfitter_cfg.c **** 			{0x45u, 0xA8u},
 461:Generated_Source\PSoC4/cyfitter_cfg.c **** 			{0x4Au, 0x08u},
 462:Generated_Source\PSoC4/cyfitter_cfg.c **** 			{0x4Du, 0x0Au},
 463:Generated_Source\PSoC4/cyfitter_cfg.c **** 			{0x4Eu, 0x08u},
 464:Generated_Source\PSoC4/cyfitter_cfg.c **** 			{0x53u, 0x01u},
 465:Generated_Source\PSoC4/cyfitter_cfg.c **** 			{0x56u, 0x90u},
 466:Generated_Source\PSoC4/cyfitter_cfg.c **** 			{0x5Du, 0x18u},
 467:Generated_Source\PSoC4/cyfitter_cfg.c **** 			{0x5Eu, 0x40u},
 468:Generated_Source\PSoC4/cyfitter_cfg.c **** 			{0x5Fu, 0x02u},
 469:Generated_Source\PSoC4/cyfitter_cfg.c **** 			{0x64u, 0x01u},
 470:Generated_Source\PSoC4/cyfitter_cfg.c **** 			{0x88u, 0x01u},
 471:Generated_Source\PSoC4/cyfitter_cfg.c **** 			{0x89u, 0x52u},
 472:Generated_Source\PSoC4/cyfitter_cfg.c **** 			{0x8Cu, 0x04u},
 473:Generated_Source\PSoC4/cyfitter_cfg.c **** 			{0x92u, 0x14u},
 474:Generated_Source\PSoC4/cyfitter_cfg.c **** 			{0x96u, 0x01u},
 475:Generated_Source\PSoC4/cyfitter_cfg.c **** 			{0x97u, 0x0Au},
 476:Generated_Source\PSoC4/cyfitter_cfg.c **** 			{0x9Au, 0x02u},
 477:Generated_Source\PSoC4/cyfitter_cfg.c **** 			{0x9Bu, 0x53u},
 478:Generated_Source\PSoC4/cyfitter_cfg.c **** 			{0x9Du, 0x10u},
 479:Generated_Source\PSoC4/cyfitter_cfg.c **** 			{0x9Eu, 0x90u},
 480:Generated_Source\PSoC4/cyfitter_cfg.c **** 			{0x9Fu, 0x20u},
 481:Generated_Source\PSoC4/cyfitter_cfg.c **** 			{0xA2u, 0x08u},
 482:Generated_Source\PSoC4/cyfitter_cfg.c **** 			{0xA7u, 0x20u},
 483:Generated_Source\PSoC4/cyfitter_cfg.c **** 			{0xC0u, 0xF4u},
 484:Generated_Source\PSoC4/cyfitter_cfg.c **** 			{0xC2u, 0xE7u},
 485:Generated_Source\PSoC4/cyfitter_cfg.c **** 			{0xC4u, 0xD0u},
 486:Generated_Source\PSoC4/cyfitter_cfg.c **** 			{0xCAu, 0x40u},
ARM GAS  C:\Users\sur\AppData\Local\Temp\ccgUkA5n.s 			page 16


 487:Generated_Source\PSoC4/cyfitter_cfg.c **** 			{0xCCu, 0xE0u},
 488:Generated_Source\PSoC4/cyfitter_cfg.c **** 			{0xCEu, 0x80u},
 489:Generated_Source\PSoC4/cyfitter_cfg.c **** 			{0xD0u, 0x7Eu},
 490:Generated_Source\PSoC4/cyfitter_cfg.c **** 			{0xD2u, 0x24u},
 491:Generated_Source\PSoC4/cyfitter_cfg.c **** 			{0xD6u, 0xF0u},
 492:Generated_Source\PSoC4/cyfitter_cfg.c **** 			{0xD8u, 0x10u},
 493:Generated_Source\PSoC4/cyfitter_cfg.c **** 			{0x61u, 0x20u},
 494:Generated_Source\PSoC4/cyfitter_cfg.c **** 			{0x89u, 0x20u},
 495:Generated_Source\PSoC4/cyfitter_cfg.c **** 			{0xD8u, 0x40u},
 496:Generated_Source\PSoC4/cyfitter_cfg.c **** 			{0x87u, 0x01u},
 497:Generated_Source\PSoC4/cyfitter_cfg.c **** 			{0x5Bu, 0x01u},
 498:Generated_Source\PSoC4/cyfitter_cfg.c **** 			{0x5Fu, 0x08u},
 499:Generated_Source\PSoC4/cyfitter_cfg.c **** 			{0x8Fu, 0x08u},
 500:Generated_Source\PSoC4/cyfitter_cfg.c **** 			{0x9Bu, 0x01u},
 501:Generated_Source\PSoC4/cyfitter_cfg.c **** 			{0xD6u, 0x03u},
 502:Generated_Source\PSoC4/cyfitter_cfg.c **** 			{0xE4u, 0x02u},
 503:Generated_Source\PSoC4/cyfitter_cfg.c **** 			{0x01u, 0x01u},
 504:Generated_Source\PSoC4/cyfitter_cfg.c **** 			{0x10u, 0x01u},
 505:Generated_Source\PSoC4/cyfitter_cfg.c **** 		};
 506:Generated_Source\PSoC4/cyfitter_cfg.c **** 
 507:Generated_Source\PSoC4/cyfitter_cfg.c **** 
 508:Generated_Source\PSoC4/cyfitter_cfg.c **** 
 509:Generated_Source\PSoC4/cyfitter_cfg.c **** 		CYPACKED typedef struct {
 510:Generated_Source\PSoC4/cyfitter_cfg.c **** 			void CYFAR *address;
 511:Generated_Source\PSoC4/cyfitter_cfg.c **** 			uint16 size;
 512:Generated_Source\PSoC4/cyfitter_cfg.c **** 		} CYPACKED_ATTR cfg_memset_t;
 513:Generated_Source\PSoC4/cyfitter_cfg.c **** 
 514:Generated_Source\PSoC4/cyfitter_cfg.c **** 
 515:Generated_Source\PSoC4/cyfitter_cfg.c **** 		CYPACKED typedef struct {
 516:Generated_Source\PSoC4/cyfitter_cfg.c **** 			void CYFAR *dest;
 517:Generated_Source\PSoC4/cyfitter_cfg.c **** 			const void CYCODE *src;
 518:Generated_Source\PSoC4/cyfitter_cfg.c **** 			uint16 size;
 519:Generated_Source\PSoC4/cyfitter_cfg.c **** 		} CYPACKED_ATTR cfg_memcpy_t;
 520:Generated_Source\PSoC4/cyfitter_cfg.c **** 
 521:Generated_Source\PSoC4/cyfitter_cfg.c **** 		static const cfg_memset_t CYCODE cfg_memset_list[] = {
 522:Generated_Source\PSoC4/cyfitter_cfg.c **** 			/* address, size */
 523:Generated_Source\PSoC4/cyfitter_cfg.c **** 			{(void CYFAR *)(CYDEV_UDB_P0_U0_BASE), 512u},
 524:Generated_Source\PSoC4/cyfitter_cfg.c **** 			{(void CYFAR *)(CYDEV_UDB_P1_U1_BASE), 384u},
 525:Generated_Source\PSoC4/cyfitter_cfg.c **** 			{(void CYFAR *)(CYDEV_UDB_DSI0_BASE), 1024u},
 526:Generated_Source\PSoC4/cyfitter_cfg.c **** 		};
 527:Generated_Source\PSoC4/cyfitter_cfg.c **** 
 528:Generated_Source\PSoC4/cyfitter_cfg.c **** 		/* UDB_0_0_1_CONFIG Address: CYDEV_UDB_P1_U0_BASE Size (bytes): 128 */
 529:Generated_Source\PSoC4/cyfitter_cfg.c **** 		static const uint8 CYCODE BS_UDB_0_0_1_CONFIG_VAL[] = {
 530:Generated_Source\PSoC4/cyfitter_cfg.c **** 			0x02u, 0x99u, 0x00u, 0x62u, 0x1Cu, 0x00u, 0x23u, 0x00u, 0x21u, 0x00u, 0x18u, 0x00u, 0x1Au, 0x00u
 531:Generated_Source\PSoC4/cyfitter_cfg.c **** 			0x00u, 0x04u, 0x00u, 0x00u, 0x02u, 0x10u, 0x18u, 0x68u, 0x18u, 0xCCu, 0x00u, 0x30u, 0x13u, 0x00u
 532:Generated_Source\PSoC4/cyfitter_cfg.c **** 			0x18u, 0x00u, 0x02u, 0x00u, 0x00u, 0xAEu, 0x00u, 0x51u, 0x18u, 0x00u, 0x02u, 0x00u, 0x1Au, 0x00u
 533:Generated_Source\PSoC4/cyfitter_cfg.c **** 			0x20u, 0x00u, 0x00u, 0x07u, 0x0Fu, 0x78u, 0x13u, 0x80u, 0x00u, 0x00u, 0x20u, 0x28u, 0x00u, 0x00u
 534:Generated_Source\PSoC4/cyfitter_cfg.c **** 			0x23u, 0x01u, 0x60u, 0x00u, 0x00u, 0xCEu, 0xFDu, 0x00u, 0x0Fu, 0xFFu, 0xFFu, 0xFFu, 0x02u, 0x00u
 535:Generated_Source\PSoC4/cyfitter_cfg.c **** 			0x04u, 0x00u, 0x00u, 0x00u, 0x09u, 0x00u, 0x00u, 0x00u, 0x04u, 0x04u, 0x04u, 0x04u, 0x00u, 0x00u
 536:Generated_Source\PSoC4/cyfitter_cfg.c **** 			0x00u, 0x00u, 0xC0u, 0x00u, 0x40u, 0x01u, 0x10u, 0x11u, 0xC0u, 0x01u, 0x00u, 0x11u, 0x40u, 0x01u
 537:Generated_Source\PSoC4/cyfitter_cfg.c **** 			0x00u, 0x00u, 0x00u, 0x00u, 0x00u, 0x00u, 0x00u, 0x00u, 0x00u, 0x00u, 0x00u, 0x00u, 0x00u, 0x00u
 538:Generated_Source\PSoC4/cyfitter_cfg.c **** 
 539:Generated_Source\PSoC4/cyfitter_cfg.c **** 		static const cfg_memcpy_t CYCODE cfg_memcpy_list [] = {
 540:Generated_Source\PSoC4/cyfitter_cfg.c **** 			/* dest, src, size */
 541:Generated_Source\PSoC4/cyfitter_cfg.c **** 			{(void CYFAR *)(CYDEV_UDB_P1_U0_BASE), BS_UDB_0_0_1_CONFIG_VAL, 128u},
 542:Generated_Source\PSoC4/cyfitter_cfg.c **** 		};
 543:Generated_Source\PSoC4/cyfitter_cfg.c **** 
ARM GAS  C:\Users\sur\AppData\Local\Temp\ccgUkA5n.s 			page 17


 544:Generated_Source\PSoC4/cyfitter_cfg.c **** 		uint8 CYDATA i;
 545:Generated_Source\PSoC4/cyfitter_cfg.c **** 
 546:Generated_Source\PSoC4/cyfitter_cfg.c **** 		/* Zero out critical memory blocks before beginning configuration */
 547:Generated_Source\PSoC4/cyfitter_cfg.c **** 		for (i = 0u; i < (sizeof(cfg_memset_list)/sizeof(cfg_memset_list[0])); i++)
 367              		.loc 1 547 0
 368 007c 1723     		movs	r3, #23
 369 007e FB18     		adds	r3, r7, r3
 370 0080 0022     		movs	r2, #0
 371 0082 1A70     		strb	r2, [r3]
 372 0084 25E0     		b	.L14
 373              	.L15:
 374              	.LBB4:
 548:Generated_Source\PSoC4/cyfitter_cfg.c **** 		{
 549:Generated_Source\PSoC4/cyfitter_cfg.c **** 			const cfg_memset_t CYCODE * CYDATA ms = &cfg_memset_list[i];
 375              		.loc 1 549 0 discriminator 3
 376 0086 1723     		movs	r3, #23
 377 0088 FB18     		adds	r3, r7, r3
 378 008a 1A78     		ldrb	r2, [r3]
 379 008c 1300     		movs	r3, r2
 380 008e 5B00     		lsls	r3, r3, #1
 381 0090 9B18     		adds	r3, r3, r2
 382 0092 5B00     		lsls	r3, r3, #1
 383 0094 5D4A     		ldr	r2, .L18
 384 0096 9B18     		adds	r3, r3, r2
 385 0098 3B61     		str	r3, [r7, #16]
 550:Generated_Source\PSoC4/cyfitter_cfg.c **** 			CYMEMZERO(ms->address, (size_t)(uint32)(ms->size));
 386              		.loc 1 550 0 discriminator 3
 387 009a 3B69     		ldr	r3, [r7, #16]
 388 009c 1A78     		ldrb	r2, [r3]
 389 009e 5978     		ldrb	r1, [r3, #1]
 390 00a0 0902     		lsls	r1, r1, #8
 391 00a2 0A43     		orrs	r2, r1
 392 00a4 9978     		ldrb	r1, [r3, #2]
 393 00a6 0904     		lsls	r1, r1, #16
 394 00a8 0A43     		orrs	r2, r1
 395 00aa DB78     		ldrb	r3, [r3, #3]
 396 00ac 1B06     		lsls	r3, r3, #24
 397 00ae 1343     		orrs	r3, r2
 398 00b0 1800     		movs	r0, r3
 399 00b2 3B69     		ldr	r3, [r7, #16]
 400 00b4 1A79     		ldrb	r2, [r3, #4]
 401 00b6 5B79     		ldrb	r3, [r3, #5]
 402 00b8 1B02     		lsls	r3, r3, #8
 403 00ba 1343     		orrs	r3, r2
 404 00bc 9BB2     		uxth	r3, r3
 405 00be 1900     		movs	r1, r3
 406 00c0 FFF7FEFF 		bl	CYMEMZERO
 407              	.LBE4:
 547:Generated_Source\PSoC4/cyfitter_cfg.c **** 		{
 408              		.loc 1 547 0 discriminator 3
 409 00c4 1723     		movs	r3, #23
 410 00c6 FB18     		adds	r3, r7, r3
 411 00c8 1A78     		ldrb	r2, [r3]
 412 00ca 1723     		movs	r3, #23
 413 00cc FB18     		adds	r3, r7, r3
 414 00ce 0132     		adds	r2, r2, #1
 415 00d0 1A70     		strb	r2, [r3]
ARM GAS  C:\Users\sur\AppData\Local\Temp\ccgUkA5n.s 			page 18


 416              	.L14:
 547:Generated_Source\PSoC4/cyfitter_cfg.c **** 		{
 417              		.loc 1 547 0 is_stmt 0 discriminator 1
 418 00d2 1723     		movs	r3, #23
 419 00d4 FB18     		adds	r3, r7, r3
 420 00d6 1B78     		ldrb	r3, [r3]
 421 00d8 022B     		cmp	r3, #2
 422 00da D4D9     		bls	.L15
 551:Generated_Source\PSoC4/cyfitter_cfg.c **** 		}
 552:Generated_Source\PSoC4/cyfitter_cfg.c **** 
 553:Generated_Source\PSoC4/cyfitter_cfg.c **** 		/* Copy device configuration data into registers */
 554:Generated_Source\PSoC4/cyfitter_cfg.c **** 		for (i = 0u; i < (sizeof(cfg_memcpy_list)/sizeof(cfg_memcpy_list[0])); i++)
 423              		.loc 1 554 0 is_stmt 1
 424 00dc 1723     		movs	r3, #23
 425 00de FB18     		adds	r3, r7, r3
 426 00e0 0022     		movs	r2, #0
 427 00e2 1A70     		strb	r2, [r3]
 428 00e4 36E0     		b	.L16
 429              	.L17:
 430              	.LBB5:
 555:Generated_Source\PSoC4/cyfitter_cfg.c **** 		{
 556:Generated_Source\PSoC4/cyfitter_cfg.c **** 			const cfg_memcpy_t CYCODE * CYDATA mc = &cfg_memcpy_list[i];
 431              		.loc 1 556 0 discriminator 3
 432 00e6 1723     		movs	r3, #23
 433 00e8 FB18     		adds	r3, r7, r3
 434 00ea 1A78     		ldrb	r2, [r3]
 435 00ec 1300     		movs	r3, r2
 436 00ee 9B00     		lsls	r3, r3, #2
 437 00f0 9B18     		adds	r3, r3, r2
 438 00f2 5B00     		lsls	r3, r3, #1
 439 00f4 464A     		ldr	r2, .L18+4
 440 00f6 9B18     		adds	r3, r3, r2
 441 00f8 FB60     		str	r3, [r7, #12]
 557:Generated_Source\PSoC4/cyfitter_cfg.c **** 			void * CYDATA destPtr = mc->dest;
 442              		.loc 1 557 0 discriminator 3
 443 00fa FB68     		ldr	r3, [r7, #12]
 444 00fc 1A78     		ldrb	r2, [r3]
 445 00fe 5978     		ldrb	r1, [r3, #1]
 446 0100 0902     		lsls	r1, r1, #8
 447 0102 0A43     		orrs	r2, r1
 448 0104 9978     		ldrb	r1, [r3, #2]
 449 0106 0904     		lsls	r1, r1, #16
 450 0108 0A43     		orrs	r2, r1
 451 010a DB78     		ldrb	r3, [r3, #3]
 452 010c 1B06     		lsls	r3, r3, #24
 453 010e 1343     		orrs	r3, r2
 454 0110 BB60     		str	r3, [r7, #8]
 558:Generated_Source\PSoC4/cyfitter_cfg.c **** 			const void CYCODE * CYDATA srcPtr = mc->src;
 455              		.loc 1 558 0 discriminator 3
 456 0112 FB68     		ldr	r3, [r7, #12]
 457 0114 1A79     		ldrb	r2, [r3, #4]
 458 0116 5979     		ldrb	r1, [r3, #5]
 459 0118 0902     		lsls	r1, r1, #8
 460 011a 0A43     		orrs	r2, r1
 461 011c 9979     		ldrb	r1, [r3, #6]
 462 011e 0904     		lsls	r1, r1, #16
 463 0120 0A43     		orrs	r2, r1
ARM GAS  C:\Users\sur\AppData\Local\Temp\ccgUkA5n.s 			page 19


 464 0122 DB79     		ldrb	r3, [r3, #7]
 465 0124 1B06     		lsls	r3, r3, #24
 466 0126 1343     		orrs	r3, r2
 467 0128 7B60     		str	r3, [r7, #4]
 559:Generated_Source\PSoC4/cyfitter_cfg.c **** 			uint16 CYDATA numBytes = mc->size;
 468              		.loc 1 559 0 discriminator 3
 469 012a BA1C     		adds	r2, r7, #2
 470 012c FB68     		ldr	r3, [r7, #12]
 471 012e 197A     		ldrb	r1, [r3, #8]
 472 0130 5B7A     		ldrb	r3, [r3, #9]
 473 0132 1B02     		lsls	r3, r3, #8
 474 0134 0B43     		orrs	r3, r1
 475 0136 1380     		strh	r3, [r2]
 560:Generated_Source\PSoC4/cyfitter_cfg.c **** 			CYCONFIGCPYCODE(destPtr, srcPtr, numBytes);
 476              		.loc 1 560 0 discriminator 3
 477 0138 BB1C     		adds	r3, r7, #2
 478 013a 1A88     		ldrh	r2, [r3]
 479 013c 7968     		ldr	r1, [r7, #4]
 480 013e BB68     		ldr	r3, [r7, #8]
 481 0140 1800     		movs	r0, r3
 482 0142 FFF7FEFF 		bl	CYCONFIGCPYCODE
 483              	.LBE5:
 554:Generated_Source\PSoC4/cyfitter_cfg.c **** 		{
 484              		.loc 1 554 0 discriminator 3
 485 0146 1723     		movs	r3, #23
 486 0148 FB18     		adds	r3, r7, r3
 487 014a 1A78     		ldrb	r2, [r3]
 488 014c 1723     		movs	r3, #23
 489 014e FB18     		adds	r3, r7, r3
 490 0150 0132     		adds	r2, r2, #1
 491 0152 1A70     		strb	r2, [r3]
 492              	.L16:
 554:Generated_Source\PSoC4/cyfitter_cfg.c **** 		{
 493              		.loc 1 554 0 is_stmt 0 discriminator 1
 494 0154 1723     		movs	r3, #23
 495 0156 FB18     		adds	r3, r7, r3
 496 0158 1B78     		ldrb	r3, [r3]
 497 015a 002B     		cmp	r3, #0
 498 015c C3D0     		beq	.L17
 561:Generated_Source\PSoC4/cyfitter_cfg.c **** 		}
 562:Generated_Source\PSoC4/cyfitter_cfg.c **** 
 563:Generated_Source\PSoC4/cyfitter_cfg.c **** 		cfg_write_bytes32(cy_cfg_addr_table, cy_cfg_data_table);
 499              		.loc 1 563 0 is_stmt 1
 500 015e 2D4A     		ldr	r2, .L18+8
 501 0160 2D4B     		ldr	r3, .L18+12
 502 0162 1100     		movs	r1, r2
 503 0164 1800     		movs	r0, r3
 504 0166 FFF7FEFF 		bl	cfg_write_bytes32
 564:Generated_Source\PSoC4/cyfitter_cfg.c **** 
 565:Generated_Source\PSoC4/cyfitter_cfg.c **** 		/* HSIOM Starting address: CYDEV_HSIOM_BASE */
 566:Generated_Source\PSoC4/cyfitter_cfg.c **** 		CY_SET_REG32((void *)(CYDEV_HSIOM_BASE), 0x03000000u);
 505              		.loc 1 566 0
 506 016a 2C4B     		ldr	r3, .L18+16
 507 016c C022     		movs	r2, #192
 508 016e 9204     		lsls	r2, r2, #18
 509 0170 1A60     		str	r2, [r3]
 567:Generated_Source\PSoC4/cyfitter_cfg.c **** 		CY_SET_REG32((void *)(CYREG_HSIOM_PORT_SEL3), 0x0303EE00u);
ARM GAS  C:\Users\sur\AppData\Local\Temp\ccgUkA5n.s 			page 20


 510              		.loc 1 567 0
 511 0172 2B4B     		ldr	r3, .L18+20
 512 0174 2B4A     		ldr	r2, .L18+24
 513 0176 1A60     		str	r2, [r3]
 568:Generated_Source\PSoC4/cyfitter_cfg.c **** 
 569:Generated_Source\PSoC4/cyfitter_cfg.c **** 		/* UDB_PA_0 Starting address: CYDEV_UDB_PA0_BASE */
 570:Generated_Source\PSoC4/cyfitter_cfg.c **** 		CY_SET_REG32((void *)(CYDEV_UDB_PA0_BASE), 0x00990000u);
 514              		.loc 1 570 0
 515 0178 2B4B     		ldr	r3, .L18+28
 516 017a 9922     		movs	r2, #153
 517 017c 1204     		lsls	r2, r2, #16
 518 017e 1A60     		str	r2, [r3]
 571:Generated_Source\PSoC4/cyfitter_cfg.c **** 		CY_SET_REG32((void *)(CYREG_UDB_PA0_CFG8), 0x20000000u);
 519              		.loc 1 571 0
 520 0180 2A4B     		ldr	r3, .L18+32
 521 0182 8022     		movs	r2, #128
 522 0184 9205     		lsls	r2, r2, #22
 523 0186 1A60     		str	r2, [r3]
 572:Generated_Source\PSoC4/cyfitter_cfg.c **** 
 573:Generated_Source\PSoC4/cyfitter_cfg.c **** 		/* UDB_PA_1 Starting address: CYDEV_UDB_PA1_BASE */
 574:Generated_Source\PSoC4/cyfitter_cfg.c **** 		CY_SET_REG32((void *)(CYDEV_UDB_PA1_BASE), 0x00990000u);
 524              		.loc 1 574 0
 525 0188 294B     		ldr	r3, .L18+36
 526 018a 9922     		movs	r2, #153
 527 018c 1204     		lsls	r2, r2, #16
 528 018e 1A60     		str	r2, [r3]
 575:Generated_Source\PSoC4/cyfitter_cfg.c **** 
 576:Generated_Source\PSoC4/cyfitter_cfg.c **** 		/* UDB_PA_2 Starting address: CYDEV_UDB_PA2_BASE */
 577:Generated_Source\PSoC4/cyfitter_cfg.c **** 		CY_SET_REG32((void *)(CYDEV_UDB_PA2_BASE), 0x00990000u);
 529              		.loc 1 577 0
 530 0190 284B     		ldr	r3, .L18+40
 531 0192 9922     		movs	r2, #153
 532 0194 1204     		lsls	r2, r2, #16
 533 0196 1A60     		str	r2, [r3]
 578:Generated_Source\PSoC4/cyfitter_cfg.c **** 
 579:Generated_Source\PSoC4/cyfitter_cfg.c **** 		/* UDB_PA_3 Starting address: CYDEV_UDB_PA3_BASE */
 580:Generated_Source\PSoC4/cyfitter_cfg.c **** 		CY_SET_REG32((void *)(CYDEV_UDB_PA3_BASE), 0x00990000u);
 534              		.loc 1 580 0
 535 0198 274B     		ldr	r3, .L18+44
 536 019a 9922     		movs	r2, #153
 537 019c 1204     		lsls	r2, r2, #16
 538 019e 1A60     		str	r2, [r3]
 581:Generated_Source\PSoC4/cyfitter_cfg.c **** 		CY_SET_REG32((void *)(CYREG_UDB_PA3_CFG8), 0x98000000u);
 539              		.loc 1 581 0
 540 01a0 264B     		ldr	r3, .L18+48
 541 01a2 9822     		movs	r2, #152
 542 01a4 1206     		lsls	r2, r2, #24
 543 01a6 1A60     		str	r2, [r3]
 582:Generated_Source\PSoC4/cyfitter_cfg.c **** 
 583:Generated_Source\PSoC4/cyfitter_cfg.c **** 		/* Enable UDB array and digital routing */
 584:Generated_Source\PSoC4/cyfitter_cfg.c **** 		CY_SET_XTND_REG8((void *)CYREG_UDB_UDBIF_WAIT_CFG, (uint8)((CY_GET_XTND_REG8((void *)CYREG_UDB_UD
 544              		.loc 1 584 0
 545 01a8 254A     		ldr	r2, .L18+52
 546 01aa 254B     		ldr	r3, .L18+52
 547 01ac 1B78     		ldrb	r3, [r3]
 548 01ae DBB2     		uxtb	r3, r3
 549 01b0 3C21     		movs	r1, #60
ARM GAS  C:\Users\sur\AppData\Local\Temp\ccgUkA5n.s 			page 21


 550 01b2 8B43     		bics	r3, r1
 551 01b4 DBB2     		uxtb	r3, r3
 552 01b6 1421     		movs	r1, #20
 553 01b8 0B43     		orrs	r3, r1
 554 01ba DBB2     		uxtb	r3, r3
 555 01bc 1370     		strb	r3, [r2]
 585:Generated_Source\PSoC4/cyfitter_cfg.c **** 		CY_SET_XTND_REG8((void *)CYREG_UDB_UDBIF_BANK_CTL, (uint8)(CY_GET_XTND_REG8((void *)CYREG_UDB_UDB
 556              		.loc 1 585 0
 557 01be 214A     		ldr	r2, .L18+56
 558 01c0 204B     		ldr	r3, .L18+56
 559 01c2 1B78     		ldrb	r3, [r3]
 560 01c4 DBB2     		uxtb	r3, r3
 561 01c6 1621     		movs	r1, #22
 562 01c8 0B43     		orrs	r3, r1
 563 01ca DBB2     		uxtb	r3, r3
 564 01cc 1370     		strb	r3, [r2]
 565              	.LBE3:
 586:Generated_Source\PSoC4/cyfitter_cfg.c **** 	}
 587:Generated_Source\PSoC4/cyfitter_cfg.c **** 
 588:Generated_Source\PSoC4/cyfitter_cfg.c **** 	/* Perform second pass device configuration. These items must be configured in specific order afte
 589:Generated_Source\PSoC4/cyfitter_cfg.c **** 	/* IOPINS0_0 Starting address: CYDEV_PRT0_BASE */
 590:Generated_Source\PSoC4/cyfitter_cfg.c **** 	CY_SET_REG32((void *)(CYDEV_PRT0_BASE), 0x000000C3u);
 566              		.loc 1 590 0
 567 01ce 1E4B     		ldr	r3, .L18+60
 568 01d0 C322     		movs	r2, #195
 569 01d2 1A60     		str	r2, [r3]
 591:Generated_Source\PSoC4/cyfitter_cfg.c **** 	CY_SET_REG32((void *)(CYREG_PRT0_PC), 0x00580D92u);
 570              		.loc 1 591 0
 571 01d4 1D4B     		ldr	r3, .L18+64
 572 01d6 1E4A     		ldr	r2, .L18+68
 573 01d8 1A60     		str	r2, [r3]
 592:Generated_Source\PSoC4/cyfitter_cfg.c **** 
 593:Generated_Source\PSoC4/cyfitter_cfg.c **** 	/* IOPINS0_1 Starting address: CYDEV_PRT1_BASE */
 594:Generated_Source\PSoC4/cyfitter_cfg.c **** 	CY_SET_REG32((void *)(CYREG_PRT1_PC), 0x00180000u);
 574              		.loc 1 594 0
 575 01da 1E4B     		ldr	r3, .L18+72
 576 01dc C022     		movs	r2, #192
 577 01de 5203     		lsls	r2, r2, #13
 578 01e0 1A60     		str	r2, [r3]
 595:Generated_Source\PSoC4/cyfitter_cfg.c **** 
 596:Generated_Source\PSoC4/cyfitter_cfg.c **** 	/* IOPINS0_2 Starting address: CYDEV_PRT2_BASE */
 597:Generated_Source\PSoC4/cyfitter_cfg.c **** 	CY_SET_REG32((void *)(CYDEV_PRT2_BASE), 0x00000040u);
 579              		.loc 1 597 0
 580 01e2 1D4B     		ldr	r3, .L18+76
 581 01e4 4022     		movs	r2, #64
 582 01e6 1A60     		str	r2, [r3]
 598:Generated_Source\PSoC4/cyfitter_cfg.c **** 	CY_SET_REG32((void *)(CYREG_PRT2_PC), 0x00080000u);
 583              		.loc 1 598 0
 584 01e8 1C4B     		ldr	r3, .L18+80
 585 01ea 8022     		movs	r2, #128
 586 01ec 1203     		lsls	r2, r2, #12
 587 01ee 1A60     		str	r2, [r3]
 599:Generated_Source\PSoC4/cyfitter_cfg.c **** 
 600:Generated_Source\PSoC4/cyfitter_cfg.c **** 	/* IOPINS0_3 Starting address: CYDEV_PRT3_BASE */
 601:Generated_Source\PSoC4/cyfitter_cfg.c **** 	CY_SET_REG32((void *)(CYDEV_PRT3_BASE), 0x000000F0u);
 588              		.loc 1 601 0
 589 01f0 1B4B     		ldr	r3, .L18+84
ARM GAS  C:\Users\sur\AppData\Local\Temp\ccgUkA5n.s 			page 22


 590 01f2 F022     		movs	r2, #240
 591 01f4 1A60     		str	r2, [r3]
 602:Generated_Source\PSoC4/cyfitter_cfg.c **** 	CY_SET_REG32((void *)(CYREG_PRT3_PC), 0x00596DB6u);
 592              		.loc 1 602 0
 593 01f6 1B4B     		ldr	r3, .L18+88
 594 01f8 1B4A     		ldr	r2, .L18+92
 595 01fa 1A60     		str	r2, [r3]
 603:Generated_Source\PSoC4/cyfitter_cfg.c **** 
 604:Generated_Source\PSoC4/cyfitter_cfg.c **** 
 605:Generated_Source\PSoC4/cyfitter_cfg.c **** 	/* Setup clocks based on selections from Clock DWR */
 606:Generated_Source\PSoC4/cyfitter_cfg.c **** 	ClockSetup();
 596              		.loc 1 606 0
 597 01fc FFF700FF 		bl	ClockSetup
 607:Generated_Source\PSoC4/cyfitter_cfg.c **** 
 608:Generated_Source\PSoC4/cyfitter_cfg.c **** 	/* Perform basic analog initialization to defaults */
 609:Generated_Source\PSoC4/cyfitter_cfg.c **** 	AnalogSetDefault();
 598              		.loc 1 609 0
 599 0200 FFF7FEFF 		bl	AnalogSetDefault
 610:Generated_Source\PSoC4/cyfitter_cfg.c **** 
 611:Generated_Source\PSoC4/cyfitter_cfg.c **** }
 600              		.loc 1 611 0
 601 0204 C046     		nop
 602 0206 BD46     		mov	sp, r7
 603 0208 06B0     		add	sp, sp, #24
 604              		@ sp needed
 605 020a 80BD     		pop	{r7, pc}
 606              	.L19:
 607              		.align	2
 608              	.L18:
 609 020c 00000000 		.word	cfg_memset_list.4875
 610 0210 14000000 		.word	cfg_memcpy_list.4877
 611 0214 44000000 		.word	cy_cfg_data_table.4865
 612 0218 20000000 		.word	cy_cfg_addr_table.4864
 613 021c 00000140 		.word	1073807360
 614 0220 0C000140 		.word	1073807372
 615 0224 00EE0303 		.word	50589184
 616 0228 00500F40 		.word	1074745344
 617 022c 08500F40 		.word	1074745352
 618 0230 10500F40 		.word	1074745360
 619 0234 20500F40 		.word	1074745376
 620 0238 30500F40 		.word	1074745392
 621 023c 38500F40 		.word	1074745400
 622 0240 01700F40 		.word	1074753537
 623 0244 00700F40 		.word	1074753536
 624 0248 00000440 		.word	1074003968
 625 024c 08000440 		.word	1074003976
 626 0250 920D5800 		.word	5770642
 627 0254 08010440 		.word	1074004232
 628 0258 00020440 		.word	1074004480
 629 025c 08020440 		.word	1074004488
 630 0260 00030440 		.word	1074004736
 631 0264 08030440 		.word	1074004744
 632 0268 B66D5900 		.word	5860790
 633              		.cfi_endproc
 634              	.LFE6:
 635              		.size	cyfitter_cfg, .-cyfitter_cfg
 636              		.section	.rodata
ARM GAS  C:\Users\sur\AppData\Local\Temp\ccgUkA5n.s 			page 23


 637              		.align	2
 638              		.type	cfg_memset_list.4875, %object
 639              		.size	cfg_memset_list.4875, 18
 640              	cfg_memset_list.4875:
 641 0000 00300F40 		.word	1074737152
 642 0004 0002     		.short	512
 643 0006 80320F40 		.4byte	1074737792
 644 000a 8001     		.short	384
 645 000c 00400F40 		.word	1074741248
 646 0010 0004     		.short	1024
 647 0012 0000     		.align	2
 648              		.type	cfg_memcpy_list.4877, %object
 649              		.size	cfg_memcpy_list.4877, 10
 650              	cfg_memcpy_list.4877:
 651 0014 00320F40 		.word	1074737664
 652 0018 D8010000 		.word	BS_UDB_0_0_1_CONFIG_VAL.4876
 653 001c 8000     		.short	128
 654 001e 0000     		.align	2
 655              		.type	cy_cfg_addr_table.4864, %object
 656              		.size	cy_cfg_addr_table.4864, 36
 657              	cy_cfg_addr_table.4864:
 658 0020 01000F40 		.word	1074724865
 659 0024 3F300F40 		.word	1074737215
 660 0028 28310F40 		.word	1074737448
 661 002c 20320F40 		.word	1074737696
 662 0030 36330F40 		.word	1074737974
 663 0034 03400F40 		.word	1074741251
 664 0038 01420F40 		.word	1074741761
 665 003c 06430F40 		.word	1074742022
 666 0040 02600F40 		.word	1074749442
 667              		.align	2
 668              		.type	cy_cfg_data_table.4865, %object
 669              		.size	cy_cfg_data_table.4865, 404
 670              	cy_cfg_data_table.4865:
 671 0044 81       		.byte	-127
 672 0045 11       		.byte	17
 673 0046 04       		.byte	4
 674 0047 05       		.byte	5
 675 0048 06       		.byte	6
 676 0049 0A       		.byte	10
 677 004a 0C       		.byte	12
 678 004b 0E       		.byte	14
 679 004c 1C       		.byte	28
 680 004d 03       		.byte	3
 681 004e 1E       		.byte	30
 682 004f 04       		.byte	4
 683 0050 28       		.byte	40
 684 0051 04       		.byte	4
 685 0052 2A       		.byte	42
 686 0053 09       		.byte	9
 687 0054 36       		.byte	54
 688 0055 0F       		.byte	15
 689 0056 38       		.byte	56
 690 0057 80       		.byte	-128
 691 0058 54       		.byte	84
 692 0059 40       		.byte	64
 693 005a 58       		.byte	88
ARM GAS  C:\Users\sur\AppData\Local\Temp\ccgUkA5n.s 			page 24


 694 005b 04       		.byte	4
 695 005c 5B       		.byte	91
 696 005d 04       		.byte	4
 697 005e 5F       		.byte	95
 698 005f 01       		.byte	1
 699 0060 81       		.byte	-127
 700 0061 07       		.byte	7
 701 0062 82       		.byte	-126
 702 0063 01       		.byte	1
 703 0064 83       		.byte	-125
 704 0065 38       		.byte	56
 705 0066 84       		.byte	-124
 706 0067 2E       		.byte	46
 707 0068 85       		.byte	-123
 708 0069 04       		.byte	4
 709 006a 86       		.byte	-122
 710 006b 80       		.byte	-128
 711 006c 88       		.byte	-120
 712 006d 22       		.byte	34
 713 006e 89       		.byte	-119
 714 006f 80       		.byte	-128
 715 0070 8A       		.byte	-118
 716 0071 4C       		.byte	76
 717 0072 8B       		.byte	-117
 718 0073 04       		.byte	4
 719 0074 8C       		.byte	-116
 720 0075 20       		.byte	32
 721 0076 8D       		.byte	-115
 722 0077 04       		.byte	4
 723 0078 8E       		.byte	-114
 724 0079 D0       		.byte	-48
 725 007a 8F       		.byte	-113
 726 007b 80       		.byte	-128
 727 007c 90       		.byte	-112
 728 007d D8       		.byte	-40
 729 007e 91       		.byte	-111
 730 007f 84       		.byte	-124
 731 0080 92       		.byte	-110
 732 0081 01       		.byte	1
 733 0082 94       		.byte	-108
 734 0083 D1       		.byte	-47
 735 0084 95       		.byte	-107
 736 0085 84       		.byte	-124
 737 0086 96       		.byte	-106
 738 0087 08       		.byte	8
 739 0088 98       		.byte	-104
 740 0089 02       		.byte	2
 741 008a 99       		.byte	-103
 742 008b 56       		.byte	86
 743 008c 9A       		.byte	-102
 744 008d 0C       		.byte	12
 745 008e 9B       		.byte	-101
 746 008f 09       		.byte	9
 747 0090 9C       		.byte	-100
 748 0091 10       		.byte	16
 749 0092 9D       		.byte	-99
 750 0093 01       		.byte	1
ARM GAS  C:\Users\sur\AppData\Local\Temp\ccgUkA5n.s 			page 25


 751 0094 9E       		.byte	-98
 752 0095 26       		.byte	38
 753 0096 A0       		.byte	-96
 754 0097 D9       		.byte	-39
 755 0098 A1       		.byte	-95
 756 0099 84       		.byte	-124
 757 009a A5       		.byte	-91
 758 009b 0A       		.byte	10
 759 009c A7       		.byte	-89
 760 009d 10       		.byte	16
 761 009e A8       		.byte	-88
 762 009f D9       		.byte	-39
 763 00a0 AC       		.byte	-84
 764 00a1 D9       		.byte	-39
 765 00a2 AD       		.byte	-83
 766 00a3 60       		.byte	96
 767 00a4 B1       		.byte	-79
 768 00a5 7F       		.byte	127
 769 00a6 B2       		.byte	-78
 770 00a7 01       		.byte	1
 771 00a8 B3       		.byte	-77
 772 00a9 80       		.byte	-128
 773 00aa B4       		.byte	-76
 774 00ab 0E       		.byte	14
 775 00ac B6       		.byte	-74
 776 00ad F0       		.byte	-16
 777 00ae B7       		.byte	-73
 778 00af 80       		.byte	-128
 779 00b0 B9       		.byte	-71
 780 00b1 02       		.byte	2
 781 00b2 BA       		.byte	-70
 782 00b3 A0       		.byte	-96
 783 00b4 BE       		.byte	-66
 784 00b5 04       		.byte	4
 785 00b6 BF       		.byte	-65
 786 00b7 44       		.byte	68
 787 00b8 D6       		.byte	-42
 788 00b9 02       		.byte	2
 789 00ba D7       		.byte	-41
 790 00bb 24       		.byte	36
 791 00bc D8       		.byte	-40
 792 00bd 04       		.byte	4
 793 00be D9       		.byte	-39
 794 00bf 04       		.byte	4
 795 00c0 DB       		.byte	-37
 796 00c1 04       		.byte	4
 797 00c2 DF       		.byte	-33
 798 00c3 01       		.byte	1
 799 00c4 01       		.byte	1
 800 00c5 80       		.byte	-128
 801 00c6 03       		.byte	3
 802 00c7 20       		.byte	32
 803 00c8 05       		.byte	5
 804 00c9 50       		.byte	80
 805 00ca 06       		.byte	6
 806 00cb C0       		.byte	-64
 807 00cc 07       		.byte	7
ARM GAS  C:\Users\sur\AppData\Local\Temp\ccgUkA5n.s 			page 26


 808 00cd 20       		.byte	32
 809 00ce 0A       		.byte	10
 810 00cf 01       		.byte	1
 811 00d0 0E       		.byte	14
 812 00d1 55       		.byte	85
 813 00d2 13       		.byte	19
 814 00d3 20       		.byte	32
 815 00d4 15       		.byte	21
 816 00d5 01       		.byte	1
 817 00d6 16       		.byte	22
 818 00d7 02       		.byte	2
 819 00d8 17       		.byte	23
 820 00d9 10       		.byte	16
 821 00da 19       		.byte	25
 822 00db 80       		.byte	-128
 823 00dc 1C       		.byte	28
 824 00dd 10       		.byte	16
 825 00de 1D       		.byte	29
 826 00df 40       		.byte	64
 827 00e0 1E       		.byte	30
 828 00e1 04       		.byte	4
 829 00e2 26       		.byte	38
 830 00e3 08       		.byte	8
 831 00e4 27       		.byte	39
 832 00e5 82       		.byte	-126
 833 00e6 2E       		.byte	46
 834 00e7 02       		.byte	2
 835 00e8 2F       		.byte	47
 836 00e9 21       		.byte	33
 837 00ea 36       		.byte	54
 838 00eb 05       		.byte	5
 839 00ec 37       		.byte	55
 840 00ed A0       		.byte	-96
 841 00ee 3E       		.byte	62
 842 00ef 55       		.byte	85
 843 00f0 60       		.byte	96
 844 00f1 10       		.byte	16
 845 00f2 62       		.byte	98
 846 00f3 50       		.byte	80
 847 00f4 67       		.byte	103
 848 00f5 08       		.byte	8
 849 00f6 6D       		.byte	109
 850 00f7 01       		.byte	1
 851 00f8 6E       		.byte	110
 852 00f9 5A       		.byte	90
 853 00fa 6F       		.byte	111
 854 00fb 51       		.byte	81
 855 00fc 76       		.byte	118
 856 00fd 02       		.byte	2
 857 00fe 87       		.byte	-121
 858 00ff 80       		.byte	-128
 859 0100 89       		.byte	-119
 860 0101 80       		.byte	-128
 861 0102 C0       		.byte	-64
 862 0103 F5       		.byte	-11
 863 0104 C2       		.byte	-62
 864 0105 F1       		.byte	-15
ARM GAS  C:\Users\sur\AppData\Local\Temp\ccgUkA5n.s 			page 27


 865 0106 C4       		.byte	-60
 866 0107 D2       		.byte	-46
 867 0108 CA       		.byte	-54
 868 0109 D0       		.byte	-48
 869 010a CC       		.byte	-52
 870 010b F0       		.byte	-16
 871 010c CE       		.byte	-50
 872 010d F0       		.byte	-16
 873 010e D8       		.byte	-40
 874 010f 2E       		.byte	46
 875 0110 E0       		.byte	-32
 876 0111 02       		.byte	2
 877 0112 E6       		.byte	-26
 878 0113 80       		.byte	-128
 879 0114 86       		.byte	-122
 880 0115 02       		.byte	2
 881 0116 96       		.byte	-106
 882 0117 03       		.byte	3
 883 0118 9A       		.byte	-102
 884 0119 03       		.byte	3
 885 011a 9C       		.byte	-100
 886 011b 01       		.byte	1
 887 011c B4       		.byte	-76
 888 011d 03       		.byte	3
 889 011e C0       		.byte	-64
 890 011f 23       		.byte	35
 891 0120 C1       		.byte	-63
 892 0121 01       		.byte	1
 893 0122 C2       		.byte	-62
 894 0123 60       		.byte	96
 895 0124 C7       		.byte	-57
 896 0125 B0       		.byte	-80
 897 0126 C8       		.byte	-56
 898 0127 20       		.byte	32
 899 0128 C9       		.byte	-55
 900 0129 01       		.byte	1
 901 012a CA       		.byte	-54
 902 012b FF       		.byte	-1
 903 012c CB       		.byte	-53
 904 012d FF       		.byte	-1
 905 012e CC       		.byte	-52
 906 012f 23       		.byte	35
 907 0130 CE       		.byte	-50
 908 0131 80       		.byte	-128
 909 0132 CF       		.byte	-49
 910 0133 08       		.byte	8
 911 0134 D0       		.byte	-48
 912 0135 04       		.byte	4
 913 0136 D8       		.byte	-40
 914 0137 04       		.byte	4
 915 0138 DA       		.byte	-38
 916 0139 04       		.byte	4
 917 013a DF       		.byte	-33
 918 013b 01       		.byte	1
 919 013c E2       		.byte	-30
 920 013d C0       		.byte	-64
 921 013e E4       		.byte	-28
ARM GAS  C:\Users\sur\AppData\Local\Temp\ccgUkA5n.s 			page 28


 922 013f 40       		.byte	64
 923 0140 E5       		.byte	-27
 924 0141 01       		.byte	1
 925 0142 E6       		.byte	-26
 926 0143 10       		.byte	16
 927 0144 E7       		.byte	-25
 928 0145 11       		.byte	17
 929 0146 E8       		.byte	-24
 930 0147 C0       		.byte	-64
 931 0148 E9       		.byte	-23
 932 0149 01       		.byte	1
 933 014a EB       		.byte	-21
 934 014b 11       		.byte	17
 935 014c EC       		.byte	-20
 936 014d 40       		.byte	64
 937 014e ED       		.byte	-19
 938 014f 01       		.byte	1
 939 0150 EE       		.byte	-18
 940 0151 40       		.byte	64
 941 0152 EF       		.byte	-17
 942 0153 01       		.byte	1
 943 0154 00       		.byte	0
 944 0155 04       		.byte	4
 945 0156 05       		.byte	5
 946 0157 12       		.byte	18
 947 0158 06       		.byte	6
 948 0159 02       		.byte	2
 949 015a 07       		.byte	7
 950 015b 20       		.byte	32
 951 015c 09       		.byte	9
 952 015d A8       		.byte	-88
 953 015e 0E       		.byte	14
 954 015f 16       		.byte	22
 955 0160 17       		.byte	23
 956 0161 51       		.byte	81
 957 0162 18       		.byte	24
 958 0163 04       		.byte	4
 959 0164 1D       		.byte	29
 960 0165 B0       		.byte	-80
 961 0166 1E       		.byte	30
 962 0167 43       		.byte	67
 963 0168 1F       		.byte	31
 964 0169 20       		.byte	32
 965 016a 24       		.byte	36
 966 016b 08       		.byte	8
 967 016c 25       		.byte	37
 968 016d 48       		.byte	72
 969 016e 27       		.byte	39
 970 016f 28       		.byte	40
 971 0170 2F       		.byte	47
 972 0171 20       		.byte	32
 973 0172 35       		.byte	53
 974 0173 02       		.byte	2
 975 0174 37       		.byte	55
 976 0175 28       		.byte	40
 977 0176 38       		.byte	56
 978 0177 08       		.byte	8
ARM GAS  C:\Users\sur\AppData\Local\Temp\ccgUkA5n.s 			page 29


 979 0178 3B       		.byte	59
 980 0179 08       		.byte	8
 981 017a 3E       		.byte	62
 982 017b 01       		.byte	1
 983 017c 41       		.byte	65
 984 017d A8       		.byte	-88
 985 017e 45       		.byte	69
 986 017f A8       		.byte	-88
 987 0180 4A       		.byte	74
 988 0181 08       		.byte	8
 989 0182 4D       		.byte	77
 990 0183 0A       		.byte	10
 991 0184 4E       		.byte	78
 992 0185 08       		.byte	8
 993 0186 53       		.byte	83
 994 0187 01       		.byte	1
 995 0188 56       		.byte	86
 996 0189 90       		.byte	-112
 997 018a 5D       		.byte	93
 998 018b 18       		.byte	24
 999 018c 5E       		.byte	94
 1000 018d 40       		.byte	64
 1001 018e 5F       		.byte	95
 1002 018f 02       		.byte	2
 1003 0190 64       		.byte	100
 1004 0191 01       		.byte	1
 1005 0192 88       		.byte	-120
 1006 0193 01       		.byte	1
 1007 0194 89       		.byte	-119
 1008 0195 52       		.byte	82
 1009 0196 8C       		.byte	-116
 1010 0197 04       		.byte	4
 1011 0198 92       		.byte	-110
 1012 0199 14       		.byte	20
 1013 019a 96       		.byte	-106
 1014 019b 01       		.byte	1
 1015 019c 97       		.byte	-105
 1016 019d 0A       		.byte	10
 1017 019e 9A       		.byte	-102
 1018 019f 02       		.byte	2
 1019 01a0 9B       		.byte	-101
 1020 01a1 53       		.byte	83
 1021 01a2 9D       		.byte	-99
 1022 01a3 10       		.byte	16
 1023 01a4 9E       		.byte	-98
 1024 01a5 90       		.byte	-112
 1025 01a6 9F       		.byte	-97
 1026 01a7 20       		.byte	32
 1027 01a8 A2       		.byte	-94
 1028 01a9 08       		.byte	8
 1029 01aa A7       		.byte	-89
 1030 01ab 20       		.byte	32
 1031 01ac C0       		.byte	-64
 1032 01ad F4       		.byte	-12
 1033 01ae C2       		.byte	-62
 1034 01af E7       		.byte	-25
 1035 01b0 C4       		.byte	-60
ARM GAS  C:\Users\sur\AppData\Local\Temp\ccgUkA5n.s 			page 30


 1036 01b1 D0       		.byte	-48
 1037 01b2 CA       		.byte	-54
 1038 01b3 40       		.byte	64
 1039 01b4 CC       		.byte	-52
 1040 01b5 E0       		.byte	-32
 1041 01b6 CE       		.byte	-50
 1042 01b7 80       		.byte	-128
 1043 01b8 D0       		.byte	-48
 1044 01b9 7E       		.byte	126
 1045 01ba D2       		.byte	-46
 1046 01bb 24       		.byte	36
 1047 01bc D6       		.byte	-42
 1048 01bd F0       		.byte	-16
 1049 01be D8       		.byte	-40
 1050 01bf 10       		.byte	16
 1051 01c0 61       		.byte	97
 1052 01c1 20       		.byte	32
 1053 01c2 89       		.byte	-119
 1054 01c3 20       		.byte	32
 1055 01c4 D8       		.byte	-40
 1056 01c5 40       		.byte	64
 1057 01c6 87       		.byte	-121
 1058 01c7 01       		.byte	1
 1059 01c8 5B       		.byte	91
 1060 01c9 01       		.byte	1
 1061 01ca 5F       		.byte	95
 1062 01cb 08       		.byte	8
 1063 01cc 8F       		.byte	-113
 1064 01cd 08       		.byte	8
 1065 01ce 9B       		.byte	-101
 1066 01cf 01       		.byte	1
 1067 01d0 D6       		.byte	-42
 1068 01d1 03       		.byte	3
 1069 01d2 E4       		.byte	-28
 1070 01d3 02       		.byte	2
 1071 01d4 01       		.byte	1
 1072 01d5 01       		.byte	1
 1073 01d6 10       		.byte	16
 1074 01d7 01       		.byte	1
 1075              		.align	2
 1076              		.type	BS_UDB_0_0_1_CONFIG_VAL.4876, %object
 1077              		.size	BS_UDB_0_0_1_CONFIG_VAL.4876, 128
 1078              	BS_UDB_0_0_1_CONFIG_VAL.4876:
 1079 01d8 02       		.byte	2
 1080 01d9 99       		.byte	-103
 1081 01da 00       		.byte	0
 1082 01db 62       		.byte	98
 1083 01dc 1C       		.byte	28
 1084 01dd 00       		.byte	0
 1085 01de 23       		.byte	35
 1086 01df 00       		.byte	0
 1087 01e0 21       		.byte	33
 1088 01e1 00       		.byte	0
 1089 01e2 18       		.byte	24
 1090 01e3 00       		.byte	0
 1091 01e4 1A       		.byte	26
 1092 01e5 00       		.byte	0
ARM GAS  C:\Users\sur\AppData\Local\Temp\ccgUkA5n.s 			page 31


 1093 01e6 00       		.byte	0
 1094 01e7 00       		.byte	0
 1095 01e8 00       		.byte	0
 1096 01e9 04       		.byte	4
 1097 01ea 00       		.byte	0
 1098 01eb 00       		.byte	0
 1099 01ec 02       		.byte	2
 1100 01ed 10       		.byte	16
 1101 01ee 18       		.byte	24
 1102 01ef 68       		.byte	104
 1103 01f0 18       		.byte	24
 1104 01f1 CC       		.byte	-52
 1105 01f2 00       		.byte	0
 1106 01f3 30       		.byte	48
 1107 01f4 13       		.byte	19
 1108 01f5 00       		.byte	0
 1109 01f6 24       		.byte	36
 1110 01f7 00       		.byte	0
 1111 01f8 18       		.byte	24
 1112 01f9 00       		.byte	0
 1113 01fa 02       		.byte	2
 1114 01fb 00       		.byte	0
 1115 01fc 00       		.byte	0
 1116 01fd AE       		.byte	-82
 1117 01fe 00       		.byte	0
 1118 01ff 51       		.byte	81
 1119 0200 18       		.byte	24
 1120 0201 00       		.byte	0
 1121 0202 02       		.byte	2
 1122 0203 00       		.byte	0
 1123 0204 1A       		.byte	26
 1124 0205 00       		.byte	0
 1125 0206 00       		.byte	0
 1126 0207 00       		.byte	0
 1127 0208 20       		.byte	32
 1128 0209 00       		.byte	0
 1129 020a 00       		.byte	0
 1130 020b 07       		.byte	7
 1131 020c 0F       		.byte	15
 1132 020d 78       		.byte	120
 1133 020e 13       		.byte	19
 1134 020f 80       		.byte	-128
 1135 0210 00       		.byte	0
 1136 0211 00       		.byte	0
 1137 0212 20       		.byte	32
 1138 0213 28       		.byte	40
 1139 0214 00       		.byte	0
 1140 0215 00       		.byte	0
 1141 0216 01       		.byte	1
 1142 0217 40       		.byte	64
 1143 0218 23       		.byte	35
 1144 0219 01       		.byte	1
 1145 021a 60       		.byte	96
 1146 021b 00       		.byte	0
 1147 021c 00       		.byte	0
 1148 021d CE       		.byte	-50
 1149 021e FD       		.byte	-3
ARM GAS  C:\Users\sur\AppData\Local\Temp\ccgUkA5n.s 			page 32


 1150 021f 00       		.byte	0
 1151 0220 0F       		.byte	15
 1152 0221 FF       		.byte	-1
 1153 0222 FF       		.byte	-1
 1154 0223 FF       		.byte	-1
 1155 0224 02       		.byte	2
 1156 0225 00       		.byte	0
 1157 0226 70       		.byte	112
 1158 0227 08       		.byte	8
 1159 0228 04       		.byte	4
 1160 0229 00       		.byte	0
 1161 022a 00       		.byte	0
 1162 022b 00       		.byte	0
 1163 022c 09       		.byte	9
 1164 022d 00       		.byte	0
 1165 022e 00       		.byte	0
 1166 022f 00       		.byte	0
 1167 0230 04       		.byte	4
 1168 0231 04       		.byte	4
 1169 0232 04       		.byte	4
 1170 0233 04       		.byte	4
 1171 0234 00       		.byte	0
 1172 0235 00       		.byte	0
 1173 0236 00       		.byte	0
 1174 0237 01       		.byte	1
 1175 0238 00       		.byte	0
 1176 0239 00       		.byte	0
 1177 023a C0       		.byte	-64
 1178 023b 00       		.byte	0
 1179 023c 40       		.byte	64
 1180 023d 01       		.byte	1
 1181 023e 10       		.byte	16
 1182 023f 11       		.byte	17
 1183 0240 C0       		.byte	-64
 1184 0241 01       		.byte	1
 1185 0242 00       		.byte	0
 1186 0243 11       		.byte	17
 1187 0244 40       		.byte	64
 1188 0245 01       		.byte	1
 1189 0246 40       		.byte	64
 1190 0247 01       		.byte	1
 1191 0248 00       		.byte	0
 1192 0249 00       		.byte	0
 1193 024a 00       		.byte	0
 1194 024b 00       		.byte	0
 1195 024c 00       		.byte	0
 1196 024d 00       		.byte	0
 1197 024e 00       		.byte	0
 1198 024f 00       		.byte	0
 1199 0250 00       		.byte	0
 1200 0251 00       		.byte	0
 1201 0252 00       		.byte	0
 1202 0253 00       		.byte	0
 1203 0254 00       		.byte	0
 1204 0255 00       		.byte	0
 1205 0256 00       		.byte	0
 1206 0257 00       		.byte	0
ARM GAS  C:\Users\sur\AppData\Local\Temp\ccgUkA5n.s 			page 33


 1207              		.text
 1208              	.Letext0:
 1209              		.file 2 "c:\\program files (x86)\\cypress\\psoc creator\\4.2\\psoc creator\\import\\gnu\\arm\\5.4.
 1210              		.file 3 "Generated_Source\\PSoC4\\cytypes.h"