ARM GAS  C:\Users\sur\AppData\Local\Temp\cc3696dX.s 			page 1


   1              		.syntax unified
   2              		.cpu cortex-m0
   3              		.fpu softvfp
   4              		.eabi_attribute 20, 1
   5              		.eabi_attribute 21, 1
   6              		.eabi_attribute 23, 3
   7              		.eabi_attribute 24, 1
   8              		.eabi_attribute 25, 1
   9              		.eabi_attribute 26, 1
  10              		.eabi_attribute 30, 6
  11              		.eabi_attribute 34, 0
  12              		.eabi_attribute 18, 4
  13              		.thumb
  14              		.syntax unified
  15              		.file	"GLCD_SCLK.c"
  16              		.text
  17              	.Ltext0:
  18              		.cfi_sections	.debug_frame
  19              		.section	.text.GLCD_SCLK_Write,"ax",%progbits
  20              		.align	2
  21              		.global	GLCD_SCLK_Write
  22              		.code	16
  23              		.thumb_func
  24              		.type	GLCD_SCLK_Write, %function
  25              	GLCD_SCLK_Write:
  26              	.LFB0:
  27              		.file 1 "Generated_Source\\PSoC4\\GLCD_SCLK.c"
   1:Generated_Source\PSoC4/GLCD_SCLK.c **** /*******************************************************************************
   2:Generated_Source\PSoC4/GLCD_SCLK.c **** * File Name: GLCD_SCLK.c  
   3:Generated_Source\PSoC4/GLCD_SCLK.c **** * Version 1.90
   4:Generated_Source\PSoC4/GLCD_SCLK.c **** *
   5:Generated_Source\PSoC4/GLCD_SCLK.c **** * Description:
   6:Generated_Source\PSoC4/GLCD_SCLK.c **** *  This file contains API to enable firmware control of a Pins component.
   7:Generated_Source\PSoC4/GLCD_SCLK.c **** *
   8:Generated_Source\PSoC4/GLCD_SCLK.c **** * Note:
   9:Generated_Source\PSoC4/GLCD_SCLK.c **** *
  10:Generated_Source\PSoC4/GLCD_SCLK.c **** ********************************************************************************
  11:Generated_Source\PSoC4/GLCD_SCLK.c **** * Copyright 2008-2012, Cypress Semiconductor Corporation.  All rights reserved.
  12:Generated_Source\PSoC4/GLCD_SCLK.c **** * You may use this file only in accordance with the license, terms, conditions, 
  13:Generated_Source\PSoC4/GLCD_SCLK.c **** * disclaimers, and limitations in the end user license agreement accompanying 
  14:Generated_Source\PSoC4/GLCD_SCLK.c **** * the software package with which this file was provided.
  15:Generated_Source\PSoC4/GLCD_SCLK.c **** *******************************************************************************/
  16:Generated_Source\PSoC4/GLCD_SCLK.c **** 
  17:Generated_Source\PSoC4/GLCD_SCLK.c **** #include "cytypes.h"
  18:Generated_Source\PSoC4/GLCD_SCLK.c **** #include "GLCD_SCLK.h"
  19:Generated_Source\PSoC4/GLCD_SCLK.c **** 
  20:Generated_Source\PSoC4/GLCD_SCLK.c **** #define SetP4PinDriveMode(shift, mode)  \
  21:Generated_Source\PSoC4/GLCD_SCLK.c ****     do { \
  22:Generated_Source\PSoC4/GLCD_SCLK.c ****         GLCD_SCLK_PC =   (GLCD_SCLK_PC & \
  23:Generated_Source\PSoC4/GLCD_SCLK.c ****                                 (uint32)(~(uint32)(GLCD_SCLK_DRIVE_MODE_IND_MASK << (GLCD_SCLK_DRIV
  24:Generated_Source\PSoC4/GLCD_SCLK.c ****                                 (uint32)((uint32)(mode) << (GLCD_SCLK_DRIVE_MODE_BITS * (shift))); 
  25:Generated_Source\PSoC4/GLCD_SCLK.c ****     } while (0)
  26:Generated_Source\PSoC4/GLCD_SCLK.c **** 
  27:Generated_Source\PSoC4/GLCD_SCLK.c **** 
  28:Generated_Source\PSoC4/GLCD_SCLK.c **** /*******************************************************************************
  29:Generated_Source\PSoC4/GLCD_SCLK.c **** * Function Name: GLCD_SCLK_Write
  30:Generated_Source\PSoC4/GLCD_SCLK.c **** ********************************************************************************
ARM GAS  C:\Users\sur\AppData\Local\Temp\cc3696dX.s 			page 2


  31:Generated_Source\PSoC4/GLCD_SCLK.c **** *
  32:Generated_Source\PSoC4/GLCD_SCLK.c **** * Summary:
  33:Generated_Source\PSoC4/GLCD_SCLK.c **** *  Assign a new value to the digital port's data output register.  
  34:Generated_Source\PSoC4/GLCD_SCLK.c **** *
  35:Generated_Source\PSoC4/GLCD_SCLK.c **** * Parameters:  
  36:Generated_Source\PSoC4/GLCD_SCLK.c **** *  prtValue:  The value to be assigned to the Digital Port. 
  37:Generated_Source\PSoC4/GLCD_SCLK.c **** *
  38:Generated_Source\PSoC4/GLCD_SCLK.c **** * Return: 
  39:Generated_Source\PSoC4/GLCD_SCLK.c **** *  None 
  40:Generated_Source\PSoC4/GLCD_SCLK.c **** *  
  41:Generated_Source\PSoC4/GLCD_SCLK.c **** *******************************************************************************/
  42:Generated_Source\PSoC4/GLCD_SCLK.c **** void GLCD_SCLK_Write(uint8 value) 
  43:Generated_Source\PSoC4/GLCD_SCLK.c **** {
  28              		.loc 1 43 0
  29              		.cfi_startproc
  30              		@ args = 0, pretend = 0, frame = 16
  31              		@ frame_needed = 1, uses_anonymous_args = 0
  32 0000 80B5     		push	{r7, lr}
  33              		.cfi_def_cfa_offset 8
  34              		.cfi_offset 7, -8
  35              		.cfi_offset 14, -4
  36 0002 84B0     		sub	sp, sp, #16
  37              		.cfi_def_cfa_offset 24
  38 0004 00AF     		add	r7, sp, #0
  39              		.cfi_def_cfa_register 7
  40 0006 0200     		movs	r2, r0
  41 0008 FB1D     		adds	r3, r7, #7
  42 000a 1A70     		strb	r2, [r3]
  44:Generated_Source\PSoC4/GLCD_SCLK.c ****     uint8 drVal = (uint8)(GLCD_SCLK_DR & (uint8)(~GLCD_SCLK_MASK));
  43              		.loc 1 44 0
  44 000c 0F4B     		ldr	r3, .L2
  45 000e 1B68     		ldr	r3, [r3]
  46 0010 DAB2     		uxtb	r2, r3
  47 0012 0F23     		movs	r3, #15
  48 0014 FB18     		adds	r3, r7, r3
  49 0016 4021     		movs	r1, #64
  50 0018 8A43     		bics	r2, r1
  51 001a 1A70     		strb	r2, [r3]
  45:Generated_Source\PSoC4/GLCD_SCLK.c ****     drVal = (drVal | ((uint8)(value << GLCD_SCLK_SHIFT) & GLCD_SCLK_MASK));
  52              		.loc 1 45 0
  53 001c FB1D     		adds	r3, r7, #7
  54 001e 1B78     		ldrb	r3, [r3]
  55 0020 9B01     		lsls	r3, r3, #6
  56 0022 DBB2     		uxtb	r3, r3
  57 0024 4022     		movs	r2, #64
  58 0026 1340     		ands	r3, r2
  59 0028 D9B2     		uxtb	r1, r3
  60 002a 0F23     		movs	r3, #15
  61 002c FB18     		adds	r3, r7, r3
  62 002e 0F22     		movs	r2, #15
  63 0030 BA18     		adds	r2, r7, r2
  64 0032 1278     		ldrb	r2, [r2]
  65 0034 0A43     		orrs	r2, r1
  66 0036 1A70     		strb	r2, [r3]
  46:Generated_Source\PSoC4/GLCD_SCLK.c ****     GLCD_SCLK_DR = (uint32)drVal;
  67              		.loc 1 46 0
  68 0038 044B     		ldr	r3, .L2
ARM GAS  C:\Users\sur\AppData\Local\Temp\cc3696dX.s 			page 3


  69 003a 0F22     		movs	r2, #15
  70 003c BA18     		adds	r2, r7, r2
  71 003e 1278     		ldrb	r2, [r2]
  72 0040 1A60     		str	r2, [r3]
  47:Generated_Source\PSoC4/GLCD_SCLK.c **** }
  73              		.loc 1 47 0
  74 0042 C046     		nop
  75 0044 BD46     		mov	sp, r7
  76 0046 04B0     		add	sp, sp, #16
  77              		@ sp needed
  78 0048 80BD     		pop	{r7, pc}
  79              	.L3:
  80 004a C046     		.align	2
  81              	.L2:
  82 004c 00030440 		.word	1074004736
  83              		.cfi_endproc
  84              	.LFE0:
  85              		.size	GLCD_SCLK_Write, .-GLCD_SCLK_Write
  86              		.section	.text.GLCD_SCLK_SetDriveMode,"ax",%progbits
  87              		.align	2
  88              		.global	GLCD_SCLK_SetDriveMode
  89              		.code	16
  90              		.thumb_func
  91              		.type	GLCD_SCLK_SetDriveMode, %function
  92              	GLCD_SCLK_SetDriveMode:
  93              	.LFB1:
  48:Generated_Source\PSoC4/GLCD_SCLK.c **** 
  49:Generated_Source\PSoC4/GLCD_SCLK.c **** 
  50:Generated_Source\PSoC4/GLCD_SCLK.c **** /*******************************************************************************
  51:Generated_Source\PSoC4/GLCD_SCLK.c **** * Function Name: GLCD_SCLK_SetDriveMode
  52:Generated_Source\PSoC4/GLCD_SCLK.c **** ********************************************************************************
  53:Generated_Source\PSoC4/GLCD_SCLK.c **** *
  54:Generated_Source\PSoC4/GLCD_SCLK.c **** * Summary:
  55:Generated_Source\PSoC4/GLCD_SCLK.c **** *  Change the drive mode on the pins of the port.
  56:Generated_Source\PSoC4/GLCD_SCLK.c **** * 
  57:Generated_Source\PSoC4/GLCD_SCLK.c **** * Parameters:  
  58:Generated_Source\PSoC4/GLCD_SCLK.c **** *  mode:  Change the pins to this drive mode.
  59:Generated_Source\PSoC4/GLCD_SCLK.c **** *
  60:Generated_Source\PSoC4/GLCD_SCLK.c **** * Return: 
  61:Generated_Source\PSoC4/GLCD_SCLK.c **** *  None
  62:Generated_Source\PSoC4/GLCD_SCLK.c **** *
  63:Generated_Source\PSoC4/GLCD_SCLK.c **** *******************************************************************************/
  64:Generated_Source\PSoC4/GLCD_SCLK.c **** void GLCD_SCLK_SetDriveMode(uint8 mode) 
  65:Generated_Source\PSoC4/GLCD_SCLK.c **** {
  94              		.loc 1 65 0
  95              		.cfi_startproc
  96              		@ args = 0, pretend = 0, frame = 8
  97              		@ frame_needed = 1, uses_anonymous_args = 0
  98 0000 80B5     		push	{r7, lr}
  99              		.cfi_def_cfa_offset 8
 100              		.cfi_offset 7, -8
 101              		.cfi_offset 14, -4
 102 0002 82B0     		sub	sp, sp, #8
 103              		.cfi_def_cfa_offset 16
 104 0004 00AF     		add	r7, sp, #0
 105              		.cfi_def_cfa_register 7
 106 0006 0200     		movs	r2, r0
ARM GAS  C:\Users\sur\AppData\Local\Temp\cc3696dX.s 			page 4


 107 0008 FB1D     		adds	r3, r7, #7
 108 000a 1A70     		strb	r2, [r3]
  66:Generated_Source\PSoC4/GLCD_SCLK.c **** 	SetP4PinDriveMode(GLCD_SCLK__0__SHIFT, mode);
 109              		.loc 1 66 0
 110 000c 064B     		ldr	r3, .L5
 111 000e 064A     		ldr	r2, .L5
 112 0010 1268     		ldr	r2, [r2]
 113 0012 0649     		ldr	r1, .L5+4
 114 0014 1140     		ands	r1, r2
 115 0016 FA1D     		adds	r2, r7, #7
 116 0018 1278     		ldrb	r2, [r2]
 117 001a 9204     		lsls	r2, r2, #18
 118 001c 0A43     		orrs	r2, r1
 119 001e 1A60     		str	r2, [r3]
  67:Generated_Source\PSoC4/GLCD_SCLK.c **** }
 120              		.loc 1 67 0
 121 0020 C046     		nop
 122 0022 BD46     		mov	sp, r7
 123 0024 02B0     		add	sp, sp, #8
 124              		@ sp needed
 125 0026 80BD     		pop	{r7, pc}
 126              	.L6:
 127              		.align	2
 128              	.L5:
 129 0028 08030440 		.word	1074004744
 130 002c FFFFE3FF 		.word	-1835009
 131              		.cfi_endproc
 132              	.LFE1:
 133              		.size	GLCD_SCLK_SetDriveMode, .-GLCD_SCLK_SetDriveMode
 134              		.section	.text.GLCD_SCLK_Read,"ax",%progbits
 135              		.align	2
 136              		.global	GLCD_SCLK_Read
 137              		.code	16
 138              		.thumb_func
 139              		.type	GLCD_SCLK_Read, %function
 140              	GLCD_SCLK_Read:
 141              	.LFB2:
  68:Generated_Source\PSoC4/GLCD_SCLK.c **** 
  69:Generated_Source\PSoC4/GLCD_SCLK.c **** 
  70:Generated_Source\PSoC4/GLCD_SCLK.c **** /*******************************************************************************
  71:Generated_Source\PSoC4/GLCD_SCLK.c **** * Function Name: GLCD_SCLK_Read
  72:Generated_Source\PSoC4/GLCD_SCLK.c **** ********************************************************************************
  73:Generated_Source\PSoC4/GLCD_SCLK.c **** *
  74:Generated_Source\PSoC4/GLCD_SCLK.c **** * Summary:
  75:Generated_Source\PSoC4/GLCD_SCLK.c **** *  Read the current value on the pins of the Digital Port in right justified 
  76:Generated_Source\PSoC4/GLCD_SCLK.c **** *  form.
  77:Generated_Source\PSoC4/GLCD_SCLK.c **** *
  78:Generated_Source\PSoC4/GLCD_SCLK.c **** * Parameters:  
  79:Generated_Source\PSoC4/GLCD_SCLK.c **** *  None 
  80:Generated_Source\PSoC4/GLCD_SCLK.c **** *
  81:Generated_Source\PSoC4/GLCD_SCLK.c **** * Return: 
  82:Generated_Source\PSoC4/GLCD_SCLK.c **** *  Returns the current value of the Digital Port as a right justified number
  83:Generated_Source\PSoC4/GLCD_SCLK.c **** *  
  84:Generated_Source\PSoC4/GLCD_SCLK.c **** * Note:
  85:Generated_Source\PSoC4/GLCD_SCLK.c **** *  Macro GLCD_SCLK_ReadPS calls this function. 
  86:Generated_Source\PSoC4/GLCD_SCLK.c **** *  
  87:Generated_Source\PSoC4/GLCD_SCLK.c **** *******************************************************************************/
ARM GAS  C:\Users\sur\AppData\Local\Temp\cc3696dX.s 			page 5


  88:Generated_Source\PSoC4/GLCD_SCLK.c **** uint8 GLCD_SCLK_Read(void) 
  89:Generated_Source\PSoC4/GLCD_SCLK.c **** {
 142              		.loc 1 89 0
 143              		.cfi_startproc
 144              		@ args = 0, pretend = 0, frame = 0
 145              		@ frame_needed = 1, uses_anonymous_args = 0
 146 0000 80B5     		push	{r7, lr}
 147              		.cfi_def_cfa_offset 8
 148              		.cfi_offset 7, -8
 149              		.cfi_offset 14, -4
 150 0002 00AF     		add	r7, sp, #0
 151              		.cfi_def_cfa_register 7
  90:Generated_Source\PSoC4/GLCD_SCLK.c ****     return (uint8)((GLCD_SCLK_PS & GLCD_SCLK_MASK) >> GLCD_SCLK_SHIFT);
 152              		.loc 1 90 0
 153 0004 044B     		ldr	r3, .L9
 154 0006 1B68     		ldr	r3, [r3]
 155 0008 4022     		movs	r2, #64
 156 000a 1340     		ands	r3, r2
 157 000c 9B09     		lsrs	r3, r3, #6
 158 000e DBB2     		uxtb	r3, r3
  91:Generated_Source\PSoC4/GLCD_SCLK.c **** }
 159              		.loc 1 91 0
 160 0010 1800     		movs	r0, r3
 161 0012 BD46     		mov	sp, r7
 162              		@ sp needed
 163 0014 80BD     		pop	{r7, pc}
 164              	.L10:
 165 0016 C046     		.align	2
 166              	.L9:
 167 0018 04030440 		.word	1074004740
 168              		.cfi_endproc
 169              	.LFE2:
 170              		.size	GLCD_SCLK_Read, .-GLCD_SCLK_Read
 171              		.section	.text.GLCD_SCLK_ReadDataReg,"ax",%progbits
 172              		.align	2
 173              		.global	GLCD_SCLK_ReadDataReg
 174              		.code	16
 175              		.thumb_func
 176              		.type	GLCD_SCLK_ReadDataReg, %function
 177              	GLCD_SCLK_ReadDataReg:
 178              	.LFB3:
  92:Generated_Source\PSoC4/GLCD_SCLK.c **** 
  93:Generated_Source\PSoC4/GLCD_SCLK.c **** 
  94:Generated_Source\PSoC4/GLCD_SCLK.c **** /*******************************************************************************
  95:Generated_Source\PSoC4/GLCD_SCLK.c **** * Function Name: GLCD_SCLK_ReadDataReg
  96:Generated_Source\PSoC4/GLCD_SCLK.c **** ********************************************************************************
  97:Generated_Source\PSoC4/GLCD_SCLK.c **** *
  98:Generated_Source\PSoC4/GLCD_SCLK.c **** * Summary:
  99:Generated_Source\PSoC4/GLCD_SCLK.c **** *  Read the current value assigned to a Digital Port's data output register
 100:Generated_Source\PSoC4/GLCD_SCLK.c **** *
 101:Generated_Source\PSoC4/GLCD_SCLK.c **** * Parameters:  
 102:Generated_Source\PSoC4/GLCD_SCLK.c **** *  None 
 103:Generated_Source\PSoC4/GLCD_SCLK.c **** *
 104:Generated_Source\PSoC4/GLCD_SCLK.c **** * Return: 
 105:Generated_Source\PSoC4/GLCD_SCLK.c **** *  Returns the current value assigned to the Digital Port's data output register
 106:Generated_Source\PSoC4/GLCD_SCLK.c **** *  
 107:Generated_Source\PSoC4/GLCD_SCLK.c **** *******************************************************************************/
ARM GAS  C:\Users\sur\AppData\Local\Temp\cc3696dX.s 			page 6


 108:Generated_Source\PSoC4/GLCD_SCLK.c **** uint8 GLCD_SCLK_ReadDataReg(void) 
 109:Generated_Source\PSoC4/GLCD_SCLK.c **** {
 179              		.loc 1 109 0
 180              		.cfi_startproc
 181              		@ args = 0, pretend = 0, frame = 0
 182              		@ frame_needed = 1, uses_anonymous_args = 0
 183 0000 80B5     		push	{r7, lr}
 184              		.cfi_def_cfa_offset 8
 185              		.cfi_offset 7, -8
 186              		.cfi_offset 14, -4
 187 0002 00AF     		add	r7, sp, #0
 188              		.cfi_def_cfa_register 7
 110:Generated_Source\PSoC4/GLCD_SCLK.c ****     return (uint8)((GLCD_SCLK_DR & GLCD_SCLK_MASK) >> GLCD_SCLK_SHIFT);
 189              		.loc 1 110 0
 190 0004 044B     		ldr	r3, .L13
 191 0006 1B68     		ldr	r3, [r3]
 192 0008 4022     		movs	r2, #64
 193 000a 1340     		ands	r3, r2
 194 000c 9B09     		lsrs	r3, r3, #6
 195 000e DBB2     		uxtb	r3, r3
 111:Generated_Source\PSoC4/GLCD_SCLK.c **** }
 196              		.loc 1 111 0
 197 0010 1800     		movs	r0, r3
 198 0012 BD46     		mov	sp, r7
 199              		@ sp needed
 200 0014 80BD     		pop	{r7, pc}
 201              	.L14:
 202 0016 C046     		.align	2
 203              	.L13:
 204 0018 00030440 		.word	1074004736
 205              		.cfi_endproc
 206              	.LFE3:
 207              		.size	GLCD_SCLK_ReadDataReg, .-GLCD_SCLK_ReadDataReg
 208              		.section	.text.GLCD_SCLK_ClearInterrupt,"ax",%progbits
 209              		.align	2
 210              		.global	GLCD_SCLK_ClearInterrupt
 211              		.code	16
 212              		.thumb_func
 213              		.type	GLCD_SCLK_ClearInterrupt, %function
 214              	GLCD_SCLK_ClearInterrupt:
 215              	.LFB4:
 112:Generated_Source\PSoC4/GLCD_SCLK.c **** 
 113:Generated_Source\PSoC4/GLCD_SCLK.c **** 
 114:Generated_Source\PSoC4/GLCD_SCLK.c **** /* If Interrupts Are Enabled for this Pins component */ 
 115:Generated_Source\PSoC4/GLCD_SCLK.c **** #if defined(GLCD_SCLK_INTSTAT) 
 116:Generated_Source\PSoC4/GLCD_SCLK.c **** 
 117:Generated_Source\PSoC4/GLCD_SCLK.c ****     /*******************************************************************************
 118:Generated_Source\PSoC4/GLCD_SCLK.c ****     * Function Name: GLCD_SCLK_ClearInterrupt
 119:Generated_Source\PSoC4/GLCD_SCLK.c ****     ********************************************************************************
 120:Generated_Source\PSoC4/GLCD_SCLK.c ****     *
 121:Generated_Source\PSoC4/GLCD_SCLK.c ****     * Summary:
 122:Generated_Source\PSoC4/GLCD_SCLK.c ****     *  Clears any active interrupts attached to port and returns the value of the 
 123:Generated_Source\PSoC4/GLCD_SCLK.c ****     *  interrupt status register.
 124:Generated_Source\PSoC4/GLCD_SCLK.c ****     *
 125:Generated_Source\PSoC4/GLCD_SCLK.c ****     * Parameters:  
 126:Generated_Source\PSoC4/GLCD_SCLK.c ****     *  None 
 127:Generated_Source\PSoC4/GLCD_SCLK.c ****     *
ARM GAS  C:\Users\sur\AppData\Local\Temp\cc3696dX.s 			page 7


 128:Generated_Source\PSoC4/GLCD_SCLK.c ****     * Return: 
 129:Generated_Source\PSoC4/GLCD_SCLK.c ****     *  Returns the value of the interrupt status register
 130:Generated_Source\PSoC4/GLCD_SCLK.c ****     *  
 131:Generated_Source\PSoC4/GLCD_SCLK.c ****     *******************************************************************************/
 132:Generated_Source\PSoC4/GLCD_SCLK.c ****     uint8 GLCD_SCLK_ClearInterrupt(void) 
 133:Generated_Source\PSoC4/GLCD_SCLK.c ****     {
 216              		.loc 1 133 0
 217              		.cfi_startproc
 218              		@ args = 0, pretend = 0, frame = 8
 219              		@ frame_needed = 1, uses_anonymous_args = 0
 220 0000 80B5     		push	{r7, lr}
 221              		.cfi_def_cfa_offset 8
 222              		.cfi_offset 7, -8
 223              		.cfi_offset 14, -4
 224 0002 82B0     		sub	sp, sp, #8
 225              		.cfi_def_cfa_offset 16
 226 0004 00AF     		add	r7, sp, #0
 227              		.cfi_def_cfa_register 7
 134:Generated_Source\PSoC4/GLCD_SCLK.c **** 		uint8 maskedStatus = (uint8)(GLCD_SCLK_INTSTAT & GLCD_SCLK_MASK);
 228              		.loc 1 134 0
 229 0006 094B     		ldr	r3, .L17
 230 0008 1B68     		ldr	r3, [r3]
 231 000a DAB2     		uxtb	r2, r3
 232 000c FB1D     		adds	r3, r7, #7
 233 000e 4021     		movs	r1, #64
 234 0010 0A40     		ands	r2, r1
 235 0012 1A70     		strb	r2, [r3]
 135:Generated_Source\PSoC4/GLCD_SCLK.c **** 		GLCD_SCLK_INTSTAT = maskedStatus;
 236              		.loc 1 135 0
 237 0014 054B     		ldr	r3, .L17
 238 0016 FA1D     		adds	r2, r7, #7
 239 0018 1278     		ldrb	r2, [r2]
 240 001a 1A60     		str	r2, [r3]
 136:Generated_Source\PSoC4/GLCD_SCLK.c ****         return maskedStatus >> GLCD_SCLK_SHIFT;
 241              		.loc 1 136 0
 242 001c FB1D     		adds	r3, r7, #7
 243 001e 1B78     		ldrb	r3, [r3]
 244 0020 9B09     		lsrs	r3, r3, #6
 245 0022 DBB2     		uxtb	r3, r3
 137:Generated_Source\PSoC4/GLCD_SCLK.c ****     }
 246              		.loc 1 137 0
 247 0024 1800     		movs	r0, r3
 248 0026 BD46     		mov	sp, r7
 249 0028 02B0     		add	sp, sp, #8
 250              		@ sp needed
 251 002a 80BD     		pop	{r7, pc}
 252              	.L18:
 253              		.align	2
 254              	.L17:
 255 002c 10030440 		.word	1074004752
 256              		.cfi_endproc
 257              	.LFE4:
 258              		.size	GLCD_SCLK_ClearInterrupt, .-GLCD_SCLK_ClearInterrupt
 259              		.text
 260              	.Letext0:
 261              		.file 2 "Generated_Source\\PSoC4\\cytypes.h"