ARM GAS  C:\Users\sur\AppData\Local\Temp\ccifbkIH.s 			page 1


   1              		.syntax unified
   2              		.cpu cortex-m0
   3              		.fpu softvfp
   4              		.eabi_attribute 20, 1
   5              		.eabi_attribute 21, 1
   6              		.eabi_attribute 23, 3
   7              		.eabi_attribute 24, 1
   8              		.eabi_attribute 25, 1
   9              		.eabi_attribute 26, 1
  10              		.eabi_attribute 30, 6
  11              		.eabi_attribute 34, 0
  12              		.eabi_attribute 18, 4
  13              		.thumb
  14              		.syntax unified
  15              		.file	"GLCD.c"
  16              		.text
  17              	.Ltext0:
  18              		.cfi_sections	.debug_frame
  19              		.comm	GLCD_FONT8x16,1552,4
  20              		.comm	GLCD_driver,1,1
  21              		.bss
  22              		.align	2
  23              	GLCD_x_offset:
  24 0000 00000000 		.space	4
  25              		.align	2
  26              	GLCD_y_offset:
  27 0004 00000000 		.space	4
  28              		.section	.text.GLCD_Command,"ax",%progbits
  29              		.align	2
  30              		.global	GLCD_Command
  31              		.code	16
  32              		.thumb_func
  33              		.type	GLCD_Command, %function
  34              	GLCD_Command:
  35              	.LFB0:
  36              		.file 1 "Generated_Source\\PSoC4\\GLCD.c"
   1:Generated_Source\PSoC4/GLCD.c **** /*******************************************************************************
   2:Generated_Source\PSoC4/GLCD.c **** * File Name: GLCD.c  
   3:Generated_Source\PSoC4/GLCD.c **** * Version 0.3
   4:Generated_Source\PSoC4/GLCD.c **** *
   5:Generated_Source\PSoC4/GLCD.c **** *  Description:
   6:Generated_Source\PSoC4/GLCD.c **** *    This file contains all the API for the SparkFun Color Graphics
   7:Generated_Source\PSoC4/GLCD.c **** *    Arduino Shield board which uses a Nokia 6100 LCD.
   8:Generated_Source\PSoC4/GLCD.c **** *
   9:Generated_Source\PSoC4/GLCD.c **** * Note:  This code has been tested with the Philips PCF8833 controller, but not
  10:Generated_Source\PSoC4/GLCD.c **** *        the EPSON S115D10 controller as of release 0.3.
  11:Generated_Source\PSoC4/GLCD.c **** *
  12:Generated_Source\PSoC4/GLCD.c **** *        Code has been optimized for a 32-bit processor such as the Cortex
  13:Generated_Source\PSoC4/GLCD.c **** *        M0 or M3.
  14:Generated_Source\PSoC4/GLCD.c **** *******************************************************************************
  15:Generated_Source\PSoC4/GLCD.c **** * The following firmware was developed by Cypress Semiconductor
  16:Generated_Source\PSoC4/GLCD.c **** * This work is licensed under a Creative Commons Attribution 3.0 Unported License.
  17:Generated_Source\PSoC4/GLCD.c **** *
  18:Generated_Source\PSoC4/GLCD.c **** * http://creativecommons.org/licenses/by/3.0/deed.en_US
  19:Generated_Source\PSoC4/GLCD.c **** * 
  20:Generated_Source\PSoC4/GLCD.c **** * You are free to:
  21:Generated_Source\PSoC4/GLCD.c **** * -To Share — to copy, distribute and transmit the work 
ARM GAS  C:\Users\sur\AppData\Local\Temp\ccifbkIH.s 			page 2


  22:Generated_Source\PSoC4/GLCD.c **** * -To Remix — to adapt the work 
  23:Generated_Source\PSoC4/GLCD.c **** * -To make commercial use of the work
  24:Generated_Source\PSoC4/GLCD.c **** *
  25:Generated_Source\PSoC4/GLCD.c **** * Much of this code was ported from the LCD_driver code by Mark Sproul
  26:Generated_Source\PSoC4/GLCD.c **** * and Peter DavenPort.  Also the tutorial by James P. Lynch
  27:Generated_Source\PSoC4/GLCD.c **** * on how the controller works was invaluable.
  28:Generated_Source\PSoC4/GLCD.c **** ********************************************************************************/
  29:Generated_Source\PSoC4/GLCD.c **** #include "cytypes.h"
  30:Generated_Source\PSoC4/GLCD.c **** #include "GLCD.h"
  31:Generated_Source\PSoC4/GLCD.c **** #include "GLCD_SPIM_UDB.h"
  32:Generated_Source\PSoC4/GLCD.c **** #include "GLCD_Reset.h"
  33:Generated_Source\PSoC4/GLCD.c **** #include "cyfitter.h"
  34:Generated_Source\PSoC4/GLCD.c **** 
  35:Generated_Source\PSoC4/GLCD.c **** #if (GLCD_SPIM_TYPE == GLCD_SPIM_SCB_TYPE)
  36:Generated_Source\PSoC4/GLCD.c **** #include "GLCD_SPIM_UDB_SPI_UART.h"
  37:Generated_Source\PSoC4/GLCD.c **** #endif
  38:Generated_Source\PSoC4/GLCD.c **** 
  39:Generated_Source\PSoC4/GLCD.c **** uint8 GLCD_driver;
  40:Generated_Source\PSoC4/GLCD.c **** 				
  41:Generated_Source\PSoC4/GLCD.c **** static int32 GLCD_x_offset = 0;
  42:Generated_Source\PSoC4/GLCD.c **** static int32 GLCD_y_offset = 0;
  43:Generated_Source\PSoC4/GLCD.c **** 
  44:Generated_Source\PSoC4/GLCD.c **** /*******************************************************************************
  45:Generated_Source\PSoC4/GLCD.c **** * Function Name: GLCD_Command
  46:Generated_Source\PSoC4/GLCD.c **** ********************************************************************************
  47:Generated_Source\PSoC4/GLCD.c **** *
  48:Generated_Source\PSoC4/GLCD.c **** * Summary:
  49:Generated_Source\PSoC4/GLCD.c **** *  This function sends a command to the LCD controller.  
  50:Generated_Source\PSoC4/GLCD.c **** *
  51:Generated_Source\PSoC4/GLCD.c **** * Parameters:  
  52:Generated_Source\PSoC4/GLCD.c **** *  cmdData:  This is the command to be sent to the LCD controller  
  53:Generated_Source\PSoC4/GLCD.c **** *
  54:Generated_Source\PSoC4/GLCD.c **** * Return: 
  55:Generated_Source\PSoC4/GLCD.c **** *  None 
  56:Generated_Source\PSoC4/GLCD.c **** *  
  57:Generated_Source\PSoC4/GLCD.c **** *******************************************************************************/
  58:Generated_Source\PSoC4/GLCD.c **** void GLCD_Command(uint32 cmdData)
  59:Generated_Source\PSoC4/GLCD.c **** {
  37              		.loc 1 59 0
  38              		.cfi_startproc
  39              		@ args = 0, pretend = 0, frame = 8
  40              		@ frame_needed = 1, uses_anonymous_args = 0
  41 0000 80B5     		push	{r7, lr}
  42              		.cfi_def_cfa_offset 8
  43              		.cfi_offset 7, -8
  44              		.cfi_offset 14, -4
  45 0002 82B0     		sub	sp, sp, #8
  46              		.cfi_def_cfa_offset 16
  47 0004 00AF     		add	r7, sp, #0
  48              		.cfi_def_cfa_register 7
  49 0006 7860     		str	r0, [r7, #4]
  60:Generated_Source\PSoC4/GLCD.c **** #if (GLCD_SPIM_TYPE == GLCD_SPIM_UDB_TYPE)
  61:Generated_Source\PSoC4/GLCD.c ****   while((GLCD_SPIM_UDB_ReadTxStatus() & (GLCD_SPIM_UDB_STS_SPI_DONE | GLCD_SPIM_UDB_STS_SPI_IDLE) )
  50              		.loc 1 61 0
  51 0008 C046     		nop
  52              	.L2:
  53              		.loc 1 61 0 is_stmt 0 discriminator 1
ARM GAS  C:\Users\sur\AppData\Local\Temp\ccifbkIH.s 			page 3


  54 000a FFF7FEFF 		bl	GLCD_SPIM_UDB_ReadTxStatus
  55 000e 0300     		movs	r3, r0
  56 0010 1A00     		movs	r2, r3
  57 0012 1123     		movs	r3, #17
  58 0014 1340     		ands	r3, r2
  59 0016 F8D0     		beq	.L2
  62:Generated_Source\PSoC4/GLCD.c ****   GLCD_SPIM_UDB_WriteTxData((uint16)cmdData);
  60              		.loc 1 62 0 is_stmt 1
  61 0018 7B68     		ldr	r3, [r7, #4]
  62 001a 9BB2     		uxth	r3, r3
  63 001c 1800     		movs	r0, r3
  64 001e FFF7FEFF 		bl	GLCD_SPIM_UDB_WriteTxData
  63:Generated_Source\PSoC4/GLCD.c **** #endif
  64:Generated_Source\PSoC4/GLCD.c **** 
  65:Generated_Source\PSoC4/GLCD.c **** #if (GLCD_SPIM_TYPE == GLCD_SPIM_SCB_TYPE)
  66:Generated_Source\PSoC4/GLCD.c ****     GLCD_SPIM_UDB_SpiUartWriteTxData(cmdData);
  67:Generated_Source\PSoC4/GLCD.c **** #endif
  68:Generated_Source\PSoC4/GLCD.c **** }
  65              		.loc 1 68 0
  66 0022 C046     		nop
  67 0024 BD46     		mov	sp, r7
  68 0026 02B0     		add	sp, sp, #8
  69              		@ sp needed
  70 0028 80BD     		pop	{r7, pc}
  71              		.cfi_endproc
  72              	.LFE0:
  73              		.size	GLCD_Command, .-GLCD_Command
  74 002a C046     		.section	.text.GLCD_Data,"ax",%progbits
  75              		.align	2
  76              		.global	GLCD_Data
  77              		.code	16
  78              		.thumb_func
  79              		.type	GLCD_Data, %function
  80              	GLCD_Data:
  81              	.LFB1:
  69:Generated_Source\PSoC4/GLCD.c **** 
  70:Generated_Source\PSoC4/GLCD.c **** /*******************************************************************************
  71:Generated_Source\PSoC4/GLCD.c **** * Function Name: GLCD_Data
  72:Generated_Source\PSoC4/GLCD.c **** ********************************************************************************
  73:Generated_Source\PSoC4/GLCD.c **** *
  74:Generated_Source\PSoC4/GLCD.c **** * Summary:
  75:Generated_Source\PSoC4/GLCD.c **** *  This function sends raw data to the controller.  The 9th bit is set to signal
  76:Generated_Source\PSoC4/GLCD.c **** *  the controller that it information is data and not a command.
  77:Generated_Source\PSoC4/GLCD.c **** *
  78:Generated_Source\PSoC4/GLCD.c **** * Parameters:  
  79:Generated_Source\PSoC4/GLCD.c **** *  rawData:  The data to be sent to the controller. 
  80:Generated_Source\PSoC4/GLCD.c **** *
  81:Generated_Source\PSoC4/GLCD.c **** * Return: 
  82:Generated_Source\PSoC4/GLCD.c **** *  None 
  83:Generated_Source\PSoC4/GLCD.c **** *  
  84:Generated_Source\PSoC4/GLCD.c **** *******************************************************************************/
  85:Generated_Source\PSoC4/GLCD.c **** void GLCD_Data(uint32 rawData)
  86:Generated_Source\PSoC4/GLCD.c **** {	
  82              		.loc 1 86 0
  83              		.cfi_startproc
  84              		@ args = 0, pretend = 0, frame = 16
  85              		@ frame_needed = 1, uses_anonymous_args = 0
ARM GAS  C:\Users\sur\AppData\Local\Temp\ccifbkIH.s 			page 4


  86 0000 80B5     		push	{r7, lr}
  87              		.cfi_def_cfa_offset 8
  88              		.cfi_offset 7, -8
  89              		.cfi_offset 14, -4
  90 0002 84B0     		sub	sp, sp, #16
  91              		.cfi_def_cfa_offset 24
  92 0004 00AF     		add	r7, sp, #0
  93              		.cfi_def_cfa_register 7
  94 0006 7860     		str	r0, [r7, #4]
  87:Generated_Source\PSoC4/GLCD.c **** #if (GLCD_SPIM_TYPE == GLCD_SPIM_UDB_TYPE)
  88:Generated_Source\PSoC4/GLCD.c ****     uint16 data16;
  89:Generated_Source\PSoC4/GLCD.c ****     data16 = (uint16)rawData | 0x0100;
  95              		.loc 1 89 0
  96 0008 7B68     		ldr	r3, [r7, #4]
  97 000a 1BB2     		sxth	r3, r3
  98 000c 8022     		movs	r2, #128
  99 000e 5200     		lsls	r2, r2, #1
 100 0010 1343     		orrs	r3, r2
 101 0012 1AB2     		sxth	r2, r3
 102 0014 0E23     		movs	r3, #14
 103 0016 FB18     		adds	r3, r7, r3
 104 0018 1A80     		strh	r2, [r3]
  90:Generated_Source\PSoC4/GLCD.c **** 	
  91:Generated_Source\PSoC4/GLCD.c ****     while((GLCD_SPIM_UDB_ReadTxStatus() & (GLCD_SPIM_UDB_STS_SPI_DONE | GLCD_SPIM_UDB_STS_SPI_IDLE)
 105              		.loc 1 91 0
 106 001a C046     		nop
 107              	.L4:
 108              		.loc 1 91 0 is_stmt 0 discriminator 1
 109 001c FFF7FEFF 		bl	GLCD_SPIM_UDB_ReadTxStatus
 110 0020 0300     		movs	r3, r0
 111 0022 1A00     		movs	r2, r3
 112 0024 1123     		movs	r3, #17
 113 0026 1340     		ands	r3, r2
 114 0028 F8D0     		beq	.L4
  92:Generated_Source\PSoC4/GLCD.c ****     GLCD_SPIM_UDB_WriteTxData(data16);
 115              		.loc 1 92 0 is_stmt 1
 116 002a 0E23     		movs	r3, #14
 117 002c FB18     		adds	r3, r7, r3
 118 002e 1B88     		ldrh	r3, [r3]
 119 0030 1800     		movs	r0, r3
 120 0032 FFF7FEFF 		bl	GLCD_SPIM_UDB_WriteTxData
  93:Generated_Source\PSoC4/GLCD.c **** #endif
  94:Generated_Source\PSoC4/GLCD.c **** 
  95:Generated_Source\PSoC4/GLCD.c **** #if (GLCD_SPIM_TYPE == GLCD_SPIM_SCB_TYPE)
  96:Generated_Source\PSoC4/GLCD.c **** 
  97:Generated_Source\PSoC4/GLCD.c ****     rawData = rawData | 0x00000100;
  98:Generated_Source\PSoC4/GLCD.c ****     GLCD_SPIM_UDB_SpiUartWriteTxData(rawData);
  99:Generated_Source\PSoC4/GLCD.c **** #endif
 100:Generated_Source\PSoC4/GLCD.c **** 
 101:Generated_Source\PSoC4/GLCD.c **** }
 121              		.loc 1 101 0
 122 0036 C046     		nop
 123 0038 BD46     		mov	sp, r7
 124 003a 04B0     		add	sp, sp, #16
 125              		@ sp needed
 126 003c 80BD     		pop	{r7, pc}
 127              		.cfi_endproc
ARM GAS  C:\Users\sur\AppData\Local\Temp\ccifbkIH.s 			page 5


 128              	.LFE1:
 129              		.size	GLCD_Data, .-GLCD_Data
 130 003e C046     		.section	.text.GLCD_Start,"ax",%progbits
 131              		.align	2
 132              		.global	GLCD_Start
 133              		.code	16
 134              		.thumb_func
 135              		.type	GLCD_Start, %function
 136              	GLCD_Start:
 137              	.LFB2:
 102:Generated_Source\PSoC4/GLCD.c **** 
 103:Generated_Source\PSoC4/GLCD.c **** /*******************************************************************************
 104:Generated_Source\PSoC4/GLCD.c **** * Function Name: GLCD_Start
 105:Generated_Source\PSoC4/GLCD.c **** ********************************************************************************
 106:Generated_Source\PSoC4/GLCD.c **** *
 107:Generated_Source\PSoC4/GLCD.c **** * Summary:
 108:Generated_Source\PSoC4/GLCD.c **** *  This function initializes the SPI interface and the LCD controller.  
 109:Generated_Source\PSoC4/GLCD.c **** *
 110:Generated_Source\PSoC4/GLCD.c **** * Parameters:  
 111:Generated_Source\PSoC4/GLCD.c **** *  None:   
 112:Generated_Source\PSoC4/GLCD.c **** *
 113:Generated_Source\PSoC4/GLCD.c **** * Return: 
 114:Generated_Source\PSoC4/GLCD.c **** *  None 
 115:Generated_Source\PSoC4/GLCD.c **** *  
 116:Generated_Source\PSoC4/GLCD.c **** *******************************************************************************/
 117:Generated_Source\PSoC4/GLCD.c **** void GLCD_Start(void)
 118:Generated_Source\PSoC4/GLCD.c **** {
 138              		.loc 1 118 0
 139              		.cfi_startproc
 140              		@ args = 0, pretend = 0, frame = 0
 141              		@ frame_needed = 1, uses_anonymous_args = 0
 142 0000 80B5     		push	{r7, lr}
 143              		.cfi_def_cfa_offset 8
 144              		.cfi_offset 7, -8
 145              		.cfi_offset 14, -4
 146 0002 00AF     		add	r7, sp, #0
 147              		.cfi_def_cfa_register 7
 119:Generated_Source\PSoC4/GLCD.c **** 	
 120:Generated_Source\PSoC4/GLCD.c **** 	GLCD_SPIM_UDB_Start();
 148              		.loc 1 120 0
 149 0004 FFF7FEFF 		bl	GLCD_SPIM_UDB_Start
 121:Generated_Source\PSoC4/GLCD.c **** #if (GLCD_SPIM_TYPE == GLCD_SPIM_SCB_TYPE)
 122:Generated_Source\PSoC4/GLCD.c ****     GLCD_SPIM_UDB_SpiSetActiveSlaveSelect(3u);
 123:Generated_Source\PSoC4/GLCD.c **** #endif
 124:Generated_Source\PSoC4/GLCD.c **** 
 125:Generated_Source\PSoC4/GLCD.c **** 	CyDelayUs(20);			            /* 20us delay    */
 150              		.loc 1 125 0
 151 0008 1420     		movs	r0, #20
 152 000a FFF7FEFF 		bl	CyDelayUs
 126:Generated_Source\PSoC4/GLCD.c **** 	GLCD_Reset_Write(0x00);	/* Display Reset */
 153              		.loc 1 126 0
 154 000e 0020     		movs	r0, #0
 155 0010 FFF7FEFF 		bl	GLCD_Reset_Write
 127:Generated_Source\PSoC4/GLCD.c **** 	CyDelay(200);			            /* 200ms delay   */
 156              		.loc 1 127 0
 157 0014 C820     		movs	r0, #200
 158 0016 FFF7FEFF 		bl	CyDelay
ARM GAS  C:\Users\sur\AppData\Local\Temp\ccifbkIH.s 			page 6


 128:Generated_Source\PSoC4/GLCD.c **** 	GLCD_Reset_Write(0xFF);	/* Release Reset */
 159              		.loc 1 128 0
 160 001a FF20     		movs	r0, #255
 161 001c FFF7FEFF 		bl	GLCD_Reset_Write
 129:Generated_Source\PSoC4/GLCD.c **** 	CyDelay(200);			            /* 200ms delay   */
 162              		.loc 1 129 0
 163 0020 C820     		movs	r0, #200
 164 0022 FFF7FEFF 		bl	CyDelay
 130:Generated_Source\PSoC4/GLCD.c **** 	
 131:Generated_Source\PSoC4/GLCD.c **** #if(GLCD_Controller == GLCD_EPSON)
 132:Generated_Source\PSoC4/GLCD.c **** 	GLCD_Command(GLCD_DISCTL);	/*  Display control (0xCA)         */
 133:Generated_Source\PSoC4/GLCD.c **** 	GLCD_Data(0x0C);		/* 12 = 1100 - CL dividing ratio [don't divide] switching period 8H (default) */
 134:Generated_Source\PSoC4/GLCD.c **** 	GLCD_Data(0x20);		/* nlines/4 - 1 = 132/4 - 1 = 32 duty              */
 135:Generated_Source\PSoC4/GLCD.c **** 	GLCD_Data(0x00);		/* No inversely highlighted lines                  */
 136:Generated_Source\PSoC4/GLCD.c **** 	
 137:Generated_Source\PSoC4/GLCD.c **** 	GLCD_Command(GLCD_COMSCN);	  /* common scanning direction     */
 138:Generated_Source\PSoC4/GLCD.c **** 	GLCD_Data(0x01);		                  /* 1->68, 132<-69 scan direction */
 139:Generated_Source\PSoC4/GLCD.c **** 	
 140:Generated_Source\PSoC4/GLCD.c **** 	GLCD_Command(GLCD_OSCON);	  /* internal oscialltor ON        */
 141:Generated_Source\PSoC4/GLCD.c **** 	GLCD_Command(GLCD_SLEEPOUT);  /* sleep out                     */    
 142:Generated_Source\PSoC4/GLCD.c **** 	
 143:Generated_Source\PSoC4/GLCD.c **** 	GLCD_Command(GLCD_PWRCTR);	  /* Power ctrl                    */
 144:Generated_Source\PSoC4/GLCD.c **** 	GLCD_Data(0x0F);	                      /* everything on, no external reference  resistors  */
 145:Generated_Source\PSoC4/GLCD.c **** 	
 146:Generated_Source\PSoC4/GLCD.c **** 	GLCD_Command(GLCD_DINVON);	  /* invert display mode           */
 147:Generated_Source\PSoC4/GLCD.c **** 	
 148:Generated_Source\PSoC4/GLCD.c **** 	GLCD_Command(GLCD_DATCTL);	  /* data control                  */
 149:Generated_Source\PSoC4/GLCD.c **** 	GLCD_Data(0x03);		/* Inverse page address, reverse rotation column address, column scan-direction	
 150:Generated_Source\PSoC4/GLCD.c **** 	GLCD_Data(0x00);		                  /* normal RGB arrangement                 */
 151:Generated_Source\PSoC4/GLCD.c **** 	GLCD_Data(0x02);		                  /* 16-bit Grayscale Type A (12-bit color) */
 152:Generated_Source\PSoC4/GLCD.c **** 	
 153:Generated_Source\PSoC4/GLCD.c **** 	GLCD_Command(GLCD_SETCONST);	/* Electronic volume, this is the contrast/brightness        */
 154:Generated_Source\PSoC4/GLCD.c **** 	GLCD_Data(GLCD_CONST_DEFAULT);  /* Volume (contrast) setting - fine tuning, original (0-63)  */
 155:Generated_Source\PSoC4/GLCD.c **** 	GLCD_Data(3);			                    /* Internal resistor ratio - coarse adjustment (0-7)         *
 156:Generated_Source\PSoC4/GLCD.c **** 	
 157:Generated_Source\PSoC4/GLCD.c **** 	GLCD_Command(GLCD_NOP);	        /* nop */
 158:Generated_Source\PSoC4/GLCD.c **** 
 159:Generated_Source\PSoC4/GLCD.c **** 	CyDelay(100);
 160:Generated_Source\PSoC4/GLCD.c **** 
 161:Generated_Source\PSoC4/GLCD.c **** 	GLCD_Command(GLCD_DISPON);	     /*  Display on */
 162:Generated_Source\PSoC4/GLCD.c **** #endif
 163:Generated_Source\PSoC4/GLCD.c **** 
 164:Generated_Source\PSoC4/GLCD.c **** #if(GLCD_Controller == GLCD_PHILIPS) /* Driver is Philips */
 165:Generated_Source\PSoC4/GLCD.c **** 
 166:Generated_Source\PSoC4/GLCD.c **** 	GLCD_Command(GLCD_SLEEPOUT);	 /* Sleep Out          */
 165              		.loc 1 166 0
 166 0026 1120     		movs	r0, #17
 167 0028 FFF7FEFF 		bl	GLCD_Command
 167:Generated_Source\PSoC4/GLCD.c **** 	GLCD_Command(GLCD_BSTRON);       /* Booster voltage on */
 168              		.loc 1 167 0
 169 002c 0320     		movs	r0, #3
 170 002e FFF7FEFF 		bl	GLCD_Command
 168:Generated_Source\PSoC4/GLCD.c **** 	GLCD_Command(GLCD_DISPON);		 /* Display on         */
 171              		.loc 1 168 0
 172 0032 2920     		movs	r0, #41
 173 0034 FFF7FEFF 		bl	GLCD_Command
 169:Generated_Source\PSoC4/GLCD.c **** 	
ARM GAS  C:\Users\sur\AppData\Local\Temp\ccifbkIH.s 			page 7


 170:Generated_Source\PSoC4/GLCD.c **** 	/* 12-bit color pixel format:  */
 171:Generated_Source\PSoC4/GLCD.c **** 	GLCD_Command(GLCD_COLMOD);		 /* Color interface format     */
 174              		.loc 1 171 0
 175 0038 3A20     		movs	r0, #58
 176 003a FFF7FEFF 		bl	GLCD_Command
 172:Generated_Source\PSoC4/GLCD.c **** 	GLCD_Data(0x03);			                 /* 0b011 is 12-bit/pixel mode */
 177              		.loc 1 172 0
 178 003e 0320     		movs	r0, #3
 179 0040 FFF7FEFF 		bl	GLCD_Data
 173:Generated_Source\PSoC4/GLCD.c **** 	
 174:Generated_Source\PSoC4/GLCD.c **** 	GLCD_Command(GLCD_MADCTL);		 /* Memory Access Control      */
 180              		.loc 1 174 0
 181 0044 3620     		movs	r0, #54
 182 0046 FFF7FEFF 		bl	GLCD_Command
 175:Generated_Source\PSoC4/GLCD.c **** 	GLCD_Command(GLCD_SETCONST);     /* Set Contrast               */          
 183              		.loc 1 175 0
 184 004a 2520     		movs	r0, #37
 185 004c FFF7FEFF 		bl	GLCD_Command
 176:Generated_Source\PSoC4/GLCD.c **** 	GLCD_Data(GLCD_CONST_DEFAULT);
 186              		.loc 1 176 0
 187 0050 3020     		movs	r0, #48
 188 0052 FFF7FEFF 		bl	GLCD_Data
 177:Generated_Source\PSoC4/GLCD.c **** 	
 178:Generated_Source\PSoC4/GLCD.c **** 	GLCD_Command(GLCD_NOP);	
 189              		.loc 1 178 0
 190 0056 0020     		movs	r0, #0
 191 0058 FFF7FEFF 		bl	GLCD_Command
 179:Generated_Source\PSoC4/GLCD.c **** #endif
 180:Generated_Source\PSoC4/GLCD.c **** 
 181:Generated_Source\PSoC4/GLCD.c ****   	GLCD_Contrast(60);                           /* Set default contrast  */
 192              		.loc 1 181 0
 193 005c 3C20     		movs	r0, #60
 194 005e FFF7FEFF 		bl	GLCD_Contrast
 182:Generated_Source\PSoC4/GLCD.c ****   	GLCD_Clear(GLCD_BLACK);          /* Clear screen to black */
 195              		.loc 1 182 0
 196 0062 0020     		movs	r0, #0
 197 0064 FFF7FEFF 		bl	GLCD_Clear
 183:Generated_Source\PSoC4/GLCD.c **** }
 198              		.loc 1 183 0
 199 0068 C046     		nop
 200 006a BD46     		mov	sp, r7
 201              		@ sp needed
 202 006c 80BD     		pop	{r7, pc}
 203              		.cfi_endproc
 204              	.LFE2:
 205              		.size	GLCD_Start, .-GLCD_Start
 206 006e C046     		.section	.text.GLCD_Stop,"ax",%progbits
 207              		.align	2
 208              		.global	GLCD_Stop
 209              		.code	16
 210              		.thumb_func
 211              		.type	GLCD_Stop, %function
 212              	GLCD_Stop:
 213              	.LFB3:
 184:Generated_Source\PSoC4/GLCD.c **** 
 185:Generated_Source\PSoC4/GLCD.c **** /*******************************************************************************
 186:Generated_Source\PSoC4/GLCD.c **** * Function Name: GLCD_Stop
ARM GAS  C:\Users\sur\AppData\Local\Temp\ccifbkIH.s 			page 8


 187:Generated_Source\PSoC4/GLCD.c **** ********************************************************************************
 188:Generated_Source\PSoC4/GLCD.c **** *
 189:Generated_Source\PSoC4/GLCD.c **** * Summary:
 190:Generated_Source\PSoC4/GLCD.c **** *  This function clears the LCD to black and turns off the display.  
 191:Generated_Source\PSoC4/GLCD.c **** *
 192:Generated_Source\PSoC4/GLCD.c **** * Parameters:  
 193:Generated_Source\PSoC4/GLCD.c **** *   None:   
 194:Generated_Source\PSoC4/GLCD.c **** *
 195:Generated_Source\PSoC4/GLCD.c **** * Return: 
 196:Generated_Source\PSoC4/GLCD.c **** *  None 
 197:Generated_Source\PSoC4/GLCD.c **** *  
 198:Generated_Source\PSoC4/GLCD.c **** *******************************************************************************/
 199:Generated_Source\PSoC4/GLCD.c **** void GLCD_Stop(void)
 200:Generated_Source\PSoC4/GLCD.c **** {
 214              		.loc 1 200 0
 215              		.cfi_startproc
 216              		@ args = 0, pretend = 0, frame = 0
 217              		@ frame_needed = 1, uses_anonymous_args = 0
 218 0000 80B5     		push	{r7, lr}
 219              		.cfi_def_cfa_offset 8
 220              		.cfi_offset 7, -8
 221              		.cfi_offset 14, -4
 222 0002 00AF     		add	r7, sp, #0
 223              		.cfi_def_cfa_register 7
 201:Generated_Source\PSoC4/GLCD.c ****    GLCD_Clear(GLCD_BLACK);
 224              		.loc 1 201 0
 225 0004 0020     		movs	r0, #0
 226 0006 FFF7FEFF 		bl	GLCD_Clear
 202:Generated_Source\PSoC4/GLCD.c ****    GLCD_Command(GLCD_DISPOFF);
 227              		.loc 1 202 0
 228 000a 2820     		movs	r0, #40
 229 000c FFF7FEFF 		bl	GLCD_Command
 203:Generated_Source\PSoC4/GLCD.c **** }
 230              		.loc 1 203 0
 231 0010 C046     		nop
 232 0012 BD46     		mov	sp, r7
 233              		@ sp needed
 234 0014 80BD     		pop	{r7, pc}
 235              		.cfi_endproc
 236              	.LFE3:
 237              		.size	GLCD_Stop, .-GLCD_Stop
 238 0016 C046     		.section	.text.GLCD_Clear,"ax",%progbits
 239              		.align	2
 240              		.global	GLCD_Clear
 241              		.code	16
 242              		.thumb_func
 243              		.type	GLCD_Clear, %function
 244              	GLCD_Clear:
 245              	.LFB4:
 204:Generated_Source\PSoC4/GLCD.c **** 
 205:Generated_Source\PSoC4/GLCD.c **** /*******************************************************************************
 206:Generated_Source\PSoC4/GLCD.c **** * Function Name: GLCD_Clear
 207:Generated_Source\PSoC4/GLCD.c **** ********************************************************************************
 208:Generated_Source\PSoC4/GLCD.c **** *
 209:Generated_Source\PSoC4/GLCD.c **** * Summary:
 210:Generated_Source\PSoC4/GLCD.c **** *  Clear the display.  
 211:Generated_Source\PSoC4/GLCD.c **** *
ARM GAS  C:\Users\sur\AppData\Local\Temp\ccifbkIH.s 			page 9


 212:Generated_Source\PSoC4/GLCD.c **** * Parameters:  
 213:Generated_Source\PSoC4/GLCD.c **** *  color: Color to clear display with. 
 214:Generated_Source\PSoC4/GLCD.c **** *
 215:Generated_Source\PSoC4/GLCD.c **** * Return: 
 216:Generated_Source\PSoC4/GLCD.c **** *  None 
 217:Generated_Source\PSoC4/GLCD.c **** *  
 218:Generated_Source\PSoC4/GLCD.c **** *******************************************************************************/
 219:Generated_Source\PSoC4/GLCD.c **** void GLCD_Clear(int32 color)
 220:Generated_Source\PSoC4/GLCD.c **** {
 246              		.loc 1 220 0
 247              		.cfi_startproc
 248              		@ args = 0, pretend = 0, frame = 16
 249              		@ frame_needed = 1, uses_anonymous_args = 0
 250 0000 80B5     		push	{r7, lr}
 251              		.cfi_def_cfa_offset 8
 252              		.cfi_offset 7, -8
 253              		.cfi_offset 14, -4
 254 0002 84B0     		sub	sp, sp, #16
 255              		.cfi_def_cfa_offset 24
 256 0004 00AF     		add	r7, sp, #0
 257              		.cfi_def_cfa_register 7
 258 0006 7860     		str	r0, [r7, #4]
 221:Generated_Source\PSoC4/GLCD.c ****     int32 i;
 222:Generated_Source\PSoC4/GLCD.c **** 
 223:Generated_Source\PSoC4/GLCD.c **** 	GLCD_Command(GLCD_PAGEADDR);
 259              		.loc 1 223 0
 260 0008 2B20     		movs	r0, #43
 261 000a FFF7FEFF 		bl	GLCD_Command
 224:Generated_Source\PSoC4/GLCD.c **** 	GLCD_Data(GLCD_MINX);
 262              		.loc 1 224 0
 263 000e 0020     		movs	r0, #0
 264 0010 FFF7FEFF 		bl	GLCD_Data
 225:Generated_Source\PSoC4/GLCD.c **** 	GLCD_Data(GLCD_MAXX);
 265              		.loc 1 225 0
 266 0014 8320     		movs	r0, #131
 267 0016 FFF7FEFF 		bl	GLCD_Data
 226:Generated_Source\PSoC4/GLCD.c **** 
 227:Generated_Source\PSoC4/GLCD.c **** 	GLCD_Command(GLCD_COLADDR);
 268              		.loc 1 227 0
 269 001a 2A20     		movs	r0, #42
 270 001c FFF7FEFF 		bl	GLCD_Command
 228:Generated_Source\PSoC4/GLCD.c **** 	GLCD_Data(GLCD_MINY);
 271              		.loc 1 228 0
 272 0020 0020     		movs	r0, #0
 273 0022 FFF7FEFF 		bl	GLCD_Data
 229:Generated_Source\PSoC4/GLCD.c **** 	GLCD_Data(GLCD_MAXY);
 274              		.loc 1 229 0
 275 0026 8320     		movs	r0, #131
 276 0028 FFF7FEFF 		bl	GLCD_Data
 230:Generated_Source\PSoC4/GLCD.c **** 
 231:Generated_Source\PSoC4/GLCD.c **** 	GLCD_Command(GLCD_RAMWR);
 277              		.loc 1 231 0
 278 002c 2C20     		movs	r0, #44
 279 002e FFF7FEFF 		bl	GLCD_Command
 232:Generated_Source\PSoC4/GLCD.c **** 
 233:Generated_Source\PSoC4/GLCD.c **** 
 234:Generated_Source\PSoC4/GLCD.c **** 	for( i=0; i < (GLCD_MAXX*GLCD_MAXY)/2; i++)
ARM GAS  C:\Users\sur\AppData\Local\Temp\ccifbkIH.s 			page 10


 280              		.loc 1 234 0
 281 0032 0023     		movs	r3, #0
 282 0034 FB60     		str	r3, [r7, #12]
 283 0036 1AE0     		b	.L8
 284              	.L9:
 235:Generated_Source\PSoC4/GLCD.c **** 	{
 236:Generated_Source\PSoC4/GLCD.c **** 		GLCD_Data((color>>4)&0x00FF);
 285              		.loc 1 236 0 discriminator 3
 286 0038 7B68     		ldr	r3, [r7, #4]
 287 003a 1B11     		asrs	r3, r3, #4
 288 003c 1A00     		movs	r2, r3
 289 003e FF23     		movs	r3, #255
 290 0040 1340     		ands	r3, r2
 291 0042 1800     		movs	r0, r3
 292 0044 FFF7FEFF 		bl	GLCD_Data
 237:Generated_Source\PSoC4/GLCD.c **** 		GLCD_Data(((color&0x0F)<<4)|(color>>8));
 293              		.loc 1 237 0 discriminator 3
 294 0048 7B68     		ldr	r3, [r7, #4]
 295 004a 1B01     		lsls	r3, r3, #4
 296 004c FF22     		movs	r2, #255
 297 004e 1A40     		ands	r2, r3
 298 0050 7B68     		ldr	r3, [r7, #4]
 299 0052 1B12     		asrs	r3, r3, #8
 300 0054 1343     		orrs	r3, r2
 301 0056 1800     		movs	r0, r3
 302 0058 FFF7FEFF 		bl	GLCD_Data
 238:Generated_Source\PSoC4/GLCD.c **** 		GLCD_Data(color&0x0FF);
 303              		.loc 1 238 0 discriminator 3
 304 005c 7B68     		ldr	r3, [r7, #4]
 305 005e FF22     		movs	r2, #255
 306 0060 1340     		ands	r3, r2
 307 0062 1800     		movs	r0, r3
 308 0064 FFF7FEFF 		bl	GLCD_Data
 234:Generated_Source\PSoC4/GLCD.c **** 	{
 309              		.loc 1 234 0 discriminator 3
 310 0068 FB68     		ldr	r3, [r7, #12]
 311 006a 0133     		adds	r3, r3, #1
 312 006c FB60     		str	r3, [r7, #12]
 313              	.L8:
 234:Generated_Source\PSoC4/GLCD.c **** 	{
 314              		.loc 1 234 0 is_stmt 0 discriminator 1
 315 006e FB68     		ldr	r3, [r7, #12]
 316 0070 064A     		ldr	r2, .L10
 317 0072 9342     		cmp	r3, r2
 318 0074 E0D9     		bls	.L9
 239:Generated_Source\PSoC4/GLCD.c **** 	}
 240:Generated_Source\PSoC4/GLCD.c **** 
 241:Generated_Source\PSoC4/GLCD.c **** 	GLCD_x_offset = 0;
 319              		.loc 1 241 0 is_stmt 1
 320 0076 064B     		ldr	r3, .L10+4
 321 0078 0022     		movs	r2, #0
 322 007a 1A60     		str	r2, [r3]
 242:Generated_Source\PSoC4/GLCD.c **** 	GLCD_y_offset = 0;
 323              		.loc 1 242 0
 324 007c 054B     		ldr	r3, .L10+8
 325 007e 0022     		movs	r2, #0
 326 0080 1A60     		str	r2, [r3]
ARM GAS  C:\Users\sur\AppData\Local\Temp\ccifbkIH.s 			page 11


 243:Generated_Source\PSoC4/GLCD.c **** }
 327              		.loc 1 243 0
 328 0082 C046     		nop
 329 0084 BD46     		mov	sp, r7
 330 0086 04B0     		add	sp, sp, #16
 331              		@ sp needed
 332 0088 80BD     		pop	{r7, pc}
 333              	.L11:
 334 008a C046     		.align	2
 335              	.L10:
 336 008c 83210000 		.word	8579
 337 0090 00000000 		.word	GLCD_x_offset
 338 0094 04000000 		.word	GLCD_y_offset
 339              		.cfi_endproc
 340              	.LFE4:
 341              		.size	GLCD_Clear, .-GLCD_Clear
 342              		.section	.text.GLCD_Contrast,"ax",%progbits
 343              		.align	2
 344              		.global	GLCD_Contrast
 345              		.code	16
 346              		.thumb_func
 347              		.type	GLCD_Contrast, %function
 348              	GLCD_Contrast:
 349              	.LFB5:
 244:Generated_Source\PSoC4/GLCD.c **** 
 245:Generated_Source\PSoC4/GLCD.c **** 
 246:Generated_Source\PSoC4/GLCD.c **** /*******************************************************************************
 247:Generated_Source\PSoC4/GLCD.c **** * Function Name: GLCD_Contrast
 248:Generated_Source\PSoC4/GLCD.c **** ********************************************************************************
 249:Generated_Source\PSoC4/GLCD.c **** *
 250:Generated_Source\PSoC4/GLCD.c **** * Summary:
 251:Generated_Source\PSoC4/GLCD.c **** *  Set color contrast  
 252:Generated_Source\PSoC4/GLCD.c **** *
 253:Generated_Source\PSoC4/GLCD.c **** * Parameters:  
 254:Generated_Source\PSoC4/GLCD.c **** *  setting: Contrast value.  
 255:Generated_Source\PSoC4/GLCD.c **** *
 256:Generated_Source\PSoC4/GLCD.c **** * Return: 
 257:Generated_Source\PSoC4/GLCD.c **** *  None 
 258:Generated_Source\PSoC4/GLCD.c **** *  
 259:Generated_Source\PSoC4/GLCD.c **** *******************************************************************************/
 260:Generated_Source\PSoC4/GLCD.c **** void GLCD_Contrast(int32 setting)
 261:Generated_Source\PSoC4/GLCD.c **** {
 350              		.loc 1 261 0
 351              		.cfi_startproc
 352              		@ args = 0, pretend = 0, frame = 8
 353              		@ frame_needed = 1, uses_anonymous_args = 0
 354 0000 80B5     		push	{r7, lr}
 355              		.cfi_def_cfa_offset 8
 356              		.cfi_offset 7, -8
 357              		.cfi_offset 14, -4
 358 0002 82B0     		sub	sp, sp, #8
 359              		.cfi_def_cfa_offset 16
 360 0004 00AF     		add	r7, sp, #0
 361              		.cfi_def_cfa_register 7
 362 0006 7860     		str	r0, [r7, #4]
 262:Generated_Source\PSoC4/GLCD.c ****     setting &= GLCD_CONST_MASK;	                /* Mask off contrast value */
 363              		.loc 1 262 0
ARM GAS  C:\Users\sur\AppData\Local\Temp\ccifbkIH.s 			page 12


 364 0008 7B68     		ldr	r3, [r7, #4]
 365 000a 7F22     		movs	r2, #127
 366 000c 1340     		ands	r3, r2
 367 000e 7B60     		str	r3, [r7, #4]
 263:Generated_Source\PSoC4/GLCD.c ****     GLCD_Command(GLCD_SETCONST);	/* Set Contrast            */
 368              		.loc 1 263 0
 369 0010 2520     		movs	r0, #37
 370 0012 FFF7FEFF 		bl	GLCD_Command
 264:Generated_Source\PSoC4/GLCD.c ****     GLCD_Data(setting);	                    
 371              		.loc 1 264 0
 372 0016 7B68     		ldr	r3, [r7, #4]
 373 0018 1800     		movs	r0, r3
 374 001a FFF7FEFF 		bl	GLCD_Data
 265:Generated_Source\PSoC4/GLCD.c **** 
 266:Generated_Source\PSoC4/GLCD.c **** #if(GLCD_Controller == GLCD_EPSON)  /* Only required for Epson */
 267:Generated_Source\PSoC4/GLCD.c ****     GLCD_Data(3);			
 268:Generated_Source\PSoC4/GLCD.c **** #endif
 269:Generated_Source\PSoC4/GLCD.c **** 
 270:Generated_Source\PSoC4/GLCD.c **** }
 375              		.loc 1 270 0
 376 001e C046     		nop
 377 0020 BD46     		mov	sp, r7
 378 0022 02B0     		add	sp, sp, #8
 379              		@ sp needed
 380 0024 80BD     		pop	{r7, pc}
 381              		.cfi_endproc
 382              	.LFE5:
 383              		.size	GLCD_Contrast, .-GLCD_Contrast
 384 0026 C046     		.section	.text.GLCD_SwapColors,"ax",%progbits
 385              		.align	2
 386              		.global	GLCD_SwapColors
 387              		.code	16
 388              		.thumb_func
 389              		.type	GLCD_SwapColors, %function
 390              	GLCD_SwapColors:
 391              	.LFB6:
 271:Generated_Source\PSoC4/GLCD.c **** 
 272:Generated_Source\PSoC4/GLCD.c **** /*******************************************************************************
 273:Generated_Source\PSoC4/GLCD.c **** * Function Name: GLCD_SwapColors
 274:Generated_Source\PSoC4/GLCD.c **** ********************************************************************************
 275:Generated_Source\PSoC4/GLCD.c **** *
 276:Generated_Source\PSoC4/GLCD.c **** * Summary:
 277:Generated_Source\PSoC4/GLCD.c **** *   Swaps colors between Epson and Philips mode.  
 278:Generated_Source\PSoC4/GLCD.c **** *
 279:Generated_Source\PSoC4/GLCD.c **** * Parameters:  
 280:Generated_Source\PSoC4/GLCD.c **** *  prtValue:  The value  
 281:Generated_Source\PSoC4/GLCD.c **** *
 282:Generated_Source\PSoC4/GLCD.c **** * Return: 
 283:Generated_Source\PSoC4/GLCD.c **** *  None 
 284:Generated_Source\PSoC4/GLCD.c **** *  Added by Steve Sparks @ Big Nerd Ranch.
 285:Generated_Source\PSoC4/GLCD.c **** *  This swaps the Epson RGB order into the Philips RGB order. (Or, vice versa, I suppose.)
 286:Generated_Source\PSoC4/GLCD.c **** *******************************************************************************/
 287:Generated_Source\PSoC4/GLCD.c **** int32 GLCD_SwapColors(int32 in)
 288:Generated_Source\PSoC4/GLCD.c **** {
 392              		.loc 1 288 0
 393              		.cfi_startproc
 394              		@ args = 0, pretend = 0, frame = 8
ARM GAS  C:\Users\sur\AppData\Local\Temp\ccifbkIH.s 			page 13


 395              		@ frame_needed = 1, uses_anonymous_args = 0
 396 0000 80B5     		push	{r7, lr}
 397              		.cfi_def_cfa_offset 8
 398              		.cfi_offset 7, -8
 399              		.cfi_offset 14, -4
 400 0002 82B0     		sub	sp, sp, #8
 401              		.cfi_def_cfa_offset 16
 402 0004 00AF     		add	r7, sp, #0
 403              		.cfi_def_cfa_register 7
 404 0006 7860     		str	r0, [r7, #4]
 289:Generated_Source\PSoC4/GLCD.c ****     return ((in & 0x000F)<<8)|(in & 0x00F0)|((in & 0x0F00)>>8);
 405              		.loc 1 289 0
 406 0008 7B68     		ldr	r3, [r7, #4]
 407 000a 1A02     		lsls	r2, r3, #8
 408 000c F023     		movs	r3, #240
 409 000e 1B01     		lsls	r3, r3, #4
 410 0010 1A40     		ands	r2, r3
 411 0012 7B68     		ldr	r3, [r7, #4]
 412 0014 F021     		movs	r1, #240
 413 0016 0B40     		ands	r3, r1
 414 0018 1A43     		orrs	r2, r3
 415 001a 7B68     		ldr	r3, [r7, #4]
 416 001c 1B12     		asrs	r3, r3, #8
 417 001e 0F21     		movs	r1, #15
 418 0020 0B40     		ands	r3, r1
 419 0022 1343     		orrs	r3, r2
 290:Generated_Source\PSoC4/GLCD.c **** }
 420              		.loc 1 290 0
 421 0024 1800     		movs	r0, r3
 422 0026 BD46     		mov	sp, r7
 423 0028 02B0     		add	sp, sp, #8
 424              		@ sp needed
 425 002a 80BD     		pop	{r7, pc}
 426              		.cfi_endproc
 427              	.LFE6:
 428              		.size	GLCD_SwapColors, .-GLCD_SwapColors
 429              		.section	.text.GLCD_Pixel,"ax",%progbits
 430              		.align	2
 431              		.global	GLCD_Pixel
 432              		.code	16
 433              		.thumb_func
 434              		.type	GLCD_Pixel, %function
 435              	GLCD_Pixel:
 436              	.LFB7:
 291:Generated_Source\PSoC4/GLCD.c **** /*******************************************************************************
 292:Generated_Source\PSoC4/GLCD.c **** * Function Name: GLCD_Pixel
 293:Generated_Source\PSoC4/GLCD.c **** ********************************************************************************
 294:Generated_Source\PSoC4/GLCD.c **** *
 295:Generated_Source\PSoC4/GLCD.c **** * Summary:
 296:Generated_Source\PSoC4/GLCD.c **** *  Draw Pixel  
 297:Generated_Source\PSoC4/GLCD.c **** *
 298:Generated_Source\PSoC4/GLCD.c **** * Parameters:  
 299:Generated_Source\PSoC4/GLCD.c **** *  x,y:    Location to draw the pixel
 300:Generated_Source\PSoC4/GLCD.c **** *  color:  Color of the pixel
 301:Generated_Source\PSoC4/GLCD.c **** *
 302:Generated_Source\PSoC4/GLCD.c **** * Return: 
 303:Generated_Source\PSoC4/GLCD.c **** *  None 
ARM GAS  C:\Users\sur\AppData\Local\Temp\ccifbkIH.s 			page 14


 304:Generated_Source\PSoC4/GLCD.c **** *******************************************************************************/
 305:Generated_Source\PSoC4/GLCD.c **** void GLCD_Pixel(int32 x, int32 y, int32 color)
 306:Generated_Source\PSoC4/GLCD.c **** {
 437              		.loc 1 306 0
 438              		.cfi_startproc
 439              		@ args = 0, pretend = 0, frame = 16
 440              		@ frame_needed = 1, uses_anonymous_args = 0
 441 0000 80B5     		push	{r7, lr}
 442              		.cfi_def_cfa_offset 8
 443              		.cfi_offset 7, -8
 444              		.cfi_offset 14, -4
 445 0002 84B0     		sub	sp, sp, #16
 446              		.cfi_def_cfa_offset 24
 447 0004 00AF     		add	r7, sp, #0
 448              		.cfi_def_cfa_register 7
 449 0006 F860     		str	r0, [r7, #12]
 450 0008 B960     		str	r1, [r7, #8]
 451 000a 7A60     		str	r2, [r7, #4]
 307:Generated_Source\PSoC4/GLCD.c ****     y =	(GLCD_COL_HEIGHT - 1) - y;
 452              		.loc 1 307 0
 453 000c BB68     		ldr	r3, [r7, #8]
 454 000e 8322     		movs	r2, #131
 455 0010 D31A     		subs	r3, r2, r3
 456 0012 BB60     		str	r3, [r7, #8]
 308:Generated_Source\PSoC4/GLCD.c ****     x = (GLCD_ROW_LENGTH - 1) - x;
 457              		.loc 1 308 0
 458 0014 FB68     		ldr	r3, [r7, #12]
 459 0016 8322     		movs	r2, #131
 460 0018 D31A     		subs	r3, r2, r3
 461 001a FB60     		str	r3, [r7, #12]
 309:Generated_Source\PSoC4/GLCD.c **** 
 310:Generated_Source\PSoC4/GLCD.c **** #if (GLCD_Controller == GLCD_EPSON) /* EPSON     */
 311:Generated_Source\PSoC4/GLCD.c **** 	GLCD_Command(GLCD_PAGEADDR);    /* Set page  */
 312:Generated_Source\PSoC4/GLCD.c **** 	GLCD_Data(x);
 313:Generated_Source\PSoC4/GLCD.c **** 	GLCD_Data(GLCD_ENDPAGE);
 314:Generated_Source\PSoC4/GLCD.c **** 
 315:Generated_Source\PSoC4/GLCD.c **** 	GLCD_Command(GLCD_COLADDR);     /* Set column */
 316:Generated_Source\PSoC4/GLCD.c **** 	GLCD_Data(y);
 317:Generated_Source\PSoC4/GLCD.c **** 	GLCD_Data(GLCD_ENDCOL);
 318:Generated_Source\PSoC4/GLCD.c **** 
 319:Generated_Source\PSoC4/GLCD.c **** 	GLCD_Command(GLCD_RAMWR);       /* Write color data */
 320:Generated_Source\PSoC4/GLCD.c **** 	GLCD_Data((color>>4)&0x00FF);
 321:Generated_Source\PSoC4/GLCD.c **** 	GLCD_Data(((color&0x0F)<<4)|(color>>8));
 322:Generated_Source\PSoC4/GLCD.c **** 	GLCD_Data(color&0x0FF);
 323:Generated_Source\PSoC4/GLCD.c **** #endif
 324:Generated_Source\PSoC4/GLCD.c **** 
 325:Generated_Source\PSoC4/GLCD.c **** #if (GLCD_Controller == GLCD_PHILIPS) /* PHILIPS   */
 326:Generated_Source\PSoC4/GLCD.c **** 	GLCD_Command(GLCD_PAGEADDR);      /* Set page  */
 462              		.loc 1 326 0
 463 001c 2B20     		movs	r0, #43
 464 001e FFF7FEFF 		bl	GLCD_Command
 327:Generated_Source\PSoC4/GLCD.c **** 	GLCD_Data((uint8)x);
 465              		.loc 1 327 0
 466 0022 FB68     		ldr	r3, [r7, #12]
 467 0024 FF22     		movs	r2, #255
 468 0026 1340     		ands	r3, r2
 469 0028 1800     		movs	r0, r3
ARM GAS  C:\Users\sur\AppData\Local\Temp\ccifbkIH.s 			page 15


 470 002a FFF7FEFF 		bl	GLCD_Data
 328:Generated_Source\PSoC4/GLCD.c **** 	GLCD_Data((uint8)x);
 471              		.loc 1 328 0
 472 002e FB68     		ldr	r3, [r7, #12]
 473 0030 FF22     		movs	r2, #255
 474 0032 1340     		ands	r3, r2
 475 0034 1800     		movs	r0, r3
 476 0036 FFF7FEFF 		bl	GLCD_Data
 329:Generated_Source\PSoC4/GLCD.c **** 
 330:Generated_Source\PSoC4/GLCD.c **** 	GLCD_Command(GLCD_COLADDR);       /* Set column */
 477              		.loc 1 330 0
 478 003a 2A20     		movs	r0, #42
 479 003c FFF7FEFF 		bl	GLCD_Command
 331:Generated_Source\PSoC4/GLCD.c **** 	GLCD_Data((uint8)y);
 480              		.loc 1 331 0
 481 0040 BB68     		ldr	r3, [r7, #8]
 482 0042 FF22     		movs	r2, #255
 483 0044 1340     		ands	r3, r2
 484 0046 1800     		movs	r0, r3
 485 0048 FFF7FEFF 		bl	GLCD_Data
 332:Generated_Source\PSoC4/GLCD.c **** 	GLCD_Data((uint8)y);
 486              		.loc 1 332 0
 487 004c BB68     		ldr	r3, [r7, #8]
 488 004e FF22     		movs	r2, #255
 489 0050 1340     		ands	r3, r2
 490 0052 1800     		movs	r0, r3
 491 0054 FFF7FEFF 		bl	GLCD_Data
 333:Generated_Source\PSoC4/GLCD.c **** 
 334:Generated_Source\PSoC4/GLCD.c **** 	GLCD_Command(GLCD_RAMWR);         /* Write color data */
 492              		.loc 1 334 0
 493 0058 2C20     		movs	r0, #44
 494 005a FFF7FEFF 		bl	GLCD_Command
 335:Generated_Source\PSoC4/GLCD.c **** 	GLCD_Data((uint8)((color>>4)&0x00FF));
 495              		.loc 1 335 0
 496 005e 7B68     		ldr	r3, [r7, #4]
 497 0060 1B11     		asrs	r3, r3, #4
 498 0062 1A00     		movs	r2, r3
 499 0064 FF23     		movs	r3, #255
 500 0066 1340     		ands	r3, r2
 501 0068 1800     		movs	r0, r3
 502 006a FFF7FEFF 		bl	GLCD_Data
 336:Generated_Source\PSoC4/GLCD.c **** 	GLCD_Data((uint8)(((color&0x0F)<<4)|0x00));
 503              		.loc 1 336 0
 504 006e 7B68     		ldr	r3, [r7, #4]
 505 0070 1B01     		lsls	r3, r3, #4
 506 0072 1A00     		movs	r2, r3
 507 0074 FF23     		movs	r3, #255
 508 0076 1340     		ands	r3, r2
 509 0078 1800     		movs	r0, r3
 510 007a FFF7FEFF 		bl	GLCD_Data
 337:Generated_Source\PSoC4/GLCD.c **** #endif
 338:Generated_Source\PSoC4/GLCD.c **** }
 511              		.loc 1 338 0
 512 007e C046     		nop
 513 0080 BD46     		mov	sp, r7
 514 0082 04B0     		add	sp, sp, #16
 515              		@ sp needed
ARM GAS  C:\Users\sur\AppData\Local\Temp\ccifbkIH.s 			page 16


 516 0084 80BD     		pop	{r7, pc}
 517              		.cfi_endproc
 518              	.LFE7:
 519              		.size	GLCD_Pixel, .-GLCD_Pixel
 520 0086 C046     		.section	.text.GLCD_DrawCircle,"ax",%progbits
 521              		.align	2
 522              		.global	GLCD_DrawCircle
 523              		.code	16
 524              		.thumb_func
 525              		.type	GLCD_DrawCircle, %function
 526              	GLCD_DrawCircle:
 527              	.LFB8:
 339:Generated_Source\PSoC4/GLCD.c **** 
 340:Generated_Source\PSoC4/GLCD.c **** /*******************************************************************************
 341:Generated_Source\PSoC4/GLCD.c **** * Function Name: GLCD_DrawCircle
 342:Generated_Source\PSoC4/GLCD.c **** ********************************************************************************
 343:Generated_Source\PSoC4/GLCD.c **** *
 344:Generated_Source\PSoC4/GLCD.c **** * Summary:
 345:Generated_Source\PSoC4/GLCD.c **** *  Draw a circle on the display given a start point and radius.  
 346:Generated_Source\PSoC4/GLCD.c **** *
 347:Generated_Source\PSoC4/GLCD.c **** *  This code uses Bresenham's Circle Algorithm. 
 348:Generated_Source\PSoC4/GLCD.c **** *
 349:Generated_Source\PSoC4/GLCD.c **** * Parameters:  
 350:Generated_Source\PSoC4/GLCD.c **** *  x0, y0: Center of circle
 351:Generated_Source\PSoC4/GLCD.c **** *  radius: Radius of circle
 352:Generated_Source\PSoC4/GLCD.c **** *  color:  Color of circle
 353:Generated_Source\PSoC4/GLCD.c **** *
 354:Generated_Source\PSoC4/GLCD.c **** * Return: 
 355:Generated_Source\PSoC4/GLCD.c **** *  None 
 356:Generated_Source\PSoC4/GLCD.c **** *  
 357:Generated_Source\PSoC4/GLCD.c **** *******************************************************************************/
 358:Generated_Source\PSoC4/GLCD.c **** void GLCD_DrawCircle (int32 x0, int32 y0, int32 radius, int32 color)
 359:Generated_Source\PSoC4/GLCD.c **** {
 528              		.loc 1 359 0
 529              		.cfi_startproc
 530              		@ args = 0, pretend = 0, frame = 40
 531              		@ frame_needed = 1, uses_anonymous_args = 0
 532 0000 80B5     		push	{r7, lr}
 533              		.cfi_def_cfa_offset 8
 534              		.cfi_offset 7, -8
 535              		.cfi_offset 14, -4
 536 0002 8AB0     		sub	sp, sp, #40
 537              		.cfi_def_cfa_offset 48
 538 0004 00AF     		add	r7, sp, #0
 539              		.cfi_def_cfa_register 7
 540 0006 F860     		str	r0, [r7, #12]
 541 0008 B960     		str	r1, [r7, #8]
 542 000a 7A60     		str	r2, [r7, #4]
 543 000c 3B60     		str	r3, [r7]
 360:Generated_Source\PSoC4/GLCD.c **** 	int32 f = 1 - radius;
 544              		.loc 1 360 0
 545 000e 7B68     		ldr	r3, [r7, #4]
 546 0010 0122     		movs	r2, #1
 547 0012 D31A     		subs	r3, r2, r3
 548 0014 7B62     		str	r3, [r7, #36]
 361:Generated_Source\PSoC4/GLCD.c **** 	int32 ddF_x = 0;
 549              		.loc 1 361 0
ARM GAS  C:\Users\sur\AppData\Local\Temp\ccifbkIH.s 			page 17


 550 0016 0023     		movs	r3, #0
 551 0018 3B62     		str	r3, [r7, #32]
 362:Generated_Source\PSoC4/GLCD.c **** 	int32 ddF_y = -2 * radius;
 552              		.loc 1 362 0
 553 001a 7A68     		ldr	r2, [r7, #4]
 554 001c 1300     		movs	r3, r2
 555 001e DB07     		lsls	r3, r3, #31
 556 0020 9B1A     		subs	r3, r3, r2
 557 0022 5B00     		lsls	r3, r3, #1
 558 0024 FB61     		str	r3, [r7, #28]
 363:Generated_Source\PSoC4/GLCD.c **** 	int32 x = 0;
 559              		.loc 1 363 0
 560 0026 0023     		movs	r3, #0
 561 0028 BB61     		str	r3, [r7, #24]
 364:Generated_Source\PSoC4/GLCD.c **** 	int32 y = radius;
 562              		.loc 1 364 0
 563 002a 7B68     		ldr	r3, [r7, #4]
 564 002c 7B61     		str	r3, [r7, #20]
 365:Generated_Source\PSoC4/GLCD.c **** 
 366:Generated_Source\PSoC4/GLCD.c **** 	GLCD_Pixel(x0, y0 + radius, color);
 565              		.loc 1 366 0
 566 002e BA68     		ldr	r2, [r7, #8]
 567 0030 7B68     		ldr	r3, [r7, #4]
 568 0032 D118     		adds	r1, r2, r3
 569 0034 3A68     		ldr	r2, [r7]
 570 0036 FB68     		ldr	r3, [r7, #12]
 571 0038 1800     		movs	r0, r3
 572 003a FFF7FEFF 		bl	GLCD_Pixel
 367:Generated_Source\PSoC4/GLCD.c **** 	GLCD_Pixel(x0, y0 - radius, color);
 573              		.loc 1 367 0
 574 003e BA68     		ldr	r2, [r7, #8]
 575 0040 7B68     		ldr	r3, [r7, #4]
 576 0042 D11A     		subs	r1, r2, r3
 577 0044 3A68     		ldr	r2, [r7]
 578 0046 FB68     		ldr	r3, [r7, #12]
 579 0048 1800     		movs	r0, r3
 580 004a FFF7FEFF 		bl	GLCD_Pixel
 368:Generated_Source\PSoC4/GLCD.c **** 	GLCD_Pixel( x0 + radius, y0, color);
 581              		.loc 1 368 0
 582 004e FA68     		ldr	r2, [r7, #12]
 583 0050 7B68     		ldr	r3, [r7, #4]
 584 0052 D318     		adds	r3, r2, r3
 585 0054 3A68     		ldr	r2, [r7]
 586 0056 B968     		ldr	r1, [r7, #8]
 587 0058 1800     		movs	r0, r3
 588 005a FFF7FEFF 		bl	GLCD_Pixel
 369:Generated_Source\PSoC4/GLCD.c **** 	GLCD_Pixel( x0 - radius, y0, color);
 589              		.loc 1 369 0
 590 005e FA68     		ldr	r2, [r7, #12]
 591 0060 7B68     		ldr	r3, [r7, #4]
 592 0062 D31A     		subs	r3, r2, r3
 593 0064 3A68     		ldr	r2, [r7]
 594 0066 B968     		ldr	r1, [r7, #8]
 595 0068 1800     		movs	r0, r3
 596 006a FFF7FEFF 		bl	GLCD_Pixel
 370:Generated_Source\PSoC4/GLCD.c **** 
 371:Generated_Source\PSoC4/GLCD.c **** 	while(x < y)
ARM GAS  C:\Users\sur\AppData\Local\Temp\ccifbkIH.s 			page 18


 597              		.loc 1 371 0
 598 006e 67E0     		b	.L17
 599              	.L19:
 372:Generated_Source\PSoC4/GLCD.c **** 	{
 373:Generated_Source\PSoC4/GLCD.c **** 		if(f >= 0)
 600              		.loc 1 373 0
 601 0070 7B6A     		ldr	r3, [r7, #36]
 602 0072 002B     		cmp	r3, #0
 603 0074 09DB     		blt	.L18
 374:Generated_Source\PSoC4/GLCD.c **** 		{
 375:Generated_Source\PSoC4/GLCD.c **** 			y--;
 604              		.loc 1 375 0
 605 0076 7B69     		ldr	r3, [r7, #20]
 606 0078 013B     		subs	r3, r3, #1
 607 007a 7B61     		str	r3, [r7, #20]
 376:Generated_Source\PSoC4/GLCD.c **** 			ddF_y += 2;
 608              		.loc 1 376 0
 609 007c FB69     		ldr	r3, [r7, #28]
 610 007e 0233     		adds	r3, r3, #2
 611 0080 FB61     		str	r3, [r7, #28]
 377:Generated_Source\PSoC4/GLCD.c **** 			f += ddF_y;
 612              		.loc 1 377 0
 613 0082 7A6A     		ldr	r2, [r7, #36]
 614 0084 FB69     		ldr	r3, [r7, #28]
 615 0086 D318     		adds	r3, r2, r3
 616 0088 7B62     		str	r3, [r7, #36]
 617              	.L18:
 378:Generated_Source\PSoC4/GLCD.c **** 		}
 379:Generated_Source\PSoC4/GLCD.c **** 		x++;
 618              		.loc 1 379 0
 619 008a BB69     		ldr	r3, [r7, #24]
 620 008c 0133     		adds	r3, r3, #1
 621 008e BB61     		str	r3, [r7, #24]
 380:Generated_Source\PSoC4/GLCD.c **** 		ddF_x += 2;
 622              		.loc 1 380 0
 623 0090 3B6A     		ldr	r3, [r7, #32]
 624 0092 0233     		adds	r3, r3, #2
 625 0094 3B62     		str	r3, [r7, #32]
 381:Generated_Source\PSoC4/GLCD.c **** 		f += ddF_x + 1;
 626              		.loc 1 381 0
 627 0096 3B6A     		ldr	r3, [r7, #32]
 628 0098 0133     		adds	r3, r3, #1
 629 009a 7A6A     		ldr	r2, [r7, #36]
 630 009c D318     		adds	r3, r2, r3
 631 009e 7B62     		str	r3, [r7, #36]
 382:Generated_Source\PSoC4/GLCD.c **** 
 383:Generated_Source\PSoC4/GLCD.c **** 		GLCD_Pixel(x0 + x, y0 + y, color);
 632              		.loc 1 383 0
 633 00a0 FA68     		ldr	r2, [r7, #12]
 634 00a2 BB69     		ldr	r3, [r7, #24]
 635 00a4 D018     		adds	r0, r2, r3
 636 00a6 BA68     		ldr	r2, [r7, #8]
 637 00a8 7B69     		ldr	r3, [r7, #20]
 638 00aa D318     		adds	r3, r2, r3
 639 00ac 3A68     		ldr	r2, [r7]
 640 00ae 1900     		movs	r1, r3
 641 00b0 FFF7FEFF 		bl	GLCD_Pixel
ARM GAS  C:\Users\sur\AppData\Local\Temp\ccifbkIH.s 			page 19


 384:Generated_Source\PSoC4/GLCD.c **** 		GLCD_Pixel(x0 - x, y0 + y, color);
 642              		.loc 1 384 0
 643 00b4 FA68     		ldr	r2, [r7, #12]
 644 00b6 BB69     		ldr	r3, [r7, #24]
 645 00b8 D01A     		subs	r0, r2, r3
 646 00ba BA68     		ldr	r2, [r7, #8]
 647 00bc 7B69     		ldr	r3, [r7, #20]
 648 00be D318     		adds	r3, r2, r3
 649 00c0 3A68     		ldr	r2, [r7]
 650 00c2 1900     		movs	r1, r3
 651 00c4 FFF7FEFF 		bl	GLCD_Pixel
 385:Generated_Source\PSoC4/GLCD.c **** 		GLCD_Pixel( x0 + x, y0 - y, color);
 652              		.loc 1 385 0
 653 00c8 FA68     		ldr	r2, [r7, #12]
 654 00ca BB69     		ldr	r3, [r7, #24]
 655 00cc D018     		adds	r0, r2, r3
 656 00ce BA68     		ldr	r2, [r7, #8]
 657 00d0 7B69     		ldr	r3, [r7, #20]
 658 00d2 D31A     		subs	r3, r2, r3
 659 00d4 3A68     		ldr	r2, [r7]
 660 00d6 1900     		movs	r1, r3
 661 00d8 FFF7FEFF 		bl	GLCD_Pixel
 386:Generated_Source\PSoC4/GLCD.c **** 		GLCD_Pixel( x0 - x, y0 - y, color);
 662              		.loc 1 386 0
 663 00dc FA68     		ldr	r2, [r7, #12]
 664 00de BB69     		ldr	r3, [r7, #24]
 665 00e0 D01A     		subs	r0, r2, r3
 666 00e2 BA68     		ldr	r2, [r7, #8]
 667 00e4 7B69     		ldr	r3, [r7, #20]
 668 00e6 D31A     		subs	r3, r2, r3
 669 00e8 3A68     		ldr	r2, [r7]
 670 00ea 1900     		movs	r1, r3
 671 00ec FFF7FEFF 		bl	GLCD_Pixel
 387:Generated_Source\PSoC4/GLCD.c **** 		GLCD_Pixel( x0 + y, y0 + x, color);
 672              		.loc 1 387 0
 673 00f0 FA68     		ldr	r2, [r7, #12]
 674 00f2 7B69     		ldr	r3, [r7, #20]
 675 00f4 D018     		adds	r0, r2, r3
 676 00f6 BA68     		ldr	r2, [r7, #8]
 677 00f8 BB69     		ldr	r3, [r7, #24]
 678 00fa D318     		adds	r3, r2, r3
 679 00fc 3A68     		ldr	r2, [r7]
 680 00fe 1900     		movs	r1, r3
 681 0100 FFF7FEFF 		bl	GLCD_Pixel
 388:Generated_Source\PSoC4/GLCD.c **** 		GLCD_Pixel( x0 - y, y0 + x, color);
 682              		.loc 1 388 0
 683 0104 FA68     		ldr	r2, [r7, #12]
 684 0106 7B69     		ldr	r3, [r7, #20]
 685 0108 D01A     		subs	r0, r2, r3
 686 010a BA68     		ldr	r2, [r7, #8]
 687 010c BB69     		ldr	r3, [r7, #24]
 688 010e D318     		adds	r3, r2, r3
 689 0110 3A68     		ldr	r2, [r7]
 690 0112 1900     		movs	r1, r3
 691 0114 FFF7FEFF 		bl	GLCD_Pixel
 389:Generated_Source\PSoC4/GLCD.c **** 		GLCD_Pixel( x0 + y, y0 - x, color);
 692              		.loc 1 389 0
ARM GAS  C:\Users\sur\AppData\Local\Temp\ccifbkIH.s 			page 20


 693 0118 FA68     		ldr	r2, [r7, #12]
 694 011a 7B69     		ldr	r3, [r7, #20]
 695 011c D018     		adds	r0, r2, r3
 696 011e BA68     		ldr	r2, [r7, #8]
 697 0120 BB69     		ldr	r3, [r7, #24]
 698 0122 D31A     		subs	r3, r2, r3
 699 0124 3A68     		ldr	r2, [r7]
 700 0126 1900     		movs	r1, r3
 701 0128 FFF7FEFF 		bl	GLCD_Pixel
 390:Generated_Source\PSoC4/GLCD.c **** 		GLCD_Pixel( x0 - y, y0 - x, color);
 702              		.loc 1 390 0
 703 012c FA68     		ldr	r2, [r7, #12]
 704 012e 7B69     		ldr	r3, [r7, #20]
 705 0130 D01A     		subs	r0, r2, r3
 706 0132 BA68     		ldr	r2, [r7, #8]
 707 0134 BB69     		ldr	r3, [r7, #24]
 708 0136 D31A     		subs	r3, r2, r3
 709 0138 3A68     		ldr	r2, [r7]
 710 013a 1900     		movs	r1, r3
 711 013c FFF7FEFF 		bl	GLCD_Pixel
 712              	.L17:
 371:Generated_Source\PSoC4/GLCD.c **** 	{
 713              		.loc 1 371 0
 714 0140 BA69     		ldr	r2, [r7, #24]
 715 0142 7B69     		ldr	r3, [r7, #20]
 716 0144 9A42     		cmp	r2, r3
 717 0146 93DB     		blt	.L19
 391:Generated_Source\PSoC4/GLCD.c **** 	}
 392:Generated_Source\PSoC4/GLCD.c **** }
 718              		.loc 1 392 0
 719 0148 C046     		nop
 720 014a BD46     		mov	sp, r7
 721 014c 0AB0     		add	sp, sp, #40
 722              		@ sp needed
 723 014e 80BD     		pop	{r7, pc}
 724              		.cfi_endproc
 725              	.LFE8:
 726              		.size	GLCD_DrawCircle, .-GLCD_DrawCircle
 727              		.section	.text.GLCD_PrintChar,"ax",%progbits
 728              		.align	2
 729              		.global	GLCD_PrintChar
 730              		.code	16
 731              		.thumb_func
 732              		.type	GLCD_PrintChar, %function
 733              	GLCD_PrintChar:
 734              	.LFB9:
 393:Generated_Source\PSoC4/GLCD.c **** 
 394:Generated_Source\PSoC4/GLCD.c **** /*******************************************************************************
 395:Generated_Source\PSoC4/GLCD.c **** * Function Name: GLCD_PrintChar
 396:Generated_Source\PSoC4/GLCD.c **** ********************************************************************************
 397:Generated_Source\PSoC4/GLCD.c **** *
 398:Generated_Source\PSoC4/GLCD.c **** * Summary:
 399:Generated_Source\PSoC4/GLCD.c **** *  Print a character on the display.  
 400:Generated_Source\PSoC4/GLCD.c **** *
 401:Generated_Source\PSoC4/GLCD.c **** * Parameters:  
 402:Generated_Source\PSoC4/GLCD.c **** *  c:       ASCII character to be printed
 403:Generated_Source\PSoC4/GLCD.c **** *  x,y:     Location where character will be printed.
ARM GAS  C:\Users\sur\AppData\Local\Temp\ccifbkIH.s 			page 21


 404:Generated_Source\PSoC4/GLCD.c **** *  fColor:  Foreground color
 405:Generated_Source\PSoC4/GLCD.c **** *  bColor:  Background color
 406:Generated_Source\PSoC4/GLCD.c **** *
 407:Generated_Source\PSoC4/GLCD.c **** * Return: 
 408:Generated_Source\PSoC4/GLCD.c **** *  None 
 409:Generated_Source\PSoC4/GLCD.c **** *  
 410:Generated_Source\PSoC4/GLCD.c **** *******************************************************************************/
 411:Generated_Source\PSoC4/GLCD.c **** void GLCD_PrintChar(uint8 c, int32 x, int32 y, int32 fColor, int32 bColor)
 412:Generated_Source\PSoC4/GLCD.c **** {
 735              		.loc 1 412 0
 736              		.cfi_startproc
 737              		@ args = 4, pretend = 0, frame = 64
 738              		@ frame_needed = 1, uses_anonymous_args = 0
 739 0000 80B5     		push	{r7, lr}
 740              		.cfi_def_cfa_offset 8
 741              		.cfi_offset 7, -8
 742              		.cfi_offset 14, -4
 743 0002 90B0     		sub	sp, sp, #64
 744              		.cfi_def_cfa_offset 72
 745 0004 00AF     		add	r7, sp, #0
 746              		.cfi_def_cfa_register 7
 747 0006 B960     		str	r1, [r7, #8]
 748 0008 7A60     		str	r2, [r7, #4]
 749 000a 3B60     		str	r3, [r7]
 750 000c 0F23     		movs	r3, #15
 751 000e FB18     		adds	r3, r7, r3
 752 0010 021C     		adds	r2, r0, #0
 753 0012 1A70     		strb	r2, [r3]
 413:Generated_Source\PSoC4/GLCD.c **** 	y	=	(GLCD_COL_HEIGHT - 1) - y; /* make display "right" side up */
 754              		.loc 1 413 0
 755 0014 7B68     		ldr	r3, [r7, #4]
 756 0016 8322     		movs	r2, #131
 757 0018 D31A     		subs	r3, r2, r3
 758 001a 7B60     		str	r3, [r7, #4]
 414:Generated_Source\PSoC4/GLCD.c **** 	x	=	(GLCD_ROW_LENGTH - 2) - x;
 759              		.loc 1 414 0
 760 001c BB68     		ldr	r3, [r7, #8]
 761 001e 8222     		movs	r2, #130
 762 0020 D31A     		subs	r3, r2, r3
 763 0022 BB60     		str	r3, [r7, #8]
 415:Generated_Source\PSoC4/GLCD.c **** 
 416:Generated_Source\PSoC4/GLCD.c **** 	int32             i,j;
 417:Generated_Source\PSoC4/GLCD.c **** 	int32    nCols;
 418:Generated_Source\PSoC4/GLCD.c **** 	int32    nRows;
 419:Generated_Source\PSoC4/GLCD.c **** 	int32    nBytes;
 420:Generated_Source\PSoC4/GLCD.c **** 	uint8    PixelRow;
 421:Generated_Source\PSoC4/GLCD.c **** 	uint8    Mask;
 422:Generated_Source\PSoC4/GLCD.c **** 	int32    Word0;
 423:Generated_Source\PSoC4/GLCD.c **** 	int32    Word1;
 424:Generated_Source\PSoC4/GLCD.c **** 	uint8   *pFont;
 425:Generated_Source\PSoC4/GLCD.c **** 	uint8   *pChar;
 426:Generated_Source\PSoC4/GLCD.c **** 
 427:Generated_Source\PSoC4/GLCD.c **** 	/* Get pointer to the beginning of the selected font table  */
 428:Generated_Source\PSoC4/GLCD.c **** 	pFont = (uint8 *)GLCD_FONT8x16;
 764              		.loc 1 428 0
 765 0024 594B     		ldr	r3, .L29
 766 0026 7B62     		str	r3, [r7, #36]
ARM GAS  C:\Users\sur\AppData\Local\Temp\ccifbkIH.s 			page 22


 429:Generated_Source\PSoC4/GLCD.c **** 	
 430:Generated_Source\PSoC4/GLCD.c **** 	/* Get the nColumns, nRows and nBytes.                      */
 431:Generated_Source\PSoC4/GLCD.c **** 	nCols = *pFont;
 767              		.loc 1 431 0
 768 0028 7B6A     		ldr	r3, [r7, #36]
 769 002a 1B78     		ldrb	r3, [r3]
 770 002c 3B62     		str	r3, [r7, #32]
 432:Generated_Source\PSoC4/GLCD.c **** 	nRows = *(pFont + 1);
 771              		.loc 1 432 0
 772 002e 7B6A     		ldr	r3, [r7, #36]
 773 0030 0133     		adds	r3, r3, #1
 774 0032 1B78     		ldrb	r3, [r3]
 775 0034 FB61     		str	r3, [r7, #28]
 433:Generated_Source\PSoC4/GLCD.c **** 	nBytes = *(pFont + 2);
 776              		.loc 1 433 0
 777 0036 7B6A     		ldr	r3, [r7, #36]
 778 0038 0233     		adds	r3, r3, #2
 779 003a 1B78     		ldrb	r3, [r3]
 780 003c BB61     		str	r3, [r7, #24]
 434:Generated_Source\PSoC4/GLCD.c **** 	
 435:Generated_Source\PSoC4/GLCD.c **** 	/* Get pointer to the last byte of the desired character    */
 436:Generated_Source\PSoC4/GLCD.c **** 	pChar = pFont + (nBytes * (c - 0x1F)) + nBytes - 1;
 781              		.loc 1 436 0
 782 003e 0F23     		movs	r3, #15
 783 0040 FB18     		adds	r3, r7, r3
 784 0042 1B78     		ldrb	r3, [r3]
 785 0044 1F3B     		subs	r3, r3, #31
 786 0046 BA69     		ldr	r2, [r7, #24]
 787 0048 5343     		muls	r3, r2
 788 004a 1A00     		movs	r2, r3
 789 004c BB69     		ldr	r3, [r7, #24]
 790 004e D318     		adds	r3, r2, r3
 791 0050 013B     		subs	r3, r3, #1
 792 0052 7A6A     		ldr	r2, [r7, #36]
 793 0054 D318     		adds	r3, r2, r3
 794 0056 BB62     		str	r3, [r7, #40]
 437:Generated_Source\PSoC4/GLCD.c **** 
 438:Generated_Source\PSoC4/GLCD.c **** #if (GLCD_Controller == GLCD_EPSON)
 439:Generated_Source\PSoC4/GLCD.c **** 	/* Row address set */
 440:Generated_Source\PSoC4/GLCD.c **** 	GLCD_Command(GLCD_PAGEADDR);
 441:Generated_Source\PSoC4/GLCD.c **** 	GLCD_Data(x);
 442:Generated_Source\PSoC4/GLCD.c **** 	GLCD_Data((x + nRows - 1));
 443:Generated_Source\PSoC4/GLCD.c **** 	/* Column address set */
 444:Generated_Source\PSoC4/GLCD.c **** 	GLCD_Command(GLCD_COLADDR);
 445:Generated_Source\PSoC4/GLCD.c **** 	GLCD_Data(y);
 446:Generated_Source\PSoC4/GLCD.c **** 	GLCD_Data((y + nCols - 1));
 447:Generated_Source\PSoC4/GLCD.c **** 
 448:Generated_Source\PSoC4/GLCD.c **** 	/* Write Memory */
 449:Generated_Source\PSoC4/GLCD.c **** 	GLCD_Command(GLCD_RAMWR);
 450:Generated_Source\PSoC4/GLCD.c **** 	/* Loop on each row, working backwards from the bottom to the top  */
 451:Generated_Source\PSoC4/GLCD.c **** 	for (i = nRows - 1; i >= 0; i--) {
 452:Generated_Source\PSoC4/GLCD.c **** 		/* Copy pixel row from font table and then decrement row       */
 453:Generated_Source\PSoC4/GLCD.c **** 		PixelRow = *pChar++;
 454:Generated_Source\PSoC4/GLCD.c **** 		/* Loop on each pixel in the row (left to right)               */
 455:Generated_Source\PSoC4/GLCD.c **** 		/* Note: we do two pixels each loop                            */
 456:Generated_Source\PSoC4/GLCD.c **** 		Mask = 0x80;
 457:Generated_Source\PSoC4/GLCD.c **** 		for (j = 0; j < nCols; j += 2) 
ARM GAS  C:\Users\sur\AppData\Local\Temp\ccifbkIH.s 			page 23


 458:Generated_Source\PSoC4/GLCD.c **** 		{
 459:Generated_Source\PSoC4/GLCD.c **** 			/* If pixel bit set, use foreground color; else use the background color. */
 460:Generated_Source\PSoC4/GLCD.c **** 			/* Now get the pixel color for two successive pixels                      */
 461:Generated_Source\PSoC4/GLCD.c **** 			if ((PixelRow & Mask) == 0)
 462:Generated_Source\PSoC4/GLCD.c **** 			{
 463:Generated_Source\PSoC4/GLCD.c **** 				Word0 = bColor;
 464:Generated_Source\PSoC4/GLCD.c **** 			}
 465:Generated_Source\PSoC4/GLCD.c **** 			else
 466:Generated_Source\PSoC4/GLCD.c **** 			{
 467:Generated_Source\PSoC4/GLCD.c **** 				Word0 = fColor;
 468:Generated_Source\PSoC4/GLCD.c **** 			}
 469:Generated_Source\PSoC4/GLCD.c **** 			
 470:Generated_Source\PSoC4/GLCD.c **** 			Mask = Mask >> 1;
 471:Generated_Source\PSoC4/GLCD.c **** 			if ((PixelRow & Mask) == 0)
 472:Generated_Source\PSoC4/GLCD.c **** 			{
 473:Generated_Source\PSoC4/GLCD.c **** 				Word1 = bColor;
 474:Generated_Source\PSoC4/GLCD.c **** 			}
 475:Generated_Source\PSoC4/GLCD.c **** 			else
 476:Generated_Source\PSoC4/GLCD.c **** 			{
 477:Generated_Source\PSoC4/GLCD.c **** 				Word1 = fColor;
 478:Generated_Source\PSoC4/GLCD.c **** 			}
 479:Generated_Source\PSoC4/GLCD.c **** 			Mask = Mask >> 1;
 480:Generated_Source\PSoC4/GLCD.c **** 			/* Use this information to output three data bytes  */
 481:Generated_Source\PSoC4/GLCD.c **** 			GLCD_Data((uint8)((Word0 >> 4) & 0xFF));
 482:Generated_Source\PSoC4/GLCD.c **** 			GLCD_Data((uint8)(((Word0 & 0xF) << 4) | ((Word1 >> 8) & 0xF)));
 483:Generated_Source\PSoC4/GLCD.c **** 			GLCD_Data((uint8)(Word1 & 0xFF));
 484:Generated_Source\PSoC4/GLCD.c **** 		}
 485:Generated_Source\PSoC4/GLCD.c **** 	}
 486:Generated_Source\PSoC4/GLCD.c **** #endif
 487:Generated_Source\PSoC4/GLCD.c **** 
 488:Generated_Source\PSoC4/GLCD.c **** #if (GLCD_Controller == GLCD_PHILIPS)
 489:Generated_Source\PSoC4/GLCD.c **** 
 490:Generated_Source\PSoC4/GLCD.c **** 	/* Set row address     */
 491:Generated_Source\PSoC4/GLCD.c **** 	GLCD_Command(GLCD_PAGEADDR);
 795              		.loc 1 491 0
 796 0058 2B20     		movs	r0, #43
 797 005a FFF7FEFF 		bl	GLCD_Command
 492:Generated_Source\PSoC4/GLCD.c **** 	GLCD_Data((uint8)x);
 798              		.loc 1 492 0
 799 005e BB68     		ldr	r3, [r7, #8]
 800 0060 FF22     		movs	r2, #255
 801 0062 1340     		ands	r3, r2
 802 0064 1800     		movs	r0, r3
 803 0066 FFF7FEFF 		bl	GLCD_Data
 493:Generated_Source\PSoC4/GLCD.c **** 	GLCD_Data((uint8)(x + nRows - 1));
 804              		.loc 1 493 0
 805 006a BB68     		ldr	r3, [r7, #8]
 806 006c DAB2     		uxtb	r2, r3
 807 006e FB69     		ldr	r3, [r7, #28]
 808 0070 DBB2     		uxtb	r3, r3
 809 0072 D318     		adds	r3, r2, r3
 810 0074 DBB2     		uxtb	r3, r3
 811 0076 013B     		subs	r3, r3, #1
 812 0078 DBB2     		uxtb	r3, r3
 813 007a 1800     		movs	r0, r3
 814 007c FFF7FEFF 		bl	GLCD_Data
 494:Generated_Source\PSoC4/GLCD.c ****     /* Set column address  */
ARM GAS  C:\Users\sur\AppData\Local\Temp\ccifbkIH.s 			page 24


 495:Generated_Source\PSoC4/GLCD.c **** 	GLCD_Command(GLCD_COLADDR);
 815              		.loc 1 495 0
 816 0080 2A20     		movs	r0, #42
 817 0082 FFF7FEFF 		bl	GLCD_Command
 496:Generated_Source\PSoC4/GLCD.c **** 	GLCD_Data((uint8)y);
 818              		.loc 1 496 0
 819 0086 7B68     		ldr	r3, [r7, #4]
 820 0088 FF22     		movs	r2, #255
 821 008a 1340     		ands	r3, r2
 822 008c 1800     		movs	r0, r3
 823 008e FFF7FEFF 		bl	GLCD_Data
 497:Generated_Source\PSoC4/GLCD.c **** 	GLCD_Data((uint8)(y + nCols - 1));
 824              		.loc 1 497 0
 825 0092 7B68     		ldr	r3, [r7, #4]
 826 0094 DAB2     		uxtb	r2, r3
 827 0096 3B6A     		ldr	r3, [r7, #32]
 828 0098 DBB2     		uxtb	r3, r3
 829 009a D318     		adds	r3, r2, r3
 830 009c DBB2     		uxtb	r3, r3
 831 009e 013B     		subs	r3, r3, #1
 832 00a0 DBB2     		uxtb	r3, r3
 833 00a2 1800     		movs	r0, r3
 834 00a4 FFF7FEFF 		bl	GLCD_Data
 498:Generated_Source\PSoC4/GLCD.c **** 
 499:Generated_Source\PSoC4/GLCD.c **** 	/* Write to display memory */
 500:Generated_Source\PSoC4/GLCD.c **** 	GLCD_Command(GLCD_RAMWR);
 835              		.loc 1 500 0
 836 00a8 2C20     		movs	r0, #44
 837 00aa FFF7FEFF 		bl	GLCD_Command
 501:Generated_Source\PSoC4/GLCD.c **** 	/* loop on each row, working backwards from the bottom to the top.  */
 502:Generated_Source\PSoC4/GLCD.c **** 	pChar+=nBytes-1;  /* Stick pChar at the end of the row, need to reverse print on phillips */
 838              		.loc 1 502 0
 839 00ae BB69     		ldr	r3, [r7, #24]
 840 00b0 013B     		subs	r3, r3, #1
 841 00b2 BA6A     		ldr	r2, [r7, #40]
 842 00b4 D318     		adds	r3, r2, r3
 843 00b6 BB62     		str	r3, [r7, #40]
 503:Generated_Source\PSoC4/GLCD.c **** 	for (i = nRows - 1; i >= 0; i--) {
 844              		.loc 1 503 0
 845 00b8 FB69     		ldr	r3, [r7, #28]
 846 00ba 013B     		subs	r3, r3, #1
 847 00bc FB63     		str	r3, [r7, #60]
 848 00be 5DE0     		b	.L21
 849              	.L28:
 504:Generated_Source\PSoC4/GLCD.c **** 		/* copy pixel row from font table and then decrement row.  */
 505:Generated_Source\PSoC4/GLCD.c **** 		PixelRow = *pChar--;
 850              		.loc 1 505 0
 851 00c0 BB6A     		ldr	r3, [r7, #40]
 852 00c2 5A1E     		subs	r2, r3, #1
 853 00c4 BA62     		str	r2, [r7, #40]
 854 00c6 1722     		movs	r2, #23
 855 00c8 BA18     		adds	r2, r7, r2
 856 00ca 1B78     		ldrb	r3, [r3]
 857 00cc 1370     		strb	r3, [r2]
 506:Generated_Source\PSoC4/GLCD.c **** 		/* Loop on each pixel in the row (left to right)  */
 507:Generated_Source\PSoC4/GLCD.c **** 		/* Note: we do two pixels each loop               */
 508:Generated_Source\PSoC4/GLCD.c **** 		Mask = 0x01;  
ARM GAS  C:\Users\sur\AppData\Local\Temp\ccifbkIH.s 			page 25


 858              		.loc 1 508 0
 859 00ce 3723     		movs	r3, #55
 860 00d0 FB18     		adds	r3, r7, r3
 861 00d2 0122     		movs	r2, #1
 862 00d4 1A70     		strb	r2, [r3]
 509:Generated_Source\PSoC4/GLCD.c **** 		for (j = 0; j < nCols; j += 2) 
 863              		.loc 1 509 0
 864 00d6 0023     		movs	r3, #0
 865 00d8 BB63     		str	r3, [r7, #56]
 866 00da 48E0     		b	.L22
 867              	.L27:
 510:Generated_Source\PSoC4/GLCD.c **** 		{
 511:Generated_Source\PSoC4/GLCD.c **** 			/* If pixel bit set, use foreground color; else use the background color  */
 512:Generated_Source\PSoC4/GLCD.c **** 			/* Get the pixel color for two successive pixels                          */
 513:Generated_Source\PSoC4/GLCD.c **** 			if ((PixelRow & Mask) == 0)
 868              		.loc 1 513 0
 869 00dc 1723     		movs	r3, #23
 870 00de FB18     		adds	r3, r7, r3
 871 00e0 3722     		movs	r2, #55
 872 00e2 BA18     		adds	r2, r7, r2
 873 00e4 1B78     		ldrb	r3, [r3]
 874 00e6 1278     		ldrb	r2, [r2]
 875 00e8 1340     		ands	r3, r2
 876 00ea DBB2     		uxtb	r3, r3
 877 00ec 002B     		cmp	r3, #0
 878 00ee 02D1     		bne	.L23
 514:Generated_Source\PSoC4/GLCD.c **** 				Word0 = bColor;
 879              		.loc 1 514 0
 880 00f0 BB6C     		ldr	r3, [r7, #72]
 881 00f2 3B63     		str	r3, [r7, #48]
 882 00f4 01E0     		b	.L24
 883              	.L23:
 515:Generated_Source\PSoC4/GLCD.c **** 			else
 516:Generated_Source\PSoC4/GLCD.c **** 				Word0 = fColor;
 884              		.loc 1 516 0
 885 00f6 3B68     		ldr	r3, [r7]
 886 00f8 3B63     		str	r3, [r7, #48]
 887              	.L24:
 517:Generated_Source\PSoC4/GLCD.c **** 			Mask = Mask << 1; 
 888              		.loc 1 517 0
 889 00fa 3723     		movs	r3, #55
 890 00fc FA18     		adds	r2, r7, r3
 891 00fe 3723     		movs	r3, #55
 892 0100 FB18     		adds	r3, r7, r3
 893 0102 1B78     		ldrb	r3, [r3]
 894 0104 DB18     		adds	r3, r3, r3
 895 0106 1370     		strb	r3, [r2]
 518:Generated_Source\PSoC4/GLCD.c **** 			if ((PixelRow & Mask) == 0)
 896              		.loc 1 518 0
 897 0108 1723     		movs	r3, #23
 898 010a FB18     		adds	r3, r7, r3
 899 010c 3722     		movs	r2, #55
 900 010e BA18     		adds	r2, r7, r2
 901 0110 1B78     		ldrb	r3, [r3]
 902 0112 1278     		ldrb	r2, [r2]
 903 0114 1340     		ands	r3, r2
 904 0116 DBB2     		uxtb	r3, r3
ARM GAS  C:\Users\sur\AppData\Local\Temp\ccifbkIH.s 			page 26


 905 0118 002B     		cmp	r3, #0
 906 011a 02D1     		bne	.L25
 519:Generated_Source\PSoC4/GLCD.c **** 				Word1 = bColor;
 907              		.loc 1 519 0
 908 011c BB6C     		ldr	r3, [r7, #72]
 909 011e FB62     		str	r3, [r7, #44]
 910 0120 01E0     		b	.L26
 911              	.L25:
 520:Generated_Source\PSoC4/GLCD.c **** 			else
 521:Generated_Source\PSoC4/GLCD.c **** 				Word1 = fColor;
 912              		.loc 1 521 0
 913 0122 3B68     		ldr	r3, [r7]
 914 0124 FB62     		str	r3, [r7, #44]
 915              	.L26:
 522:Generated_Source\PSoC4/GLCD.c **** 			Mask = Mask << 1; 
 916              		.loc 1 522 0 discriminator 2
 917 0126 3723     		movs	r3, #55
 918 0128 FA18     		adds	r2, r7, r3
 919 012a 3723     		movs	r3, #55
 920 012c FB18     		adds	r3, r7, r3
 921 012e 1B78     		ldrb	r3, [r3]
 922 0130 DB18     		adds	r3, r3, r3
 923 0132 1370     		strb	r3, [r2]
 523:Generated_Source\PSoC4/GLCD.c **** 			/* use this information to output three data bytes */
 524:Generated_Source\PSoC4/GLCD.c **** 			GLCD_Data((Word0 >> 4) & 0xFF);
 924              		.loc 1 524 0 discriminator 2
 925 0134 3B6B     		ldr	r3, [r7, #48]
 926 0136 1B11     		asrs	r3, r3, #4
 927 0138 1A00     		movs	r2, r3
 928 013a FF23     		movs	r3, #255
 929 013c 1340     		ands	r3, r2
 930 013e 1800     		movs	r0, r3
 931 0140 FFF7FEFF 		bl	GLCD_Data
 525:Generated_Source\PSoC4/GLCD.c **** 			GLCD_Data(((Word0 & 0xF) << 4) | ((Word1 >> 8) & 0xF));
 932              		.loc 1 525 0 discriminator 2
 933 0144 3B6B     		ldr	r3, [r7, #48]
 934 0146 1B01     		lsls	r3, r3, #4
 935 0148 FF22     		movs	r2, #255
 936 014a 1A40     		ands	r2, r3
 937 014c FB6A     		ldr	r3, [r7, #44]
 938 014e 1B12     		asrs	r3, r3, #8
 939 0150 0F21     		movs	r1, #15
 940 0152 0B40     		ands	r3, r1
 941 0154 1343     		orrs	r3, r2
 942 0156 1800     		movs	r0, r3
 943 0158 FFF7FEFF 		bl	GLCD_Data
 526:Generated_Source\PSoC4/GLCD.c **** 			GLCD_Data(Word1 & 0xFF);
 944              		.loc 1 526 0 discriminator 2
 945 015c FB6A     		ldr	r3, [r7, #44]
 946 015e FF22     		movs	r2, #255
 947 0160 1340     		ands	r3, r2
 948 0162 1800     		movs	r0, r3
 949 0164 FFF7FEFF 		bl	GLCD_Data
 509:Generated_Source\PSoC4/GLCD.c **** 		{
 950              		.loc 1 509 0 discriminator 2
 951 0168 BB6B     		ldr	r3, [r7, #56]
 952 016a 0233     		adds	r3, r3, #2
ARM GAS  C:\Users\sur\AppData\Local\Temp\ccifbkIH.s 			page 27


 953 016c BB63     		str	r3, [r7, #56]
 954              	.L22:
 509:Generated_Source\PSoC4/GLCD.c **** 		{
 955              		.loc 1 509 0 is_stmt 0 discriminator 1
 956 016e BA6B     		ldr	r2, [r7, #56]
 957 0170 3B6A     		ldr	r3, [r7, #32]
 958 0172 9A42     		cmp	r2, r3
 959 0174 B2DB     		blt	.L27
 503:Generated_Source\PSoC4/GLCD.c **** 		/* copy pixel row from font table and then decrement row.  */
 960              		.loc 1 503 0 is_stmt 1 discriminator 2
 961 0176 FB6B     		ldr	r3, [r7, #60]
 962 0178 013B     		subs	r3, r3, #1
 963 017a FB63     		str	r3, [r7, #60]
 964              	.L21:
 503:Generated_Source\PSoC4/GLCD.c **** 		/* copy pixel row from font table and then decrement row.  */
 965              		.loc 1 503 0 is_stmt 0 discriminator 1
 966 017c FB6B     		ldr	r3, [r7, #60]
 967 017e 002B     		cmp	r3, #0
 968 0180 9EDA     		bge	.L28
 527:Generated_Source\PSoC4/GLCD.c **** 		}
 528:Generated_Source\PSoC4/GLCD.c **** 	}
 529:Generated_Source\PSoC4/GLCD.c **** #endif
 530:Generated_Source\PSoC4/GLCD.c **** }
 969              		.loc 1 530 0 is_stmt 1
 970 0182 C046     		nop
 971 0184 BD46     		mov	sp, r7
 972 0186 10B0     		add	sp, sp, #64
 973              		@ sp needed
 974 0188 80BD     		pop	{r7, pc}
 975              	.L30:
 976 018a C046     		.align	2
 977              	.L29:
 978 018c 00000000 		.word	GLCD_FONT8x16
 979              		.cfi_endproc
 980              	.LFE9:
 981              		.size	GLCD_PrintChar, .-GLCD_PrintChar
 982              		.section	.text.GLCD_PrintString,"ax",%progbits
 983              		.align	2
 984              		.global	GLCD_PrintString
 985              		.code	16
 986              		.thumb_func
 987              		.type	GLCD_PrintString, %function
 988              	GLCD_PrintString:
 989              	.LFB10:
 531:Generated_Source\PSoC4/GLCD.c **** 
 532:Generated_Source\PSoC4/GLCD.c **** /*******************************************************************************
 533:Generated_Source\PSoC4/GLCD.c **** * Function Name: GLCD_PrintString
 534:Generated_Source\PSoC4/GLCD.c **** ********************************************************************************
 535:Generated_Source\PSoC4/GLCD.c **** *
 536:Generated_Source\PSoC4/GLCD.c **** * Summary:
 537:Generated_Source\PSoC4/GLCD.c **** *  Print a string horizontally on the display.  
 538:Generated_Source\PSoC4/GLCD.c **** *
 539:Generated_Source\PSoC4/GLCD.c **** * Parameters:  
 540:Generated_Source\PSoC4/GLCD.c **** *  pString:  Pointer to null terminated string to be displayed.
 541:Generated_Source\PSoC4/GLCD.c **** *  x,y:      Location where string is to be printed
 542:Generated_Source\PSoC4/GLCD.c **** *  fColor:   Forground Color
 543:Generated_Source\PSoC4/GLCD.c **** *  bColor:   Background Color
ARM GAS  C:\Users\sur\AppData\Local\Temp\ccifbkIH.s 			page 28


 544:Generated_Source\PSoC4/GLCD.c **** *
 545:Generated_Source\PSoC4/GLCD.c **** * Return: 
 546:Generated_Source\PSoC4/GLCD.c **** *  None 
 547:Generated_Source\PSoC4/GLCD.c **** *  
 548:Generated_Source\PSoC4/GLCD.c **** *******************************************************************************/
 549:Generated_Source\PSoC4/GLCD.c **** void GLCD_PrintString(char *pString, int32 x, int32 y, int32 fColor, int32 bColor)
 550:Generated_Source\PSoC4/GLCD.c **** {
 990              		.loc 1 550 0
 991              		.cfi_startproc
 992              		@ args = 4, pretend = 0, frame = 24
 993              		@ frame_needed = 1, uses_anonymous_args = 0
 994 0000 90B5     		push	{r4, r7, lr}
 995              		.cfi_def_cfa_offset 12
 996              		.cfi_offset 4, -12
 997              		.cfi_offset 7, -8
 998              		.cfi_offset 14, -4
 999 0002 89B0     		sub	sp, sp, #36
 1000              		.cfi_def_cfa_offset 48
 1001 0004 02AF     		add	r7, sp, #8
 1002              		.cfi_def_cfa 7, 40
 1003 0006 F860     		str	r0, [r7, #12]
 1004 0008 B960     		str	r1, [r7, #8]
 1005 000a 7A60     		str	r2, [r7, #4]
 1006 000c 3B60     		str	r3, [r7]
 551:Generated_Source\PSoC4/GLCD.c **** 	x = x + 16;
 1007              		.loc 1 551 0
 1008 000e BB68     		ldr	r3, [r7, #8]
 1009 0010 1033     		adds	r3, r3, #16
 1010 0012 BB60     		str	r3, [r7, #8]
 552:Generated_Source\PSoC4/GLCD.c **** 	y = y + 8;
 1011              		.loc 1 552 0
 1012 0014 7B68     		ldr	r3, [r7, #4]
 1013 0016 0833     		adds	r3, r3, #8
 1014 0018 7B60     		str	r3, [r7, #4]
 553:Generated_Source\PSoC4/GLCD.c ****     int32 originalY = y;
 1015              		.loc 1 553 0
 1016 001a 7B68     		ldr	r3, [r7, #4]
 1017 001c 7B61     		str	r3, [r7, #20]
 554:Generated_Source\PSoC4/GLCD.c **** 
 555:Generated_Source\PSoC4/GLCD.c **** 	/* Loop until null-terminator is found */
 556:Generated_Source\PSoC4/GLCD.c **** 	while (*pString != 0x00) 
 1018              		.loc 1 556 0
 1019 001e 19E0     		b	.L32
 1020              	.L35:
 557:Generated_Source\PSoC4/GLCD.c **** 	{
 558:Generated_Source\PSoC4/GLCD.c **** 		/* Draw the character        */
 559:Generated_Source\PSoC4/GLCD.c **** 		GLCD_PrintChar(*pString++, x, y, fColor, bColor);
 1021              		.loc 1 559 0
 1022 0020 FB68     		ldr	r3, [r7, #12]
 1023 0022 5A1C     		adds	r2, r3, #1
 1024 0024 FA60     		str	r2, [r7, #12]
 1025 0026 1878     		ldrb	r0, [r3]
 1026 0028 3C68     		ldr	r4, [r7]
 1027 002a 7A68     		ldr	r2, [r7, #4]
 1028 002c B968     		ldr	r1, [r7, #8]
 1029 002e BB6A     		ldr	r3, [r7, #40]
 1030 0030 0093     		str	r3, [sp]
ARM GAS  C:\Users\sur\AppData\Local\Temp\ccifbkIH.s 			page 29


 1031 0032 2300     		movs	r3, r4
 1032 0034 FFF7FEFF 		bl	GLCD_PrintChar
 560:Generated_Source\PSoC4/GLCD.c **** 		/* Advance the y position    */
 561:Generated_Source\PSoC4/GLCD.c **** 		y = y + 8;
 1033              		.loc 1 561 0
 1034 0038 7B68     		ldr	r3, [r7, #4]
 1035 003a 0833     		adds	r3, r3, #8
 1036 003c 7B60     		str	r3, [r7, #4]
 562:Generated_Source\PSoC4/GLCD.c **** 		/* Bail out if y exceeds 131 */
 563:Generated_Source\PSoC4/GLCD.c **** 		if (y > 131) 
 1037              		.loc 1 563 0
 1038 003e 7B68     		ldr	r3, [r7, #4]
 1039 0040 832B     		cmp	r3, #131
 1040 0042 04DD     		ble	.L33
 564:Generated_Source\PSoC4/GLCD.c **** 		{
 565:Generated_Source\PSoC4/GLCD.c ****             x = x + 16;
 1041              		.loc 1 565 0
 1042 0044 BB68     		ldr	r3, [r7, #8]
 1043 0046 1033     		adds	r3, r3, #16
 1044 0048 BB60     		str	r3, [r7, #8]
 566:Generated_Source\PSoC4/GLCD.c ****             y = originalY;
 1045              		.loc 1 566 0
 1046 004a 7B69     		ldr	r3, [r7, #20]
 1047 004c 7B60     		str	r3, [r7, #4]
 1048              	.L33:
 567:Generated_Source\PSoC4/GLCD.c ****         }
 568:Generated_Source\PSoC4/GLCD.c ****         if (x > 131) break;
 1049              		.loc 1 568 0
 1050 004e BB68     		ldr	r3, [r7, #8]
 1051 0050 832B     		cmp	r3, #131
 1052 0052 04DC     		bgt	.L36
 1053              	.L32:
 556:Generated_Source\PSoC4/GLCD.c **** 	{
 1054              		.loc 1 556 0
 1055 0054 FB68     		ldr	r3, [r7, #12]
 1056 0056 1B78     		ldrb	r3, [r3]
 1057 0058 002B     		cmp	r3, #0
 1058 005a E1D1     		bne	.L35
 569:Generated_Source\PSoC4/GLCD.c **** 	}
 570:Generated_Source\PSoC4/GLCD.c **** }
 1059              		.loc 1 570 0
 1060 005c 00E0     		b	.L34
 1061              	.L36:
 568:Generated_Source\PSoC4/GLCD.c **** 	}
 1062              		.loc 1 568 0
 1063 005e C046     		nop
 1064              	.L34:
 1065              		.loc 1 570 0
 1066 0060 C046     		nop
 1067 0062 BD46     		mov	sp, r7
 1068 0064 07B0     		add	sp, sp, #28
 1069              		@ sp needed
 1070 0066 90BD     		pop	{r4, r7, pc}
 1071              		.cfi_endproc
 1072              	.LFE10:
 1073              		.size	GLCD_PrintString, .-GLCD_PrintString
 1074              		.section	.text.GLCD_DrawLine,"ax",%progbits
ARM GAS  C:\Users\sur\AppData\Local\Temp\ccifbkIH.s 			page 30


 1075              		.align	2
 1076              		.global	GLCD_DrawLine
 1077              		.code	16
 1078              		.thumb_func
 1079              		.type	GLCD_DrawLine, %function
 1080              	GLCD_DrawLine:
 1081              	.LFB11:
 571:Generated_Source\PSoC4/GLCD.c **** 
 572:Generated_Source\PSoC4/GLCD.c **** /*******************************************************************************
 573:Generated_Source\PSoC4/GLCD.c **** * Function Name: GLCD_DrawLine
 574:Generated_Source\PSoC4/GLCD.c **** ********************************************************************************
 575:Generated_Source\PSoC4/GLCD.c **** *
 576:Generated_Source\PSoC4/GLCD.c **** * Summary:
 577:Generated_Source\PSoC4/GLCD.c **** *  Draw a line on the display.  
 578:Generated_Source\PSoC4/GLCD.c **** *
 579:Generated_Source\PSoC4/GLCD.c **** * Parameters:  
 580:Generated_Source\PSoC4/GLCD.c **** *  x0, y0:  The beginning endpoint
 581:Generated_Source\PSoC4/GLCD.c **** *  x1, y1:  The end endpoint.
 582:Generated_Source\PSoC4/GLCD.c **** *  color:   Color of the line.
 583:Generated_Source\PSoC4/GLCD.c **** *
 584:Generated_Source\PSoC4/GLCD.c **** * Return: 
 585:Generated_Source\PSoC4/GLCD.c **** *  None 
 586:Generated_Source\PSoC4/GLCD.c **** *  
 587:Generated_Source\PSoC4/GLCD.c **** *******************************************************************************/
 588:Generated_Source\PSoC4/GLCD.c **** void GLCD_DrawLine(int32 x0, int32 y0, int32 x1, int32 y1, int32 color)
 589:Generated_Source\PSoC4/GLCD.c **** {
 1082              		.loc 1 589 0
 1083              		.cfi_startproc
 1084              		@ args = 4, pretend = 0, frame = 40
 1085              		@ frame_needed = 1, uses_anonymous_args = 0
 1086 0000 80B5     		push	{r7, lr}
 1087              		.cfi_def_cfa_offset 8
 1088              		.cfi_offset 7, -8
 1089              		.cfi_offset 14, -4
 1090 0002 8AB0     		sub	sp, sp, #40
 1091              		.cfi_def_cfa_offset 48
 1092 0004 00AF     		add	r7, sp, #0
 1093              		.cfi_def_cfa_register 7
 1094 0006 F860     		str	r0, [r7, #12]
 1095 0008 B960     		str	r1, [r7, #8]
 1096 000a 7A60     		str	r2, [r7, #4]
 1097 000c 3B60     		str	r3, [r7]
 590:Generated_Source\PSoC4/GLCD.c **** 	int32 dy = y1 - y0; /* Difference between y0 and y1 */
 1098              		.loc 1 590 0
 1099 000e 3A68     		ldr	r2, [r7]
 1100 0010 BB68     		ldr	r3, [r7, #8]
 1101 0012 D31A     		subs	r3, r2, r3
 1102 0014 7B62     		str	r3, [r7, #36]
 591:Generated_Source\PSoC4/GLCD.c **** 	int32 dx = x1 - x0; /* Difference between x0 and x1 */
 1103              		.loc 1 591 0
 1104 0016 7A68     		ldr	r2, [r7, #4]
 1105 0018 FB68     		ldr	r3, [r7, #12]
 1106 001a D31A     		subs	r3, r2, r3
 1107 001c 3B62     		str	r3, [r7, #32]
 592:Generated_Source\PSoC4/GLCD.c **** 	int32 stepx, stepy;
 593:Generated_Source\PSoC4/GLCD.c **** 
 594:Generated_Source\PSoC4/GLCD.c **** 	if (dy < 0)
ARM GAS  C:\Users\sur\AppData\Local\Temp\ccifbkIH.s 			page 31


 1108              		.loc 1 594 0
 1109 001e 7B6A     		ldr	r3, [r7, #36]
 1110 0020 002B     		cmp	r3, #0
 1111 0022 06DA     		bge	.L38
 595:Generated_Source\PSoC4/GLCD.c **** 	{
 596:Generated_Source\PSoC4/GLCD.c **** 		dy = -dy;
 1112              		.loc 1 596 0
 1113 0024 7B6A     		ldr	r3, [r7, #36]
 1114 0026 5B42     		rsbs	r3, r3, #0
 1115 0028 7B62     		str	r3, [r7, #36]
 597:Generated_Source\PSoC4/GLCD.c **** 		stepy = -1;
 1116              		.loc 1 597 0
 1117 002a 0123     		movs	r3, #1
 1118 002c 5B42     		rsbs	r3, r3, #0
 1119 002e BB61     		str	r3, [r7, #24]
 1120 0030 01E0     		b	.L39
 1121              	.L38:
 598:Generated_Source\PSoC4/GLCD.c **** 	}
 599:Generated_Source\PSoC4/GLCD.c **** 	else
 600:Generated_Source\PSoC4/GLCD.c **** 	{
 601:Generated_Source\PSoC4/GLCD.c **** 		stepy = 1;
 1122              		.loc 1 601 0
 1123 0032 0123     		movs	r3, #1
 1124 0034 BB61     		str	r3, [r7, #24]
 1125              	.L39:
 602:Generated_Source\PSoC4/GLCD.c **** 	}
 603:Generated_Source\PSoC4/GLCD.c **** 
 604:Generated_Source\PSoC4/GLCD.c **** 	if (dx < 0)
 1126              		.loc 1 604 0
 1127 0036 3B6A     		ldr	r3, [r7, #32]
 1128 0038 002B     		cmp	r3, #0
 1129 003a 06DA     		bge	.L40
 605:Generated_Source\PSoC4/GLCD.c **** 	{
 606:Generated_Source\PSoC4/GLCD.c **** 		dx = -dx;
 1130              		.loc 1 606 0
 1131 003c 3B6A     		ldr	r3, [r7, #32]
 1132 003e 5B42     		rsbs	r3, r3, #0
 1133 0040 3B62     		str	r3, [r7, #32]
 607:Generated_Source\PSoC4/GLCD.c **** 		stepx = -1;
 1134              		.loc 1 607 0
 1135 0042 0123     		movs	r3, #1
 1136 0044 5B42     		rsbs	r3, r3, #0
 1137 0046 FB61     		str	r3, [r7, #28]
 1138 0048 01E0     		b	.L41
 1139              	.L40:
 608:Generated_Source\PSoC4/GLCD.c **** 	}
 609:Generated_Source\PSoC4/GLCD.c **** 	else
 610:Generated_Source\PSoC4/GLCD.c **** 	{
 611:Generated_Source\PSoC4/GLCD.c **** 		stepx = 1;
 1140              		.loc 1 611 0
 1141 004a 0123     		movs	r3, #1
 1142 004c FB61     		str	r3, [r7, #28]
 1143              	.L41:
 612:Generated_Source\PSoC4/GLCD.c **** 	}
 613:Generated_Source\PSoC4/GLCD.c **** 
 614:Generated_Source\PSoC4/GLCD.c **** 	dy <<= 1; /* dy is now 2*dy  */
 1144              		.loc 1 614 0
ARM GAS  C:\Users\sur\AppData\Local\Temp\ccifbkIH.s 			page 32


 1145 004e 7B6A     		ldr	r3, [r7, #36]
 1146 0050 5B00     		lsls	r3, r3, #1
 1147 0052 7B62     		str	r3, [r7, #36]
 615:Generated_Source\PSoC4/GLCD.c **** 	dx <<= 1; /* dx is now 2*dx  */
 1148              		.loc 1 615 0
 1149 0054 3B6A     		ldr	r3, [r7, #32]
 1150 0056 5B00     		lsls	r3, r3, #1
 1151 0058 3B62     		str	r3, [r7, #32]
 616:Generated_Source\PSoC4/GLCD.c **** 	GLCD_Pixel(x0, y0, color);
 1152              		.loc 1 616 0
 1153 005a 3A6B     		ldr	r2, [r7, #48]
 1154 005c B968     		ldr	r1, [r7, #8]
 1155 005e FB68     		ldr	r3, [r7, #12]
 1156 0060 1800     		movs	r0, r3
 1157 0062 FFF7FEFF 		bl	GLCD_Pixel
 617:Generated_Source\PSoC4/GLCD.c **** 
 618:Generated_Source\PSoC4/GLCD.c **** 	if (dx > dy) 
 1158              		.loc 1 618 0
 1159 0066 3A6A     		ldr	r2, [r7, #32]
 1160 0068 7B6A     		ldr	r3, [r7, #36]
 1161 006a 9A42     		cmp	r2, r3
 1162 006c 23DD     		ble	.L42
 1163              	.LBB2:
 619:Generated_Source\PSoC4/GLCD.c **** 	{
 620:Generated_Source\PSoC4/GLCD.c **** 		int fraction = dy - (dx >> 1);
 1164              		.loc 1 620 0
 1165 006e 3B6A     		ldr	r3, [r7, #32]
 1166 0070 5B10     		asrs	r3, r3, #1
 1167 0072 7A6A     		ldr	r2, [r7, #36]
 1168 0074 D31A     		subs	r3, r2, r3
 1169 0076 7B61     		str	r3, [r7, #20]
 621:Generated_Source\PSoC4/GLCD.c **** 		while (x0 != x1)
 1170              		.loc 1 621 0
 1171 0078 18E0     		b	.L43
 1172              	.L45:
 622:Generated_Source\PSoC4/GLCD.c **** 		{
 623:Generated_Source\PSoC4/GLCD.c **** 			if (fraction >= 0)
 1173              		.loc 1 623 0
 1174 007a 7B69     		ldr	r3, [r7, #20]
 1175 007c 002B     		cmp	r3, #0
 1176 007e 07DB     		blt	.L44
 624:Generated_Source\PSoC4/GLCD.c **** 			{
 625:Generated_Source\PSoC4/GLCD.c **** 				y0 += stepy;
 1177              		.loc 1 625 0
 1178 0080 BA68     		ldr	r2, [r7, #8]
 1179 0082 BB69     		ldr	r3, [r7, #24]
 1180 0084 D318     		adds	r3, r2, r3
 1181 0086 BB60     		str	r3, [r7, #8]
 626:Generated_Source\PSoC4/GLCD.c **** 				fraction -= dx;
 1182              		.loc 1 626 0
 1183 0088 7A69     		ldr	r2, [r7, #20]
 1184 008a 3B6A     		ldr	r3, [r7, #32]
 1185 008c D31A     		subs	r3, r2, r3
 1186 008e 7B61     		str	r3, [r7, #20]
 1187              	.L44:
 627:Generated_Source\PSoC4/GLCD.c **** 			}
 628:Generated_Source\PSoC4/GLCD.c **** 			x0 += stepx;
ARM GAS  C:\Users\sur\AppData\Local\Temp\ccifbkIH.s 			page 33


 1188              		.loc 1 628 0
 1189 0090 FA68     		ldr	r2, [r7, #12]
 1190 0092 FB69     		ldr	r3, [r7, #28]
 1191 0094 D318     		adds	r3, r2, r3
 1192 0096 FB60     		str	r3, [r7, #12]
 629:Generated_Source\PSoC4/GLCD.c **** 			fraction += dy;
 1193              		.loc 1 629 0
 1194 0098 7A69     		ldr	r2, [r7, #20]
 1195 009a 7B6A     		ldr	r3, [r7, #36]
 1196 009c D318     		adds	r3, r2, r3
 1197 009e 7B61     		str	r3, [r7, #20]
 630:Generated_Source\PSoC4/GLCD.c **** 			GLCD_Pixel(x0, y0, color);
 1198              		.loc 1 630 0
 1199 00a0 3A6B     		ldr	r2, [r7, #48]
 1200 00a2 B968     		ldr	r1, [r7, #8]
 1201 00a4 FB68     		ldr	r3, [r7, #12]
 1202 00a6 1800     		movs	r0, r3
 1203 00a8 FFF7FEFF 		bl	GLCD_Pixel
 1204              	.L43:
 621:Generated_Source\PSoC4/GLCD.c **** 		{
 1205              		.loc 1 621 0
 1206 00ac FA68     		ldr	r2, [r7, #12]
 1207 00ae 7B68     		ldr	r3, [r7, #4]
 1208 00b0 9A42     		cmp	r2, r3
 1209 00b2 E2D1     		bne	.L45
 1210              	.LBE2:
 631:Generated_Source\PSoC4/GLCD.c **** 		}
 632:Generated_Source\PSoC4/GLCD.c **** 	}
 633:Generated_Source\PSoC4/GLCD.c **** 	else
 634:Generated_Source\PSoC4/GLCD.c **** 	{
 635:Generated_Source\PSoC4/GLCD.c **** 		int fraction = dx - (dy >> 1);
 636:Generated_Source\PSoC4/GLCD.c **** 		while (y0 != y1)
 637:Generated_Source\PSoC4/GLCD.c **** 		{
 638:Generated_Source\PSoC4/GLCD.c **** 			if (fraction >= 0)
 639:Generated_Source\PSoC4/GLCD.c **** 			{
 640:Generated_Source\PSoC4/GLCD.c **** 				x0 += stepx;
 641:Generated_Source\PSoC4/GLCD.c **** 				fraction -= dy;
 642:Generated_Source\PSoC4/GLCD.c **** 			}
 643:Generated_Source\PSoC4/GLCD.c **** 			y0 += stepy;
 644:Generated_Source\PSoC4/GLCD.c **** 			fraction += dx;
 645:Generated_Source\PSoC4/GLCD.c **** 			GLCD_Pixel( x0, y0, color);
 646:Generated_Source\PSoC4/GLCD.c **** 		}
 647:Generated_Source\PSoC4/GLCD.c **** 	}
 648:Generated_Source\PSoC4/GLCD.c **** }
 1211              		.loc 1 648 0
 1212 00b4 22E0     		b	.L50
 1213              	.L42:
 1214              	.LBB3:
 635:Generated_Source\PSoC4/GLCD.c **** 		while (y0 != y1)
 1215              		.loc 1 635 0
 1216 00b6 7B6A     		ldr	r3, [r7, #36]
 1217 00b8 5B10     		asrs	r3, r3, #1
 1218 00ba 3A6A     		ldr	r2, [r7, #32]
 1219 00bc D31A     		subs	r3, r2, r3
 1220 00be 3B61     		str	r3, [r7, #16]
 636:Generated_Source\PSoC4/GLCD.c **** 		{
 1221              		.loc 1 636 0
ARM GAS  C:\Users\sur\AppData\Local\Temp\ccifbkIH.s 			page 34


 1222 00c0 18E0     		b	.L47
 1223              	.L49:
 638:Generated_Source\PSoC4/GLCD.c **** 			{
 1224              		.loc 1 638 0
 1225 00c2 3B69     		ldr	r3, [r7, #16]
 1226 00c4 002B     		cmp	r3, #0
 1227 00c6 07DB     		blt	.L48
 640:Generated_Source\PSoC4/GLCD.c **** 				fraction -= dy;
 1228              		.loc 1 640 0
 1229 00c8 FA68     		ldr	r2, [r7, #12]
 1230 00ca FB69     		ldr	r3, [r7, #28]
 1231 00cc D318     		adds	r3, r2, r3
 1232 00ce FB60     		str	r3, [r7, #12]
 641:Generated_Source\PSoC4/GLCD.c **** 			}
 1233              		.loc 1 641 0
 1234 00d0 3A69     		ldr	r2, [r7, #16]
 1235 00d2 7B6A     		ldr	r3, [r7, #36]
 1236 00d4 D31A     		subs	r3, r2, r3
 1237 00d6 3B61     		str	r3, [r7, #16]
 1238              	.L48:
 643:Generated_Source\PSoC4/GLCD.c **** 			fraction += dx;
 1239              		.loc 1 643 0
 1240 00d8 BA68     		ldr	r2, [r7, #8]
 1241 00da BB69     		ldr	r3, [r7, #24]
 1242 00dc D318     		adds	r3, r2, r3
 1243 00de BB60     		str	r3, [r7, #8]
 644:Generated_Source\PSoC4/GLCD.c **** 			GLCD_Pixel( x0, y0, color);
 1244              		.loc 1 644 0
 1245 00e0 3A69     		ldr	r2, [r7, #16]
 1246 00e2 3B6A     		ldr	r3, [r7, #32]
 1247 00e4 D318     		adds	r3, r2, r3
 1248 00e6 3B61     		str	r3, [r7, #16]
 645:Generated_Source\PSoC4/GLCD.c **** 		}
 1249              		.loc 1 645 0
 1250 00e8 3A6B     		ldr	r2, [r7, #48]
 1251 00ea B968     		ldr	r1, [r7, #8]
 1252 00ec FB68     		ldr	r3, [r7, #12]
 1253 00ee 1800     		movs	r0, r3
 1254 00f0 FFF7FEFF 		bl	GLCD_Pixel
 1255              	.L47:
 636:Generated_Source\PSoC4/GLCD.c **** 		{
 1256              		.loc 1 636 0
 1257 00f4 BA68     		ldr	r2, [r7, #8]
 1258 00f6 3B68     		ldr	r3, [r7]
 1259 00f8 9A42     		cmp	r2, r3
 1260 00fa E2D1     		bne	.L49
 1261              	.L50:
 1262              	.LBE3:
 1263              		.loc 1 648 0
 1264 00fc C046     		nop
 1265 00fe BD46     		mov	sp, r7
 1266 0100 0AB0     		add	sp, sp, #40
 1267              		@ sp needed
 1268 0102 80BD     		pop	{r7, pc}
 1269              		.cfi_endproc
 1270              	.LFE11:
 1271              		.size	GLCD_DrawLine, .-GLCD_DrawLine
ARM GAS  C:\Users\sur\AppData\Local\Temp\ccifbkIH.s 			page 35


 1272              		.section	.text.GLCD_DrawRect,"ax",%progbits
 1273              		.align	2
 1274              		.global	GLCD_DrawRect
 1275              		.code	16
 1276              		.thumb_func
 1277              		.type	GLCD_DrawRect, %function
 1278              	GLCD_DrawRect:
 1279              	.LFB12:
 649:Generated_Source\PSoC4/GLCD.c **** 
 650:Generated_Source\PSoC4/GLCD.c **** /*******************************************************************************
 651:Generated_Source\PSoC4/GLCD.c **** * Function Name: GLCD_DrawRect
 652:Generated_Source\PSoC4/GLCD.c **** ********************************************************************************
 653:Generated_Source\PSoC4/GLCD.c **** *
 654:Generated_Source\PSoC4/GLCD.c **** * Summary:
 655:Generated_Source\PSoC4/GLCD.c **** *  Draw a rectangle, filled or not.  
 656:Generated_Source\PSoC4/GLCD.c **** *
 657:Generated_Source\PSoC4/GLCD.c **** * Parameters:  
 658:Generated_Source\PSoC4/GLCD.c **** *  x0, y0:  The upper lefthand corner.
 659:Generated_Source\PSoC4/GLCD.c **** *  x1, y1:  The lower right corner.
 660:Generated_Source\PSoC4/GLCD.c **** *  fill:    Non-Zero if retangle is to be filled.
 661:Generated_Source\PSoC4/GLCD.c **** *  color:   Color for rectangle, border and fill.
 662:Generated_Source\PSoC4/GLCD.c **** *
 663:Generated_Source\PSoC4/GLCD.c **** * Return: 
 664:Generated_Source\PSoC4/GLCD.c **** *  None 
 665:Generated_Source\PSoC4/GLCD.c **** *  
 666:Generated_Source\PSoC4/GLCD.c **** *******************************************************************************/
 667:Generated_Source\PSoC4/GLCD.c **** void GLCD_DrawRect(int32 x0, int32 y0, int32 x1, int32 y1, int32 fill, int32 color)
 668:Generated_Source\PSoC4/GLCD.c **** {	
 1280              		.loc 1 668 0
 1281              		.cfi_startproc
 1282              		@ args = 8, pretend = 0, frame = 24
 1283              		@ frame_needed = 1, uses_anonymous_args = 0
 1284 0000 90B5     		push	{r4, r7, lr}
 1285              		.cfi_def_cfa_offset 12
 1286              		.cfi_offset 4, -12
 1287              		.cfi_offset 7, -8
 1288              		.cfi_offset 14, -4
 1289 0002 89B0     		sub	sp, sp, #36
 1290              		.cfi_def_cfa_offset 48
 1291 0004 02AF     		add	r7, sp, #8
 1292              		.cfi_def_cfa 7, 40
 1293 0006 F860     		str	r0, [r7, #12]
 1294 0008 B960     		str	r1, [r7, #8]
 1295 000a 7A60     		str	r2, [r7, #4]
 1296 000c 3B60     		str	r3, [r7]
 669:Generated_Source\PSoC4/GLCD.c ****      int xDiff;
 670:Generated_Source\PSoC4/GLCD.c **** 	/* Check if the rectangle is to be filled    */
 671:Generated_Source\PSoC4/GLCD.c **** 	if (fill != 0)
 1297              		.loc 1 671 0
 1298 000e BB6A     		ldr	r3, [r7, #40]
 1299 0010 002B     		cmp	r3, #0
 1300 0012 28D0     		beq	.L52
 672:Generated_Source\PSoC4/GLCD.c **** 	{	
 673:Generated_Source\PSoC4/GLCD.c ****         /* Find the difference between the x vars */
 674:Generated_Source\PSoC4/GLCD.c **** 		if(x0 > x1)
 1301              		.loc 1 674 0
 1302 0014 FA68     		ldr	r2, [r7, #12]
ARM GAS  C:\Users\sur\AppData\Local\Temp\ccifbkIH.s 			page 36


 1303 0016 7B68     		ldr	r3, [r7, #4]
 1304 0018 9A42     		cmp	r2, r3
 1305 001a 04DD     		ble	.L53
 675:Generated_Source\PSoC4/GLCD.c **** 		{
 676:Generated_Source\PSoC4/GLCD.c **** 			xDiff = x0 - x1; 
 1306              		.loc 1 676 0
 1307 001c FA68     		ldr	r2, [r7, #12]
 1308 001e 7B68     		ldr	r3, [r7, #4]
 1309 0020 D31A     		subs	r3, r2, r3
 1310 0022 7B61     		str	r3, [r7, #20]
 1311 0024 1BE0     		b	.L55
 1312              	.L53:
 677:Generated_Source\PSoC4/GLCD.c **** 		}
 678:Generated_Source\PSoC4/GLCD.c **** 		else
 679:Generated_Source\PSoC4/GLCD.c **** 		{
 680:Generated_Source\PSoC4/GLCD.c **** 			xDiff = x1 - x0;
 1313              		.loc 1 680 0
 1314 0026 7A68     		ldr	r2, [r7, #4]
 1315 0028 FB68     		ldr	r3, [r7, #12]
 1316 002a D31A     		subs	r3, r2, r3
 1317 002c 7B61     		str	r3, [r7, #20]
 681:Generated_Source\PSoC4/GLCD.c **** 		}
 682:Generated_Source\PSoC4/GLCD.c **** 	
 683:Generated_Source\PSoC4/GLCD.c **** 	    /* Fill it with lines  */
 684:Generated_Source\PSoC4/GLCD.c **** 		while(xDiff >= 0)
 1318              		.loc 1 684 0
 1319 002e 16E0     		b	.L55
 1320              	.L58:
 685:Generated_Source\PSoC4/GLCD.c **** 		{
 686:Generated_Source\PSoC4/GLCD.c **** 			GLCD_DrawLine(x0, y0, x0, y1, color);
 1321              		.loc 1 686 0
 1322 0030 3C68     		ldr	r4, [r7]
 1323 0032 FA68     		ldr	r2, [r7, #12]
 1324 0034 B968     		ldr	r1, [r7, #8]
 1325 0036 F868     		ldr	r0, [r7, #12]
 1326 0038 FB6A     		ldr	r3, [r7, #44]
 1327 003a 0093     		str	r3, [sp]
 1328 003c 2300     		movs	r3, r4
 1329 003e FFF7FEFF 		bl	GLCD_DrawLine
 687:Generated_Source\PSoC4/GLCD.c **** 		
 688:Generated_Source\PSoC4/GLCD.c **** 			if(x0 > x1)
 1330              		.loc 1 688 0
 1331 0042 FA68     		ldr	r2, [r7, #12]
 1332 0044 7B68     		ldr	r3, [r7, #4]
 1333 0046 9A42     		cmp	r2, r3
 1334 0048 03DD     		ble	.L56
 689:Generated_Source\PSoC4/GLCD.c **** 				x0--;
 1335              		.loc 1 689 0
 1336 004a FB68     		ldr	r3, [r7, #12]
 1337 004c 013B     		subs	r3, r3, #1
 1338 004e FB60     		str	r3, [r7, #12]
 1339 0050 02E0     		b	.L57
 1340              	.L56:
 690:Generated_Source\PSoC4/GLCD.c **** 			else
 691:Generated_Source\PSoC4/GLCD.c **** 				x0++;
 1341              		.loc 1 691 0
 1342 0052 FB68     		ldr	r3, [r7, #12]
ARM GAS  C:\Users\sur\AppData\Local\Temp\ccifbkIH.s 			page 37


 1343 0054 0133     		adds	r3, r3, #1
 1344 0056 FB60     		str	r3, [r7, #12]
 1345              	.L57:
 692:Generated_Source\PSoC4/GLCD.c **** 		
 693:Generated_Source\PSoC4/GLCD.c **** 			xDiff--;
 1346              		.loc 1 693 0
 1347 0058 7B69     		ldr	r3, [r7, #20]
 1348 005a 013B     		subs	r3, r3, #1
 1349 005c 7B61     		str	r3, [r7, #20]
 1350              	.L55:
 684:Generated_Source\PSoC4/GLCD.c **** 		{
 1351              		.loc 1 684 0
 1352 005e 7B69     		ldr	r3, [r7, #20]
 1353 0060 002B     		cmp	r3, #0
 1354 0062 E5DA     		bge	.L58
 694:Generated_Source\PSoC4/GLCD.c **** 		}
 695:Generated_Source\PSoC4/GLCD.c **** 
 696:Generated_Source\PSoC4/GLCD.c **** 	}
 697:Generated_Source\PSoC4/GLCD.c **** 	else 
 698:Generated_Source\PSoC4/GLCD.c **** 	{
 699:Generated_Source\PSoC4/GLCD.c **** 		/* Draw the four sides of the rectangle */
 700:Generated_Source\PSoC4/GLCD.c **** 		GLCD_DrawLine(x0, y0, x1, y0, color);
 701:Generated_Source\PSoC4/GLCD.c **** 		GLCD_DrawLine(x0, y1, x1, y1, color);
 702:Generated_Source\PSoC4/GLCD.c **** 		GLCD_DrawLine(x0, y0, x0, y1, color);
 703:Generated_Source\PSoC4/GLCD.c **** 		GLCD_DrawLine(x1, y0, x1, y1, color);
 704:Generated_Source\PSoC4/GLCD.c **** 	}
 705:Generated_Source\PSoC4/GLCD.c **** }
 1355              		.loc 1 705 0
 1356 0064 23E0     		b	.L60
 1357              	.L52:
 700:Generated_Source\PSoC4/GLCD.c **** 		GLCD_DrawLine(x0, y1, x1, y1, color);
 1358              		.loc 1 700 0
 1359 0066 BC68     		ldr	r4, [r7, #8]
 1360 0068 7A68     		ldr	r2, [r7, #4]
 1361 006a B968     		ldr	r1, [r7, #8]
 1362 006c F868     		ldr	r0, [r7, #12]
 1363 006e FB6A     		ldr	r3, [r7, #44]
 1364 0070 0093     		str	r3, [sp]
 1365 0072 2300     		movs	r3, r4
 1366 0074 FFF7FEFF 		bl	GLCD_DrawLine
 701:Generated_Source\PSoC4/GLCD.c **** 		GLCD_DrawLine(x0, y0, x0, y1, color);
 1367              		.loc 1 701 0
 1368 0078 3C68     		ldr	r4, [r7]
 1369 007a 7A68     		ldr	r2, [r7, #4]
 1370 007c 3968     		ldr	r1, [r7]
 1371 007e F868     		ldr	r0, [r7, #12]
 1372 0080 FB6A     		ldr	r3, [r7, #44]
 1373 0082 0093     		str	r3, [sp]
 1374 0084 2300     		movs	r3, r4
 1375 0086 FFF7FEFF 		bl	GLCD_DrawLine
 702:Generated_Source\PSoC4/GLCD.c **** 		GLCD_DrawLine(x1, y0, x1, y1, color);
 1376              		.loc 1 702 0
 1377 008a 3C68     		ldr	r4, [r7]
 1378 008c FA68     		ldr	r2, [r7, #12]
 1379 008e B968     		ldr	r1, [r7, #8]
 1380 0090 F868     		ldr	r0, [r7, #12]
 1381 0092 FB6A     		ldr	r3, [r7, #44]
ARM GAS  C:\Users\sur\AppData\Local\Temp\ccifbkIH.s 			page 38


 1382 0094 0093     		str	r3, [sp]
 1383 0096 2300     		movs	r3, r4
 1384 0098 FFF7FEFF 		bl	GLCD_DrawLine
 703:Generated_Source\PSoC4/GLCD.c **** 	}
 1385              		.loc 1 703 0
 1386 009c 3C68     		ldr	r4, [r7]
 1387 009e 7A68     		ldr	r2, [r7, #4]
 1388 00a0 B968     		ldr	r1, [r7, #8]
 1389 00a2 7868     		ldr	r0, [r7, #4]
 1390 00a4 FB6A     		ldr	r3, [r7, #44]
 1391 00a6 0093     		str	r3, [sp]
 1392 00a8 2300     		movs	r3, r4
 1393 00aa FFF7FEFF 		bl	GLCD_DrawLine
 1394              	.L60:
 1395              		.loc 1 705 0
 1396 00ae C046     		nop
 1397 00b0 BD46     		mov	sp, r7
 1398 00b2 07B0     		add	sp, sp, #28
 1399              		@ sp needed
 1400 00b4 90BD     		pop	{r4, r7, pc}
 1401              		.cfi_endproc
 1402              	.LFE12:
 1403              		.size	GLCD_DrawRect, .-GLCD_DrawRect
 1404 00b6 C046     		.section	.text.GLCD_Off,"ax",%progbits
 1405              		.align	2
 1406              		.global	GLCD_Off
 1407              		.code	16
 1408              		.thumb_func
 1409              		.type	GLCD_Off, %function
 1410              	GLCD_Off:
 1411              	.LFB13:
 706:Generated_Source\PSoC4/GLCD.c **** 
 707:Generated_Source\PSoC4/GLCD.c **** 
 708:Generated_Source\PSoC4/GLCD.c **** /*******************************************************************************
 709:Generated_Source\PSoC4/GLCD.c **** * Function Name: GLCD_Off
 710:Generated_Source\PSoC4/GLCD.c **** ********************************************************************************
 711:Generated_Source\PSoC4/GLCD.c **** *
 712:Generated_Source\PSoC4/GLCD.c **** * Summary:
 713:Generated_Source\PSoC4/GLCD.c **** *  Turn off display
 714:Generated_Source\PSoC4/GLCD.c **** *
 715:Generated_Source\PSoC4/GLCD.c **** * Parameters:  
 716:Generated_Source\PSoC4/GLCD.c **** *  None 
 717:Generated_Source\PSoC4/GLCD.c **** *
 718:Generated_Source\PSoC4/GLCD.c **** * Return: 
 719:Generated_Source\PSoC4/GLCD.c **** *  None 
 720:Generated_Source\PSoC4/GLCD.c **** *  
 721:Generated_Source\PSoC4/GLCD.c **** *******************************************************************************/
 722:Generated_Source\PSoC4/GLCD.c **** void GLCD_Off(void)		/* Turn off the display  */
 723:Generated_Source\PSoC4/GLCD.c **** {
 1412              		.loc 1 723 0
 1413              		.cfi_startproc
 1414              		@ args = 0, pretend = 0, frame = 0
 1415              		@ frame_needed = 1, uses_anonymous_args = 0
 1416 0000 80B5     		push	{r7, lr}
 1417              		.cfi_def_cfa_offset 8
 1418              		.cfi_offset 7, -8
 1419              		.cfi_offset 14, -4
ARM GAS  C:\Users\sur\AppData\Local\Temp\ccifbkIH.s 			page 39


 1420 0002 00AF     		add	r7, sp, #0
 1421              		.cfi_def_cfa_register 7
 724:Generated_Source\PSoC4/GLCD.c ****     GLCD_Command(GLCD_DISPOFF);
 1422              		.loc 1 724 0
 1423 0004 2820     		movs	r0, #40
 1424 0006 FFF7FEFF 		bl	GLCD_Command
 725:Generated_Source\PSoC4/GLCD.c **** }
 1425              		.loc 1 725 0
 1426 000a C046     		nop
 1427 000c BD46     		mov	sp, r7
 1428              		@ sp needed
 1429 000e 80BD     		pop	{r7, pc}
 1430              		.cfi_endproc
 1431              	.LFE13:
 1432              		.size	GLCD_Off, .-GLCD_Off
 1433              		.section	.text.GLCD_On,"ax",%progbits
 1434              		.align	2
 1435              		.global	GLCD_On
 1436              		.code	16
 1437              		.thumb_func
 1438              		.type	GLCD_On, %function
 1439              	GLCD_On:
 1440              	.LFB14:
 726:Generated_Source\PSoC4/GLCD.c **** 
 727:Generated_Source\PSoC4/GLCD.c **** /*******************************************************************************
 728:Generated_Source\PSoC4/GLCD.c **** * Function Name: GLCD_On
 729:Generated_Source\PSoC4/GLCD.c **** ********************************************************************************
 730:Generated_Source\PSoC4/GLCD.c **** *
 731:Generated_Source\PSoC4/GLCD.c **** * Summary:
 732:Generated_Source\PSoC4/GLCD.c **** *  Turn on display
 733:Generated_Source\PSoC4/GLCD.c **** *
 734:Generated_Source\PSoC4/GLCD.c **** * Parameters:  
 735:Generated_Source\PSoC4/GLCD.c **** *  None 
 736:Generated_Source\PSoC4/GLCD.c **** *
 737:Generated_Source\PSoC4/GLCD.c **** * Return: 
 738:Generated_Source\PSoC4/GLCD.c **** *  None 
 739:Generated_Source\PSoC4/GLCD.c **** *  
 740:Generated_Source\PSoC4/GLCD.c **** *******************************************************************************/
 741:Generated_Source\PSoC4/GLCD.c **** void GLCD_On(void)		/* Turn on the display */
 742:Generated_Source\PSoC4/GLCD.c **** {
 1441              		.loc 1 742 0
 1442              		.cfi_startproc
 1443              		@ args = 0, pretend = 0, frame = 0
 1444              		@ frame_needed = 1, uses_anonymous_args = 0
 1445 0000 80B5     		push	{r7, lr}
 1446              		.cfi_def_cfa_offset 8
 1447              		.cfi_offset 7, -8
 1448              		.cfi_offset 14, -4
 1449 0002 00AF     		add	r7, sp, #0
 1450              		.cfi_def_cfa_register 7
 743:Generated_Source\PSoC4/GLCD.c ****     GLCD_Command(GLCD_DISPON);
 1451              		.loc 1 743 0
 1452 0004 2920     		movs	r0, #41
 1453 0006 FFF7FEFF 		bl	GLCD_Command
 744:Generated_Source\PSoC4/GLCD.c **** }
 1454              		.loc 1 744 0
 1455 000a C046     		nop
ARM GAS  C:\Users\sur\AppData\Local\Temp\ccifbkIH.s 			page 40


 1456 000c BD46     		mov	sp, r7
 1457              		@ sp needed
 1458 000e 80BD     		pop	{r7, pc}
 1459              		.cfi_endproc
 1460              	.LFE14:
 1461              		.size	GLCD_On, .-GLCD_On
 1462              		.text
 1463              	.Letext0:
 1464              		.file 2 "Generated_Source\\PSoC4\\cytypes.h"
 1465              		.file 3 "Generated_Source\\PSoC4\\GLCD.h"