ARM GAS  C:\Users\sur\AppData\Local\Temp\cc6i8Bsd.s 			page 1


   1              		.syntax unified
   2              		.cpu cortex-m0
   3              		.fpu softvfp
   4              		.eabi_attribute 20, 1
   5              		.eabi_attribute 21, 1
   6              		.eabi_attribute 23, 3
   7              		.eabi_attribute 24, 1
   8              		.eabi_attribute 25, 1
   9              		.eabi_attribute 26, 1
  10              		.eabi_attribute 30, 6
  11              		.eabi_attribute 34, 0
  12              		.eabi_attribute 18, 4
  13              		.thumb
  14              		.syntax unified
  15              		.file	"main.c"
  16              		.text
  17              	.Ltext0:
  18              		.cfi_sections	.debug_frame
  19              		.comm	GLCD_FONT8x16,1552,4
  20              		.global	__aeabi_i2d
  21              		.global	__aeabi_dmul
  22              		.global	__aeabi_ddiv
  23              		.global	__aeabi_d2iz
  24              		.section	.text.GLCD_Draw_Line_Polar,"ax",%progbits
  25              		.align	2
  26              		.global	GLCD_Draw_Line_Polar
  27              		.code	16
  28              		.thumb_func
  29              		.type	GLCD_Draw_Line_Polar, %function
  30              	GLCD_Draw_Line_Polar:
  31              	.LFB34:
  32              		.file 1 "main.c"
   1:main.c        **** 
   2:main.c        **** // Tai Doan
   3:main.c        **** // Assignment 1: Pacmania
   4:main.c        **** // The Pacmania program shall display a “Pacman” image on the PSoC4 GLCD.
   5:main.c        **** // The wedge-shaped mouth of the Pacman image shall be made to appear to open and close repeatedly 
   6:main.c        **** // as long as the program is running.
   7:main.c        **** 
   8:main.c        **** 
   9:main.c        **** #include <device.h>
  10:main.c        **** #include <header01.h>
  11:main.c        **** #include <math.h> 
  12:main.c        ****  
  13:main.c        **** void GLCD_Draw_Line_Polar(int centerX, int centerY, int angle, int length, int color) {
  33              		.loc 1 13 0
  34              		.cfi_startproc
  35              		@ args = 4, pretend = 0, frame = 40
  36              		@ frame_needed = 1, uses_anonymous_args = 0
  37 0000 B0B5     		push	{r4, r5, r7, lr}
  38              		.cfi_def_cfa_offset 16
  39              		.cfi_offset 4, -16
  40              		.cfi_offset 5, -12
  41              		.cfi_offset 7, -8
  42              		.cfi_offset 14, -4
  43 0002 8CB0     		sub	sp, sp, #48
  44              		.cfi_def_cfa_offset 64
ARM GAS  C:\Users\sur\AppData\Local\Temp\cc6i8Bsd.s 			page 2


  45 0004 02AF     		add	r7, sp, #8
  46              		.cfi_def_cfa 7, 56
  47 0006 F860     		str	r0, [r7, #12]
  48 0008 B960     		str	r1, [r7, #8]
  49 000a 7A60     		str	r2, [r7, #4]
  50 000c 3B60     		str	r3, [r7]
  14:main.c        ****     //draw a line from a center point to a point defined using a polar coordinate system
  15:main.c        ****     double pi = 3.14;
  51              		.loc 1 15 0
  52 000e 344B     		ldr	r3, .L2
  53 0010 344C     		ldr	r4, .L2+4
  54 0012 3B62     		str	r3, [r7, #32]
  55 0014 7C62     		str	r4, [r7, #36]
  16:main.c        ****     int x,y;
  17:main.c        ****     x=length*cos(angle*pi/180);
  56              		.loc 1 17 0
  57 0016 3868     		ldr	r0, [r7]
  58 0018 FFF7FEFF 		bl	__aeabi_i2d
  59 001c 0400     		movs	r4, r0
  60 001e 0D00     		movs	r5, r1
  61 0020 7868     		ldr	r0, [r7, #4]
  62 0022 FFF7FEFF 		bl	__aeabi_i2d
  63 0026 3A6A     		ldr	r2, [r7, #32]
  64 0028 7B6A     		ldr	r3, [r7, #36]
  65 002a FFF7FEFF 		bl	__aeabi_dmul
  66 002e 0200     		movs	r2, r0
  67 0030 0B00     		movs	r3, r1
  68 0032 1000     		movs	r0, r2
  69 0034 1900     		movs	r1, r3
  70 0036 0022     		movs	r2, #0
  71 0038 2B4B     		ldr	r3, .L2+8
  72 003a FFF7FEFF 		bl	__aeabi_ddiv
  73 003e 0200     		movs	r2, r0
  74 0040 0B00     		movs	r3, r1
  75 0042 1000     		movs	r0, r2
  76 0044 1900     		movs	r1, r3
  77 0046 FFF7FEFF 		bl	cos
  78 004a 0200     		movs	r2, r0
  79 004c 0B00     		movs	r3, r1
  80 004e 2000     		movs	r0, r4
  81 0050 2900     		movs	r1, r5
  82 0052 FFF7FEFF 		bl	__aeabi_dmul
  83 0056 0300     		movs	r3, r0
  84 0058 0C00     		movs	r4, r1
  85 005a 1800     		movs	r0, r3
  86 005c 2100     		movs	r1, r4
  87 005e FFF7FEFF 		bl	__aeabi_d2iz
  88 0062 0300     		movs	r3, r0
  89 0064 FB61     		str	r3, [r7, #28]
  18:main.c        ****     y=length*sin(angle*pi/180);
  90              		.loc 1 18 0
  91 0066 3868     		ldr	r0, [r7]
  92 0068 FFF7FEFF 		bl	__aeabi_i2d
  93 006c 0400     		movs	r4, r0
  94 006e 0D00     		movs	r5, r1
  95 0070 7868     		ldr	r0, [r7, #4]
  96 0072 FFF7FEFF 		bl	__aeabi_i2d
ARM GAS  C:\Users\sur\AppData\Local\Temp\cc6i8Bsd.s 			page 3


  97 0076 3A6A     		ldr	r2, [r7, #32]
  98 0078 7B6A     		ldr	r3, [r7, #36]
  99 007a FFF7FEFF 		bl	__aeabi_dmul
 100 007e 0200     		movs	r2, r0
 101 0080 0B00     		movs	r3, r1
 102 0082 1000     		movs	r0, r2
 103 0084 1900     		movs	r1, r3
 104 0086 0022     		movs	r2, #0
 105 0088 174B     		ldr	r3, .L2+8
 106 008a FFF7FEFF 		bl	__aeabi_ddiv
 107 008e 0200     		movs	r2, r0
 108 0090 0B00     		movs	r3, r1
 109 0092 1000     		movs	r0, r2
 110 0094 1900     		movs	r1, r3
 111 0096 FFF7FEFF 		bl	sin
 112 009a 0200     		movs	r2, r0
 113 009c 0B00     		movs	r3, r1
 114 009e 2000     		movs	r0, r4
 115 00a0 2900     		movs	r1, r5
 116 00a2 FFF7FEFF 		bl	__aeabi_dmul
 117 00a6 0300     		movs	r3, r0
 118 00a8 0C00     		movs	r4, r1
 119 00aa 1800     		movs	r0, r3
 120 00ac 2100     		movs	r1, r4
 121 00ae FFF7FEFF 		bl	__aeabi_d2iz
 122 00b2 0300     		movs	r3, r0
 123 00b4 BB61     		str	r3, [r7, #24]
  19:main.c        ****     int x2 = centerX+x;
 124              		.loc 1 19 0
 125 00b6 FA68     		ldr	r2, [r7, #12]
 126 00b8 FB69     		ldr	r3, [r7, #28]
 127 00ba D318     		adds	r3, r2, r3
 128 00bc 7B61     		str	r3, [r7, #20]
  20:main.c        ****     int y2 = centerY+y;
 129              		.loc 1 20 0
 130 00be BA68     		ldr	r2, [r7, #8]
 131 00c0 BB69     		ldr	r3, [r7, #24]
 132 00c2 D318     		adds	r3, r2, r3
 133 00c4 3B61     		str	r3, [r7, #16]
  21:main.c        ****     GLCD_DrawLine(centerX,centerY,y2,x2, color);
 134              		.loc 1 21 0
 135 00c6 7C69     		ldr	r4, [r7, #20]
 136 00c8 3A69     		ldr	r2, [r7, #16]
 137 00ca B968     		ldr	r1, [r7, #8]
 138 00cc F868     		ldr	r0, [r7, #12]
 139 00ce BB6B     		ldr	r3, [r7, #56]
 140 00d0 0093     		str	r3, [sp]
 141 00d2 2300     		movs	r3, r4
 142 00d4 FFF7FEFF 		bl	GLCD_DrawLine
  22:main.c        **** }
 143              		.loc 1 22 0
 144 00d8 C046     		nop
 145 00da BD46     		mov	sp, r7
 146 00dc 0AB0     		add	sp, sp, #40
 147              		@ sp needed
 148 00de B0BD     		pop	{r4, r5, r7, pc}
 149              	.L3:
ARM GAS  C:\Users\sur\AppData\Local\Temp\cc6i8Bsd.s 			page 4


 150              		.align	2
 151              	.L2:
 152 00e0 1F85EB51 		.word	1374389535
 153 00e4 B81E0940 		.word	1074339512
 154 00e8 00806640 		.word	1080459264
 155              		.cfi_endproc
 156              	.LFE34:
 157              		.size	GLCD_Draw_Line_Polar, .-GLCD_Draw_Line_Polar
 158              		.section	.text.main,"ax",%progbits
 159              		.align	2
 160              		.global	main
 161              		.code	16
 162              		.thumb_func
 163              		.type	main, %function
 164              	main:
 165              	.LFB35:
  23:main.c        **** int main()
  24:main.c        **** {
 166              		.loc 1 24 0
 167              		.cfi_startproc
 168              		@ args = 0, pretend = 0, frame = 32
 169              		@ frame_needed = 1, uses_anonymous_args = 0
 170 0000 80B5     		push	{r7, lr}
 171              		.cfi_def_cfa_offset 8
 172              		.cfi_offset 7, -8
 173              		.cfi_offset 14, -4
 174 0002 8AB0     		sub	sp, sp, #40
 175              		.cfi_def_cfa_offset 48
 176 0004 02AF     		add	r7, sp, #8
 177              		.cfi_def_cfa 7, 40
  25:main.c        ****     int16 i;       // counter variable -- int16 will take up less room than int32
  26:main.c        ****     int16 x = CENTER;  // x and y coordinates for center of circle
 178              		.loc 1 26 0
 179 0006 BB1D     		adds	r3, r7, #6
 180 0008 3E22     		movs	r2, #62
 181 000a 1A80     		strh	r2, [r3]
  27:main.c        ****     int16 y = CENTER;
 182              		.loc 1 27 0
 183 000c 3B1D     		adds	r3, r7, #4
 184 000e 3E22     		movs	r2, #62
 185 0010 1A80     		strh	r2, [r3]
  28:main.c        **** 	
  29:main.c        **** 	// Initialize LCD
  30:main.c        ****     GLCD_Start();  
 186              		.loc 1 30 0
 187 0012 FFF7FEFF 		bl	GLCD_Start
  31:main.c        ****     Backlight_Write(1);       // turn on backlight
 188              		.loc 1 31 0
 189 0016 0120     		movs	r0, #1
 190 0018 FFF7FEFF 		bl	Backlight_Write
  32:main.c        ****     
  33:main.c        ****     LED_Blue_Write(1); LED_Green_Write(1); LED_Red_Write(1); // turn off all LEDs (1 means off)
 191              		.loc 1 33 0
 192 001c 0120     		movs	r0, #1
 193 001e FFF7FEFF 		bl	LED_Blue_Write
 194 0022 0120     		movs	r0, #1
 195 0024 FFF7FEFF 		bl	LED_Green_Write
ARM GAS  C:\Users\sur\AppData\Local\Temp\cc6i8Bsd.s 			page 5


 196 0028 0120     		movs	r0, #1
 197 002a FFF7FEFF 		bl	LED_Red_Write
  34:main.c        ****  
  35:main.c        ****     
  36:main.c        ****     // clear LCD to black
  37:main.c        ****     GLCD_Clear(GLCD_BLACK);
 198              		.loc 1 37 0
 199 002e 0020     		movs	r0, #0
 200 0030 FFF7FEFF 		bl	GLCD_Clear
  38:main.c        ****         
  39:main.c        ****     // Draw a filled circle in yellow by drawing a series of circles of increasing radius 
  40:main.c        ****     for (i = 0; i<50; i++) {
 201              		.loc 1 40 0
 202 0034 1E23     		movs	r3, #30
 203 0036 FB18     		adds	r3, r7, r3
 204 0038 0022     		movs	r2, #0
 205 003a 1A80     		strh	r2, [r3]
 206 003c 17E0     		b	.L5
 207              	.L6:
  41:main.c        ****         GLCD_DrawCircle (x,y,i, GLCD_YELLOW);
 208              		.loc 1 41 0 discriminator 3
 209 003e BB1D     		adds	r3, r7, #6
 210 0040 0020     		movs	r0, #0
 211 0042 185E     		ldrsh	r0, [r3, r0]
 212 0044 3B1D     		adds	r3, r7, #4
 213 0046 0021     		movs	r1, #0
 214 0048 595E     		ldrsh	r1, [r3, r1]
 215 004a 1E23     		movs	r3, #30
 216 004c FB18     		adds	r3, r7, r3
 217 004e 0022     		movs	r2, #0
 218 0050 9A5E     		ldrsh	r2, [r3, r2]
 219 0052 FF23     		movs	r3, #255
 220 0054 1B01     		lsls	r3, r3, #4
 221 0056 FFF7FEFF 		bl	GLCD_DrawCircle
  40:main.c        ****         GLCD_DrawCircle (x,y,i, GLCD_YELLOW);
 222              		.loc 1 40 0 discriminator 3
 223 005a 1E23     		movs	r3, #30
 224 005c FB18     		adds	r3, r7, r3
 225 005e 0022     		movs	r2, #0
 226 0060 9B5E     		ldrsh	r3, [r3, r2]
 227 0062 9BB2     		uxth	r3, r3
 228 0064 0133     		adds	r3, r3, #1
 229 0066 9AB2     		uxth	r2, r3
 230 0068 1E23     		movs	r3, #30
 231 006a FB18     		adds	r3, r7, r3
 232 006c 1A80     		strh	r2, [r3]
 233              	.L5:
  40:main.c        ****         GLCD_DrawCircle (x,y,i, GLCD_YELLOW);
 234              		.loc 1 40 0 is_stmt 0 discriminator 1
 235 006e 1E23     		movs	r3, #30
 236 0070 FB18     		adds	r3, r7, r3
 237 0072 0022     		movs	r2, #0
 238 0074 9B5E     		ldrsh	r3, [r3, r2]
 239 0076 312B     		cmp	r3, #49
 240 0078 E1DD     		ble	.L6
 241              	.L17:
 242              	.LBB2:
ARM GAS  C:\Users\sur\AppData\Local\Temp\cc6i8Bsd.s 			page 6


  42:main.c        ****     }
  43:main.c        ****     //Loop for animation
  44:main.c        ****     while(1) {
  45:main.c        ****         //for loop to open the mouth
  46:main.c        ****         for (int i =0;i<35;i++) {   
 243              		.loc 1 46 0 is_stmt 1
 244 007a 0023     		movs	r3, #0
 245 007c BB61     		str	r3, [r7, #24]
 246 007e 1BE0     		b	.L7
 247              	.L8:
  47:main.c        ****             GLCD_Draw_Line_Polar(x,y,i,50,GLCD_BLACK);                  
 248              		.loc 1 47 0 discriminator 3
 249 0080 BB1D     		adds	r3, r7, #6
 250 0082 0020     		movs	r0, #0
 251 0084 185E     		ldrsh	r0, [r3, r0]
 252 0086 3B1D     		adds	r3, r7, #4
 253 0088 0021     		movs	r1, #0
 254 008a 595E     		ldrsh	r1, [r3, r1]
 255 008c BA69     		ldr	r2, [r7, #24]
 256 008e 0023     		movs	r3, #0
 257 0090 0093     		str	r3, [sp]
 258 0092 3223     		movs	r3, #50
 259 0094 FFF7FEFF 		bl	GLCD_Draw_Line_Polar
  48:main.c        ****             GLCD_Draw_Line_Polar(x,y,-i,50,GLCD_BLACK);
 260              		.loc 1 48 0 discriminator 3
 261 0098 BB1D     		adds	r3, r7, #6
 262 009a 0020     		movs	r0, #0
 263 009c 185E     		ldrsh	r0, [r3, r0]
 264 009e 3B1D     		adds	r3, r7, #4
 265 00a0 0021     		movs	r1, #0
 266 00a2 595E     		ldrsh	r1, [r3, r1]
 267 00a4 BB69     		ldr	r3, [r7, #24]
 268 00a6 5A42     		rsbs	r2, r3, #0
 269 00a8 0023     		movs	r3, #0
 270 00aa 0093     		str	r3, [sp]
 271 00ac 3223     		movs	r3, #50
 272 00ae FFF7FEFF 		bl	GLCD_Draw_Line_Polar
  46:main.c        ****             GLCD_Draw_Line_Polar(x,y,i,50,GLCD_BLACK);                  
 273              		.loc 1 46 0 discriminator 3
 274 00b2 BB69     		ldr	r3, [r7, #24]
 275 00b4 0133     		adds	r3, r3, #1
 276 00b6 BB61     		str	r3, [r7, #24]
 277              	.L7:
  46:main.c        ****             GLCD_Draw_Line_Polar(x,y,i,50,GLCD_BLACK);                  
 278              		.loc 1 46 0 is_stmt 0 discriminator 1
 279 00b8 BB69     		ldr	r3, [r7, #24]
 280 00ba 222B     		cmp	r3, #34
 281 00bc E0DD     		ble	.L8
 282              	.LBE2:
 283              	.LBB3:
  49:main.c        ****         }
  50:main.c        ****         //for loop to make a little moving dot
  51:main.c        ****         for (int j = 121;j>y+20;j--) {
 284              		.loc 1 51 0 is_stmt 1
 285 00be 7923     		movs	r3, #121
 286 00c0 7B61     		str	r3, [r7, #20]
 287 00c2 24E0     		b	.L9
ARM GAS  C:\Users\sur\AppData\Local\Temp\cc6i8Bsd.s 			page 7


 288              	.L14:
 289              	.LBB4:
  52:main.c        ****             for (int i = 0; i<5; i++) {
 290              		.loc 1 52 0
 291 00c4 0023     		movs	r3, #0
 292 00c6 3B61     		str	r3, [r7, #16]
 293 00c8 0AE0     		b	.L10
 294              	.L11:
  53:main.c        ****                 GLCD_DrawCircle(x,j,i,GLCD_PINK);
 295              		.loc 1 53 0 discriminator 3
 296 00ca BB1D     		adds	r3, r7, #6
 297 00cc 0020     		movs	r0, #0
 298 00ce 185E     		ldrsh	r0, [r3, r0]
 299 00d0 274B     		ldr	r3, .L18
 300 00d2 3A69     		ldr	r2, [r7, #16]
 301 00d4 7969     		ldr	r1, [r7, #20]
 302 00d6 FFF7FEFF 		bl	GLCD_DrawCircle
  52:main.c        ****             for (int i = 0; i<5; i++) {
 303              		.loc 1 52 0 discriminator 3
 304 00da 3B69     		ldr	r3, [r7, #16]
 305 00dc 0133     		adds	r3, r3, #1
 306 00de 3B61     		str	r3, [r7, #16]
 307              	.L10:
  52:main.c        ****             for (int i = 0; i<5; i++) {
 308              		.loc 1 52 0 is_stmt 0 discriminator 1
 309 00e0 3B69     		ldr	r3, [r7, #16]
 310 00e2 042B     		cmp	r3, #4
 311 00e4 F1DD     		ble	.L11
 312              	.LBE4:
 313              	.LBB5:
  54:main.c        ****             }
  55:main.c        ****             for (int i = 0; i<5; i++) {
 314              		.loc 1 55 0 is_stmt 1
 315 00e6 0023     		movs	r3, #0
 316 00e8 FB60     		str	r3, [r7, #12]
 317 00ea 0AE0     		b	.L12
 318              	.L13:
  56:main.c        ****                 GLCD_DrawCircle(x,j,i,GLCD_BLACK);
 319              		.loc 1 56 0 discriminator 3
 320 00ec BB1D     		adds	r3, r7, #6
 321 00ee 0020     		movs	r0, #0
 322 00f0 185E     		ldrsh	r0, [r3, r0]
 323 00f2 FA68     		ldr	r2, [r7, #12]
 324 00f4 7969     		ldr	r1, [r7, #20]
 325 00f6 0023     		movs	r3, #0
 326 00f8 FFF7FEFF 		bl	GLCD_DrawCircle
  55:main.c        ****                 GLCD_DrawCircle(x,j,i,GLCD_BLACK);
 327              		.loc 1 55 0 discriminator 3
 328 00fc FB68     		ldr	r3, [r7, #12]
 329 00fe 0133     		adds	r3, r3, #1
 330 0100 FB60     		str	r3, [r7, #12]
 331              	.L12:
  55:main.c        ****                 GLCD_DrawCircle(x,j,i,GLCD_BLACK);
 332              		.loc 1 55 0 is_stmt 0 discriminator 1
 333 0102 FB68     		ldr	r3, [r7, #12]
 334 0104 042B     		cmp	r3, #4
 335 0106 F1DD     		ble	.L13
ARM GAS  C:\Users\sur\AppData\Local\Temp\cc6i8Bsd.s 			page 8


 336              	.LBE5:
  51:main.c        ****             for (int i = 0; i<5; i++) {
 337              		.loc 1 51 0 is_stmt 1 discriminator 2
 338 0108 7B69     		ldr	r3, [r7, #20]
 339 010a 013B     		subs	r3, r3, #1
 340 010c 7B61     		str	r3, [r7, #20]
 341              	.L9:
  51:main.c        ****             for (int i = 0; i<5; i++) {
 342              		.loc 1 51 0 is_stmt 0 discriminator 1
 343 010e 3B1D     		adds	r3, r7, #4
 344 0110 0022     		movs	r2, #0
 345 0112 9B5E     		ldrsh	r3, [r3, r2]
 346 0114 1433     		adds	r3, r3, #20
 347 0116 1A00     		movs	r2, r3
 348 0118 7B69     		ldr	r3, [r7, #20]
 349 011a 9A42     		cmp	r2, r3
 350 011c D2DB     		blt	.L14
 351              	.LBE3:
 352              	.LBB6:
  57:main.c        ****             }
  58:main.c        ****         }
  59:main.c        ****         //for loop to close the mouth
  60:main.c        ****         for (int i =325;i<360;i++) {   
 353              		.loc 1 60 0 is_stmt 1
 354 011e 4623     		movs	r3, #70
 355 0120 FF33     		adds	r3, r3, #255
 356 0122 BB60     		str	r3, [r7, #8]
 357 0124 1DE0     		b	.L15
 358              	.L16:
  61:main.c        ****             GLCD_Draw_Line_Polar(x,y,i,50,GLCD_YELLOW);                  
 359              		.loc 1 61 0 discriminator 3
 360 0126 BB1D     		adds	r3, r7, #6
 361 0128 0020     		movs	r0, #0
 362 012a 185E     		ldrsh	r0, [r3, r0]
 363 012c 3B1D     		adds	r3, r7, #4
 364 012e 0021     		movs	r1, #0
 365 0130 595E     		ldrsh	r1, [r3, r1]
 366 0132 BA68     		ldr	r2, [r7, #8]
 367 0134 FF23     		movs	r3, #255
 368 0136 1B01     		lsls	r3, r3, #4
 369 0138 0093     		str	r3, [sp]
 370 013a 3223     		movs	r3, #50
 371 013c FFF7FEFF 		bl	GLCD_Draw_Line_Polar
  62:main.c        ****             GLCD_Draw_Line_Polar(x,y,-i,50,GLCD_YELLOW);
 372              		.loc 1 62 0 discriminator 3
 373 0140 BB1D     		adds	r3, r7, #6
 374 0142 0020     		movs	r0, #0
 375 0144 185E     		ldrsh	r0, [r3, r0]
 376 0146 3B1D     		adds	r3, r7, #4
 377 0148 0021     		movs	r1, #0
 378 014a 595E     		ldrsh	r1, [r3, r1]
 379 014c BB68     		ldr	r3, [r7, #8]
 380 014e 5A42     		rsbs	r2, r3, #0
 381 0150 FF23     		movs	r3, #255
 382 0152 1B01     		lsls	r3, r3, #4
 383 0154 0093     		str	r3, [sp]
 384 0156 3223     		movs	r3, #50
ARM GAS  C:\Users\sur\AppData\Local\Temp\cc6i8Bsd.s 			page 9


 385 0158 FFF7FEFF 		bl	GLCD_Draw_Line_Polar
  60:main.c        ****             GLCD_Draw_Line_Polar(x,y,i,50,GLCD_YELLOW);                  
 386              		.loc 1 60 0 discriminator 3
 387 015c BB68     		ldr	r3, [r7, #8]
 388 015e 0133     		adds	r3, r3, #1
 389 0160 BB60     		str	r3, [r7, #8]
 390              	.L15:
  60:main.c        ****             GLCD_Draw_Line_Polar(x,y,i,50,GLCD_YELLOW);                  
 391              		.loc 1 60 0 is_stmt 0 discriminator 1
 392 0162 BA68     		ldr	r2, [r7, #8]
 393 0164 6823     		movs	r3, #104
 394 0166 FF33     		adds	r3, r3, #255
 395 0168 9A42     		cmp	r2, r3
 396 016a DCDD     		ble	.L16
 397              	.LBE6:
  63:main.c        ****         }
  64:main.c        ****     }	
 398              		.loc 1 64 0 is_stmt 1
 399 016c 85E7     		b	.L17
 400              	.L19:
 401 016e C046     		.align	2
 402              	.L18:
 403 0170 6A0F0000 		.word	3946
 404              		.cfi_endproc
 405              	.LFE35:
 406              		.size	main, .-main
 407              		.text
 408              	.Letext0:
 409              		.file 2 "Generated_Source\\PSoC4/cytypes.h"
 410              		.file 3 "Generated_Source\\PSoC4/GLCD.h"