ARM GAS  C:\Users\bolding\AppData\Local\Temp\ccuUBCpR.s 			page 1


   1              		.cpu cortex-m0
   2              		.fpu softvfp
   3              		.eabi_attribute 20, 1
   4              		.eabi_attribute 21, 1
   5              		.eabi_attribute 23, 3
   6              		.eabi_attribute 24, 1
   7              		.eabi_attribute 25, 1
   8              		.eabi_attribute 26, 1
   9              		.eabi_attribute 30, 6
  10              		.eabi_attribute 34, 0
  11              		.eabi_attribute 18, 4
  12              		.code	16
  13              		.file	"GLCD_MOSI.c"
  14              		.text
  15              	.Ltext0:
  16              		.cfi_sections	.debug_frame
  17              		.section	.text.GLCD_MOSI_Write,"ax",%progbits
  18              		.align	2
  19              		.global	GLCD_MOSI_Write
  20              		.code	16
  21              		.thumb_func
  22              		.type	GLCD_MOSI_Write, %function
  23              	GLCD_MOSI_Write:
  24              	.LFB0:
  25              		.file 1 "Generated_Source\\PSoC4\\GLCD_MOSI.c"
   1:Generated_Source\PSoC4/GLCD_MOSI.c **** /*******************************************************************************
   2:Generated_Source\PSoC4/GLCD_MOSI.c **** * File Name: GLCD_MOSI.c  
   3:Generated_Source\PSoC4/GLCD_MOSI.c **** * Version 1.90
   4:Generated_Source\PSoC4/GLCD_MOSI.c **** *
   5:Generated_Source\PSoC4/GLCD_MOSI.c **** * Description:
   6:Generated_Source\PSoC4/GLCD_MOSI.c **** *  This file contains API to enable firmware control of a Pins component.
   7:Generated_Source\PSoC4/GLCD_MOSI.c **** *
   8:Generated_Source\PSoC4/GLCD_MOSI.c **** * Note:
   9:Generated_Source\PSoC4/GLCD_MOSI.c **** *
  10:Generated_Source\PSoC4/GLCD_MOSI.c **** ********************************************************************************
  11:Generated_Source\PSoC4/GLCD_MOSI.c **** * Copyright 2008-2012, Cypress Semiconductor Corporation.  All rights reserved.
  12:Generated_Source\PSoC4/GLCD_MOSI.c **** * You may use this file only in accordance with the license, terms, conditions, 
  13:Generated_Source\PSoC4/GLCD_MOSI.c **** * disclaimers, and limitations in the end user license agreement accompanying 
  14:Generated_Source\PSoC4/GLCD_MOSI.c **** * the software package with which this file was provided.
  15:Generated_Source\PSoC4/GLCD_MOSI.c **** *******************************************************************************/
  16:Generated_Source\PSoC4/GLCD_MOSI.c **** 
  17:Generated_Source\PSoC4/GLCD_MOSI.c **** #include "cytypes.h"
  18:Generated_Source\PSoC4/GLCD_MOSI.c **** #include "GLCD_MOSI.h"
  19:Generated_Source\PSoC4/GLCD_MOSI.c **** 
  20:Generated_Source\PSoC4/GLCD_MOSI.c **** #define SetP4PinDriveMode(shift, mode)  \
  21:Generated_Source\PSoC4/GLCD_MOSI.c ****     do { \
  22:Generated_Source\PSoC4/GLCD_MOSI.c ****         GLCD_MOSI_PC =   (GLCD_MOSI_PC & \
  23:Generated_Source\PSoC4/GLCD_MOSI.c ****                                 (uint32)(~(uint32)(GLCD_MOSI_DRIVE_MODE_IND_MASK << (GLCD_MOSI_DRIV
  24:Generated_Source\PSoC4/GLCD_MOSI.c ****                                 (uint32)((uint32)(mode) << (GLCD_MOSI_DRIVE_MODE_BITS * (shift))); 
  25:Generated_Source\PSoC4/GLCD_MOSI.c ****     } while (0)
  26:Generated_Source\PSoC4/GLCD_MOSI.c **** 
  27:Generated_Source\PSoC4/GLCD_MOSI.c **** 
  28:Generated_Source\PSoC4/GLCD_MOSI.c **** /*******************************************************************************
  29:Generated_Source\PSoC4/GLCD_MOSI.c **** * Function Name: GLCD_MOSI_Write
  30:Generated_Source\PSoC4/GLCD_MOSI.c **** ********************************************************************************
  31:Generated_Source\PSoC4/GLCD_MOSI.c **** *
  32:Generated_Source\PSoC4/GLCD_MOSI.c **** * Summary:
ARM GAS  C:\Users\bolding\AppData\Local\Temp\ccuUBCpR.s 			page 2


  33:Generated_Source\PSoC4/GLCD_MOSI.c **** *  Assign a new value to the digital port's data output register.  
  34:Generated_Source\PSoC4/GLCD_MOSI.c **** *
  35:Generated_Source\PSoC4/GLCD_MOSI.c **** * Parameters:  
  36:Generated_Source\PSoC4/GLCD_MOSI.c **** *  prtValue:  The value to be assigned to the Digital Port. 
  37:Generated_Source\PSoC4/GLCD_MOSI.c **** *
  38:Generated_Source\PSoC4/GLCD_MOSI.c **** * Return: 
  39:Generated_Source\PSoC4/GLCD_MOSI.c **** *  None 
  40:Generated_Source\PSoC4/GLCD_MOSI.c **** *  
  41:Generated_Source\PSoC4/GLCD_MOSI.c **** *******************************************************************************/
  42:Generated_Source\PSoC4/GLCD_MOSI.c **** void GLCD_MOSI_Write(uint8 value) 
  43:Generated_Source\PSoC4/GLCD_MOSI.c **** {
  26              		.loc 1 43 0
  27              		.cfi_startproc
  28 0000 80B5     		push	{r7, lr}
  29              		.cfi_def_cfa_offset 8
  30              		.cfi_offset 7, -8
  31              		.cfi_offset 14, -4
  32 0002 84B0     		sub	sp, sp, #16
  33              		.cfi_def_cfa_offset 24
  34 0004 00AF     		add	r7, sp, #0
  35              		.cfi_def_cfa_register 7
  36 0006 021C     		mov	r2, r0
  37 0008 FB1D     		add	r3, r7, #7
  38 000a 1A70     		strb	r2, [r3]
  44:Generated_Source\PSoC4/GLCD_MOSI.c ****     uint8 drVal = (uint8)(GLCD_MOSI_DR & (uint8)(~GLCD_MOSI_MASK));
  39              		.loc 1 44 0
  40 000c 0E4B     		ldr	r3, .L2
  41 000e 1B68     		ldr	r3, [r3]
  42 0010 DAB2     		uxtb	r2, r3
  43 0012 0F23     		mov	r3, #15
  44 0014 FB18     		add	r3, r7, r3
  45 0016 1021     		mov	r1, #16
  46 0018 8A43     		bic	r2, r1
  47 001a 1A70     		strb	r2, [r3]
  45:Generated_Source\PSoC4/GLCD_MOSI.c ****     drVal = (drVal | ((uint8)(value << GLCD_MOSI_SHIFT) & GLCD_MOSI_MASK));
  48              		.loc 1 45 0
  49 001c FB1D     		add	r3, r7, #7
  50 001e 1B78     		ldrb	r3, [r3]
  51 0020 1B01     		lsl	r3, r3, #4
  52 0022 DBB2     		uxtb	r3, r3
  53 0024 1022     		mov	r2, #16
  54 0026 1340     		and	r3, r2
  55 0028 D9B2     		uxtb	r1, r3
  56 002a 0F23     		mov	r3, #15
  57 002c FB18     		add	r3, r7, r3
  58 002e 0F22     		mov	r2, #15
  59 0030 BA18     		add	r2, r7, r2
  60 0032 1278     		ldrb	r2, [r2]
  61 0034 0A43     		orr	r2, r1
  62 0036 1A70     		strb	r2, [r3]
  46:Generated_Source\PSoC4/GLCD_MOSI.c ****     GLCD_MOSI_DR = (uint32)drVal;
  63              		.loc 1 46 0
  64 0038 034B     		ldr	r3, .L2
  65 003a 0F22     		mov	r2, #15
  66 003c BA18     		add	r2, r7, r2
  67 003e 1278     		ldrb	r2, [r2]
  68 0040 1A60     		str	r2, [r3]
ARM GAS  C:\Users\bolding\AppData\Local\Temp\ccuUBCpR.s 			page 3


  47:Generated_Source\PSoC4/GLCD_MOSI.c **** }
  69              		.loc 1 47 0
  70 0042 BD46     		mov	sp, r7
  71 0044 04B0     		add	sp, sp, #16
  72              		@ sp needed
  73 0046 80BD     		pop	{r7, pc}
  74              	.L3:
  75              		.align	2
  76              	.L2:
  77 0048 00030440 		.word	1074004736
  78              		.cfi_endproc
  79              	.LFE0:
  80              		.size	GLCD_MOSI_Write, .-GLCD_MOSI_Write
  81              		.section	.text.GLCD_MOSI_SetDriveMode,"ax",%progbits
  82              		.align	2
  83              		.global	GLCD_MOSI_SetDriveMode
  84              		.code	16
  85              		.thumb_func
  86              		.type	GLCD_MOSI_SetDriveMode, %function
  87              	GLCD_MOSI_SetDriveMode:
  88              	.LFB1:
  48:Generated_Source\PSoC4/GLCD_MOSI.c **** 
  49:Generated_Source\PSoC4/GLCD_MOSI.c **** 
  50:Generated_Source\PSoC4/GLCD_MOSI.c **** /*******************************************************************************
  51:Generated_Source\PSoC4/GLCD_MOSI.c **** * Function Name: GLCD_MOSI_SetDriveMode
  52:Generated_Source\PSoC4/GLCD_MOSI.c **** ********************************************************************************
  53:Generated_Source\PSoC4/GLCD_MOSI.c **** *
  54:Generated_Source\PSoC4/GLCD_MOSI.c **** * Summary:
  55:Generated_Source\PSoC4/GLCD_MOSI.c **** *  Change the drive mode on the pins of the port.
  56:Generated_Source\PSoC4/GLCD_MOSI.c **** * 
  57:Generated_Source\PSoC4/GLCD_MOSI.c **** * Parameters:  
  58:Generated_Source\PSoC4/GLCD_MOSI.c **** *  mode:  Change the pins to this drive mode.
  59:Generated_Source\PSoC4/GLCD_MOSI.c **** *
  60:Generated_Source\PSoC4/GLCD_MOSI.c **** * Return: 
  61:Generated_Source\PSoC4/GLCD_MOSI.c **** *  None
  62:Generated_Source\PSoC4/GLCD_MOSI.c **** *
  63:Generated_Source\PSoC4/GLCD_MOSI.c **** *******************************************************************************/
  64:Generated_Source\PSoC4/GLCD_MOSI.c **** void GLCD_MOSI_SetDriveMode(uint8 mode) 
  65:Generated_Source\PSoC4/GLCD_MOSI.c **** {
  89              		.loc 1 65 0
  90              		.cfi_startproc
  91 0000 80B5     		push	{r7, lr}
  92              		.cfi_def_cfa_offset 8
  93              		.cfi_offset 7, -8
  94              		.cfi_offset 14, -4
  95 0002 82B0     		sub	sp, sp, #8
  96              		.cfi_def_cfa_offset 16
  97 0004 00AF     		add	r7, sp, #0
  98              		.cfi_def_cfa_register 7
  99 0006 021C     		mov	r2, r0
 100 0008 FB1D     		add	r3, r7, #7
 101 000a 1A70     		strb	r2, [r3]
  66:Generated_Source\PSoC4/GLCD_MOSI.c **** 	SetP4PinDriveMode(GLCD_MOSI__0__SHIFT, mode);
 102              		.loc 1 66 0
 103 000c 064B     		ldr	r3, .L5
 104 000e 064A     		ldr	r2, .L5
 105 0010 1268     		ldr	r2, [r2]
ARM GAS  C:\Users\bolding\AppData\Local\Temp\ccuUBCpR.s 			page 4


 106 0012 0649     		ldr	r1, .L5+4
 107 0014 1140     		and	r1, r2
 108 0016 FA1D     		add	r2, r7, #7
 109 0018 1278     		ldrb	r2, [r2]
 110 001a 1203     		lsl	r2, r2, #12
 111 001c 0A43     		orr	r2, r1
 112 001e 1A60     		str	r2, [r3]
  67:Generated_Source\PSoC4/GLCD_MOSI.c **** }
 113              		.loc 1 67 0
 114 0020 BD46     		mov	sp, r7
 115 0022 02B0     		add	sp, sp, #8
 116              		@ sp needed
 117 0024 80BD     		pop	{r7, pc}
 118              	.L6:
 119 0026 C046     		.align	2
 120              	.L5:
 121 0028 08030440 		.word	1074004744
 122 002c FF8FFFFF 		.word	-28673
 123              		.cfi_endproc
 124              	.LFE1:
 125              		.size	GLCD_MOSI_SetDriveMode, .-GLCD_MOSI_SetDriveMode
 126              		.section	.text.GLCD_MOSI_Read,"ax",%progbits
 127              		.align	2
 128              		.global	GLCD_MOSI_Read
 129              		.code	16
 130              		.thumb_func
 131              		.type	GLCD_MOSI_Read, %function
 132              	GLCD_MOSI_Read:
 133              	.LFB2:
  68:Generated_Source\PSoC4/GLCD_MOSI.c **** 
  69:Generated_Source\PSoC4/GLCD_MOSI.c **** 
  70:Generated_Source\PSoC4/GLCD_MOSI.c **** /*******************************************************************************
  71:Generated_Source\PSoC4/GLCD_MOSI.c **** * Function Name: GLCD_MOSI_Read
  72:Generated_Source\PSoC4/GLCD_MOSI.c **** ********************************************************************************
  73:Generated_Source\PSoC4/GLCD_MOSI.c **** *
  74:Generated_Source\PSoC4/GLCD_MOSI.c **** * Summary:
  75:Generated_Source\PSoC4/GLCD_MOSI.c **** *  Read the current value on the pins of the Digital Port in right justified 
  76:Generated_Source\PSoC4/GLCD_MOSI.c **** *  form.
  77:Generated_Source\PSoC4/GLCD_MOSI.c **** *
  78:Generated_Source\PSoC4/GLCD_MOSI.c **** * Parameters:  
  79:Generated_Source\PSoC4/GLCD_MOSI.c **** *  None 
  80:Generated_Source\PSoC4/GLCD_MOSI.c **** *
  81:Generated_Source\PSoC4/GLCD_MOSI.c **** * Return: 
  82:Generated_Source\PSoC4/GLCD_MOSI.c **** *  Returns the current value of the Digital Port as a right justified number
  83:Generated_Source\PSoC4/GLCD_MOSI.c **** *  
  84:Generated_Source\PSoC4/GLCD_MOSI.c **** * Note:
  85:Generated_Source\PSoC4/GLCD_MOSI.c **** *  Macro GLCD_MOSI_ReadPS calls this function. 
  86:Generated_Source\PSoC4/GLCD_MOSI.c **** *  
  87:Generated_Source\PSoC4/GLCD_MOSI.c **** *******************************************************************************/
  88:Generated_Source\PSoC4/GLCD_MOSI.c **** uint8 GLCD_MOSI_Read(void) 
  89:Generated_Source\PSoC4/GLCD_MOSI.c **** {
 134              		.loc 1 89 0
 135              		.cfi_startproc
 136 0000 80B5     		push	{r7, lr}
 137              		.cfi_def_cfa_offset 8
 138              		.cfi_offset 7, -8
 139              		.cfi_offset 14, -4
ARM GAS  C:\Users\bolding\AppData\Local\Temp\ccuUBCpR.s 			page 5


 140 0002 00AF     		add	r7, sp, #0
 141              		.cfi_def_cfa_register 7
  90:Generated_Source\PSoC4/GLCD_MOSI.c ****     return (uint8)((GLCD_MOSI_PS & GLCD_MOSI_MASK) >> GLCD_MOSI_SHIFT);
 142              		.loc 1 90 0
 143 0004 044B     		ldr	r3, .L9
 144 0006 1B68     		ldr	r3, [r3]
 145 0008 1022     		mov	r2, #16
 146 000a 1340     		and	r3, r2
 147 000c 1B09     		lsr	r3, r3, #4
 148 000e DBB2     		uxtb	r3, r3
  91:Generated_Source\PSoC4/GLCD_MOSI.c **** }
 149              		.loc 1 91 0
 150 0010 181C     		mov	r0, r3
 151 0012 BD46     		mov	sp, r7
 152              		@ sp needed
 153 0014 80BD     		pop	{r7, pc}
 154              	.L10:
 155 0016 C046     		.align	2
 156              	.L9:
 157 0018 04030440 		.word	1074004740
 158              		.cfi_endproc
 159              	.LFE2:
 160              		.size	GLCD_MOSI_Read, .-GLCD_MOSI_Read
 161              		.section	.text.GLCD_MOSI_ReadDataReg,"ax",%progbits
 162              		.align	2
 163              		.global	GLCD_MOSI_ReadDataReg
 164              		.code	16
 165              		.thumb_func
 166              		.type	GLCD_MOSI_ReadDataReg, %function
 167              	GLCD_MOSI_ReadDataReg:
 168              	.LFB3:
  92:Generated_Source\PSoC4/GLCD_MOSI.c **** 
  93:Generated_Source\PSoC4/GLCD_MOSI.c **** 
  94:Generated_Source\PSoC4/GLCD_MOSI.c **** /*******************************************************************************
  95:Generated_Source\PSoC4/GLCD_MOSI.c **** * Function Name: GLCD_MOSI_ReadDataReg
  96:Generated_Source\PSoC4/GLCD_MOSI.c **** ********************************************************************************
  97:Generated_Source\PSoC4/GLCD_MOSI.c **** *
  98:Generated_Source\PSoC4/GLCD_MOSI.c **** * Summary:
  99:Generated_Source\PSoC4/GLCD_MOSI.c **** *  Read the current value assigned to a Digital Port's data output register
 100:Generated_Source\PSoC4/GLCD_MOSI.c **** *
 101:Generated_Source\PSoC4/GLCD_MOSI.c **** * Parameters:  
 102:Generated_Source\PSoC4/GLCD_MOSI.c **** *  None 
 103:Generated_Source\PSoC4/GLCD_MOSI.c **** *
 104:Generated_Source\PSoC4/GLCD_MOSI.c **** * Return: 
 105:Generated_Source\PSoC4/GLCD_MOSI.c **** *  Returns the current value assigned to the Digital Port's data output register
 106:Generated_Source\PSoC4/GLCD_MOSI.c **** *  
 107:Generated_Source\PSoC4/GLCD_MOSI.c **** *******************************************************************************/
 108:Generated_Source\PSoC4/GLCD_MOSI.c **** uint8 GLCD_MOSI_ReadDataReg(void) 
 109:Generated_Source\PSoC4/GLCD_MOSI.c **** {
 169              		.loc 1 109 0
 170              		.cfi_startproc
 171 0000 80B5     		push	{r7, lr}
 172              		.cfi_def_cfa_offset 8
 173              		.cfi_offset 7, -8
 174              		.cfi_offset 14, -4
 175 0002 00AF     		add	r7, sp, #0
 176              		.cfi_def_cfa_register 7
ARM GAS  C:\Users\bolding\AppData\Local\Temp\ccuUBCpR.s 			page 6


 110:Generated_Source\PSoC4/GLCD_MOSI.c ****     return (uint8)((GLCD_MOSI_DR & GLCD_MOSI_MASK) >> GLCD_MOSI_SHIFT);
 177              		.loc 1 110 0
 178 0004 044B     		ldr	r3, .L13
 179 0006 1B68     		ldr	r3, [r3]
 180 0008 1022     		mov	r2, #16
 181 000a 1340     		and	r3, r2
 182 000c 1B09     		lsr	r3, r3, #4
 183 000e DBB2     		uxtb	r3, r3
 111:Generated_Source\PSoC4/GLCD_MOSI.c **** }
 184              		.loc 1 111 0
 185 0010 181C     		mov	r0, r3
 186 0012 BD46     		mov	sp, r7
 187              		@ sp needed
 188 0014 80BD     		pop	{r7, pc}
 189              	.L14:
 190 0016 C046     		.align	2
 191              	.L13:
 192 0018 00030440 		.word	1074004736
 193              		.cfi_endproc
 194              	.LFE3:
 195              		.size	GLCD_MOSI_ReadDataReg, .-GLCD_MOSI_ReadDataReg
 196              		.section	.text.GLCD_MOSI_ClearInterrupt,"ax",%progbits
 197              		.align	2
 198              		.global	GLCD_MOSI_ClearInterrupt
 199              		.code	16
 200              		.thumb_func
 201              		.type	GLCD_MOSI_ClearInterrupt, %function
 202              	GLCD_MOSI_ClearInterrupt:
 203              	.LFB4:
 112:Generated_Source\PSoC4/GLCD_MOSI.c **** 
 113:Generated_Source\PSoC4/GLCD_MOSI.c **** 
 114:Generated_Source\PSoC4/GLCD_MOSI.c **** /* If Interrupts Are Enabled for this Pins component */ 
 115:Generated_Source\PSoC4/GLCD_MOSI.c **** #if defined(GLCD_MOSI_INTSTAT) 
 116:Generated_Source\PSoC4/GLCD_MOSI.c **** 
 117:Generated_Source\PSoC4/GLCD_MOSI.c ****     /*******************************************************************************
 118:Generated_Source\PSoC4/GLCD_MOSI.c ****     * Function Name: GLCD_MOSI_ClearInterrupt
 119:Generated_Source\PSoC4/GLCD_MOSI.c ****     ********************************************************************************
 120:Generated_Source\PSoC4/GLCD_MOSI.c ****     *
 121:Generated_Source\PSoC4/GLCD_MOSI.c ****     * Summary:
 122:Generated_Source\PSoC4/GLCD_MOSI.c ****     *  Clears any active interrupts attached to port and returns the value of the 
 123:Generated_Source\PSoC4/GLCD_MOSI.c ****     *  interrupt status register.
 124:Generated_Source\PSoC4/GLCD_MOSI.c ****     *
 125:Generated_Source\PSoC4/GLCD_MOSI.c ****     * Parameters:  
 126:Generated_Source\PSoC4/GLCD_MOSI.c ****     *  None 
 127:Generated_Source\PSoC4/GLCD_MOSI.c ****     *
 128:Generated_Source\PSoC4/GLCD_MOSI.c ****     * Return: 
 129:Generated_Source\PSoC4/GLCD_MOSI.c ****     *  Returns the value of the interrupt status register
 130:Generated_Source\PSoC4/GLCD_MOSI.c ****     *  
 131:Generated_Source\PSoC4/GLCD_MOSI.c ****     *******************************************************************************/
 132:Generated_Source\PSoC4/GLCD_MOSI.c ****     uint8 GLCD_MOSI_ClearInterrupt(void) 
 133:Generated_Source\PSoC4/GLCD_MOSI.c ****     {
 204              		.loc 1 133 0
 205              		.cfi_startproc
 206 0000 80B5     		push	{r7, lr}
 207              		.cfi_def_cfa_offset 8
 208              		.cfi_offset 7, -8
 209              		.cfi_offset 14, -4
ARM GAS  C:\Users\bolding\AppData\Local\Temp\ccuUBCpR.s 			page 7


 210 0002 82B0     		sub	sp, sp, #8
 211              		.cfi_def_cfa_offset 16
 212 0004 00AF     		add	r7, sp, #0
 213              		.cfi_def_cfa_register 7
 134:Generated_Source\PSoC4/GLCD_MOSI.c **** 		uint8 maskedStatus = (uint8)(GLCD_MOSI_INTSTAT & GLCD_MOSI_MASK);
 214              		.loc 1 134 0
 215 0006 094B     		ldr	r3, .L17
 216 0008 1B68     		ldr	r3, [r3]
 217 000a DAB2     		uxtb	r2, r3
 218 000c FB1D     		add	r3, r7, #7
 219 000e 1021     		mov	r1, #16
 220 0010 0A40     		and	r2, r1
 221 0012 1A70     		strb	r2, [r3]
 135:Generated_Source\PSoC4/GLCD_MOSI.c **** 		GLCD_MOSI_INTSTAT = maskedStatus;
 222              		.loc 1 135 0
 223 0014 054B     		ldr	r3, .L17
 224 0016 FA1D     		add	r2, r7, #7
 225 0018 1278     		ldrb	r2, [r2]
 226 001a 1A60     		str	r2, [r3]
 136:Generated_Source\PSoC4/GLCD_MOSI.c ****         return maskedStatus >> GLCD_MOSI_SHIFT;
 227              		.loc 1 136 0
 228 001c FB1D     		add	r3, r7, #7
 229 001e 1B78     		ldrb	r3, [r3]
 230 0020 1B09     		lsr	r3, r3, #4
 231 0022 DBB2     		uxtb	r3, r3
 137:Generated_Source\PSoC4/GLCD_MOSI.c ****     }
 232              		.loc 1 137 0
 233 0024 181C     		mov	r0, r3
 234 0026 BD46     		mov	sp, r7
 235 0028 02B0     		add	sp, sp, #8
 236              		@ sp needed
 237 002a 80BD     		pop	{r7, pc}
 238              	.L18:
 239              		.align	2
 240              	.L17:
 241 002c 10030440 		.word	1074004752
 242              		.cfi_endproc
 243              	.LFE4:
 244              		.size	GLCD_MOSI_ClearInterrupt, .-GLCD_MOSI_ClearInterrupt
 245              		.text
 246              	.Letext0:
 247              		.file 2 "Generated_Source\\PSoC4\\cytypes.h"