ARM GAS  C:\Users\bolding\AppData\Local\Temp\ccUPayRE.s 			page 1


   1              		.cpu cortex-m0
   2              		.fpu softvfp
   3              		.eabi_attribute 20, 1
   4              		.eabi_attribute 21, 1
   5              		.eabi_attribute 23, 3
   6              		.eabi_attribute 24, 1
   7              		.eabi_attribute 25, 1
   8              		.eabi_attribute 26, 1
   9              		.eabi_attribute 30, 6
  10              		.eabi_attribute 34, 0
  11              		.eabi_attribute 18, 4
  12              		.code	16
  13              		.file	"GLCD_SPIM_UDB_INT.c"
  14              		.text
  15              	.Ltext0:
  16              		.cfi_sections	.debug_frame
  17              		.section	.text.GLCD_SPIM_UDB_TX_ISR,"ax",%progbits
  18              		.align	2
  19              		.global	GLCD_SPIM_UDB_TX_ISR
  20              		.code	16
  21              		.thumb_func
  22              		.type	GLCD_SPIM_UDB_TX_ISR, %function
  23              	GLCD_SPIM_UDB_TX_ISR:
  24              	.LFB0:
  25              		.file 1 "Generated_Source\\PSoC4\\GLCD_SPIM_UDB_INT.c"
   1:Generated_Source\PSoC4/GLCD_SPIM_UDB_INT.c **** /*******************************************************************************
   2:Generated_Source\PSoC4/GLCD_SPIM_UDB_INT.c **** * File Name: GLCD_SPIM_UDB_INT.c
   3:Generated_Source\PSoC4/GLCD_SPIM_UDB_INT.c **** * Version 2.40
   4:Generated_Source\PSoC4/GLCD_SPIM_UDB_INT.c **** *
   5:Generated_Source\PSoC4/GLCD_SPIM_UDB_INT.c **** * Description:
   6:Generated_Source\PSoC4/GLCD_SPIM_UDB_INT.c **** *  This file provides all Interrupt Service Routine (ISR) for the SPI Master
   7:Generated_Source\PSoC4/GLCD_SPIM_UDB_INT.c **** *  component.
   8:Generated_Source\PSoC4/GLCD_SPIM_UDB_INT.c **** *
   9:Generated_Source\PSoC4/GLCD_SPIM_UDB_INT.c **** * Note:
  10:Generated_Source\PSoC4/GLCD_SPIM_UDB_INT.c **** *  None.
  11:Generated_Source\PSoC4/GLCD_SPIM_UDB_INT.c **** *
  12:Generated_Source\PSoC4/GLCD_SPIM_UDB_INT.c **** ********************************************************************************
  13:Generated_Source\PSoC4/GLCD_SPIM_UDB_INT.c **** * Copyright 2008-2012, Cypress Semiconductor Corporation.  All rights reserved.
  14:Generated_Source\PSoC4/GLCD_SPIM_UDB_INT.c **** * You may use this file only in accordance with the license, terms, conditions,
  15:Generated_Source\PSoC4/GLCD_SPIM_UDB_INT.c **** * disclaimers, and limitations in the end user license agreement accompanying
  16:Generated_Source\PSoC4/GLCD_SPIM_UDB_INT.c **** * the software package with which this file was provided.
  17:Generated_Source\PSoC4/GLCD_SPIM_UDB_INT.c **** *******************************************************************************/
  18:Generated_Source\PSoC4/GLCD_SPIM_UDB_INT.c **** 
  19:Generated_Source\PSoC4/GLCD_SPIM_UDB_INT.c **** #include "GLCD_SPIM_UDB_PVT.h"
  20:Generated_Source\PSoC4/GLCD_SPIM_UDB_INT.c **** 
  21:Generated_Source\PSoC4/GLCD_SPIM_UDB_INT.c **** /* User code required at start of ISR */
  22:Generated_Source\PSoC4/GLCD_SPIM_UDB_INT.c **** /* `#START GLCD_SPIM_UDB_ISR_START_DEF` */
  23:Generated_Source\PSoC4/GLCD_SPIM_UDB_INT.c **** 
  24:Generated_Source\PSoC4/GLCD_SPIM_UDB_INT.c **** /* `#END` */
  25:Generated_Source\PSoC4/GLCD_SPIM_UDB_INT.c **** 
  26:Generated_Source\PSoC4/GLCD_SPIM_UDB_INT.c **** 
  27:Generated_Source\PSoC4/GLCD_SPIM_UDB_INT.c **** /*******************************************************************************
  28:Generated_Source\PSoC4/GLCD_SPIM_UDB_INT.c **** * Function Name: GLCD_SPIM_UDB_TX_ISR
  29:Generated_Source\PSoC4/GLCD_SPIM_UDB_INT.c **** ********************************************************************************
  30:Generated_Source\PSoC4/GLCD_SPIM_UDB_INT.c **** *
  31:Generated_Source\PSoC4/GLCD_SPIM_UDB_INT.c **** * Summary:
  32:Generated_Source\PSoC4/GLCD_SPIM_UDB_INT.c **** *  Interrupt Service Routine for TX portion of the SPI Master.
ARM GAS  C:\Users\bolding\AppData\Local\Temp\ccUPayRE.s 			page 2


  33:Generated_Source\PSoC4/GLCD_SPIM_UDB_INT.c **** *
  34:Generated_Source\PSoC4/GLCD_SPIM_UDB_INT.c **** * Parameters:
  35:Generated_Source\PSoC4/GLCD_SPIM_UDB_INT.c **** *  None.
  36:Generated_Source\PSoC4/GLCD_SPIM_UDB_INT.c **** *
  37:Generated_Source\PSoC4/GLCD_SPIM_UDB_INT.c **** * Return:
  38:Generated_Source\PSoC4/GLCD_SPIM_UDB_INT.c **** *  None.
  39:Generated_Source\PSoC4/GLCD_SPIM_UDB_INT.c **** *
  40:Generated_Source\PSoC4/GLCD_SPIM_UDB_INT.c **** * Global variables:
  41:Generated_Source\PSoC4/GLCD_SPIM_UDB_INT.c **** *  GLCD_SPIM_UDB_txBufferWrite - used for the account of the bytes which
  42:Generated_Source\PSoC4/GLCD_SPIM_UDB_INT.c **** *  have been written down in the TX software buffer.
  43:Generated_Source\PSoC4/GLCD_SPIM_UDB_INT.c **** *  GLCD_SPIM_UDB_txBufferRead - used for the account of the bytes which
  44:Generated_Source\PSoC4/GLCD_SPIM_UDB_INT.c **** *  have been read from the TX software buffer, modified when exist data to
  45:Generated_Source\PSoC4/GLCD_SPIM_UDB_INT.c **** *  sending and FIFO Not Full.
  46:Generated_Source\PSoC4/GLCD_SPIM_UDB_INT.c **** *  GLCD_SPIM_UDB_txBuffer[GLCD_SPIM_UDB_TX_BUFFER_SIZE] - used to store
  47:Generated_Source\PSoC4/GLCD_SPIM_UDB_INT.c **** *  data to sending.
  48:Generated_Source\PSoC4/GLCD_SPIM_UDB_INT.c **** *  All described above Global variables are used when Software Buffer is used.
  49:Generated_Source\PSoC4/GLCD_SPIM_UDB_INT.c **** *
  50:Generated_Source\PSoC4/GLCD_SPIM_UDB_INT.c **** *******************************************************************************/
  51:Generated_Source\PSoC4/GLCD_SPIM_UDB_INT.c **** CY_ISR(GLCD_SPIM_UDB_TX_ISR)
  52:Generated_Source\PSoC4/GLCD_SPIM_UDB_INT.c **** {
  26              		.loc 1 52 0
  27              		.cfi_startproc
  28 0000 80B5     		push	{r7, lr}
  29              		.cfi_def_cfa_offset 8
  30              		.cfi_offset 7, -8
  31              		.cfi_offset 14, -4
  32 0002 00AF     		add	r7, sp, #0
  33              		.cfi_def_cfa_register 7
  53:Generated_Source\PSoC4/GLCD_SPIM_UDB_INT.c ****     #if(GLCD_SPIM_UDB_TX_SOFTWARE_BUF_ENABLED)
  54:Generated_Source\PSoC4/GLCD_SPIM_UDB_INT.c ****         uint8 tmpStatus;
  55:Generated_Source\PSoC4/GLCD_SPIM_UDB_INT.c ****     #endif /* (GLCD_SPIM_UDB_TX_SOFTWARE_BUF_ENABLED) */
  56:Generated_Source\PSoC4/GLCD_SPIM_UDB_INT.c **** 
  57:Generated_Source\PSoC4/GLCD_SPIM_UDB_INT.c ****     /* User code required at start of ISR */
  58:Generated_Source\PSoC4/GLCD_SPIM_UDB_INT.c ****     /* `#START GLCD_SPIM_UDB_TX_ISR_START` */
  59:Generated_Source\PSoC4/GLCD_SPIM_UDB_INT.c **** 
  60:Generated_Source\PSoC4/GLCD_SPIM_UDB_INT.c ****     /* `#END` */
  61:Generated_Source\PSoC4/GLCD_SPIM_UDB_INT.c **** 
  62:Generated_Source\PSoC4/GLCD_SPIM_UDB_INT.c ****     #if(GLCD_SPIM_UDB_TX_SOFTWARE_BUF_ENABLED)
  63:Generated_Source\PSoC4/GLCD_SPIM_UDB_INT.c ****         /* Check if TX data buffer is not empty and there is space in TX FIFO */
  64:Generated_Source\PSoC4/GLCD_SPIM_UDB_INT.c ****         while(GLCD_SPIM_UDB_txBufferRead != GLCD_SPIM_UDB_txBufferWrite)
  65:Generated_Source\PSoC4/GLCD_SPIM_UDB_INT.c ****         {
  66:Generated_Source\PSoC4/GLCD_SPIM_UDB_INT.c ****             tmpStatus = GLCD_SPIM_UDB_GET_STATUS_TX(GLCD_SPIM_UDB_swStatusTx);
  67:Generated_Source\PSoC4/GLCD_SPIM_UDB_INT.c ****             GLCD_SPIM_UDB_swStatusTx = tmpStatus;
  68:Generated_Source\PSoC4/GLCD_SPIM_UDB_INT.c **** 
  69:Generated_Source\PSoC4/GLCD_SPIM_UDB_INT.c ****             if(0u != (GLCD_SPIM_UDB_swStatusTx & GLCD_SPIM_UDB_STS_TX_FIFO_NOT_FULL))
  70:Generated_Source\PSoC4/GLCD_SPIM_UDB_INT.c ****             {
  71:Generated_Source\PSoC4/GLCD_SPIM_UDB_INT.c ****                 if(0u == GLCD_SPIM_UDB_txBufferFull)
  72:Generated_Source\PSoC4/GLCD_SPIM_UDB_INT.c ****                 {
  73:Generated_Source\PSoC4/GLCD_SPIM_UDB_INT.c ****                    GLCD_SPIM_UDB_txBufferRead++;
  74:Generated_Source\PSoC4/GLCD_SPIM_UDB_INT.c **** 
  75:Generated_Source\PSoC4/GLCD_SPIM_UDB_INT.c ****                     if(GLCD_SPIM_UDB_txBufferRead >= GLCD_SPIM_UDB_TX_BUFFER_SIZE)
  76:Generated_Source\PSoC4/GLCD_SPIM_UDB_INT.c ****                     {
  77:Generated_Source\PSoC4/GLCD_SPIM_UDB_INT.c ****                         GLCD_SPIM_UDB_txBufferRead = 0u;
  78:Generated_Source\PSoC4/GLCD_SPIM_UDB_INT.c ****                     }
  79:Generated_Source\PSoC4/GLCD_SPIM_UDB_INT.c ****                 }
  80:Generated_Source\PSoC4/GLCD_SPIM_UDB_INT.c ****                 else
  81:Generated_Source\PSoC4/GLCD_SPIM_UDB_INT.c ****                 {
ARM GAS  C:\Users\bolding\AppData\Local\Temp\ccUPayRE.s 			page 3


  82:Generated_Source\PSoC4/GLCD_SPIM_UDB_INT.c ****                     GLCD_SPIM_UDB_txBufferFull = 0u;
  83:Generated_Source\PSoC4/GLCD_SPIM_UDB_INT.c ****                 }
  84:Generated_Source\PSoC4/GLCD_SPIM_UDB_INT.c **** 
  85:Generated_Source\PSoC4/GLCD_SPIM_UDB_INT.c ****                 /* Move data from the Buffer to the FIFO */
  86:Generated_Source\PSoC4/GLCD_SPIM_UDB_INT.c ****                 CY_SET_REG16(GLCD_SPIM_UDB_TXDATA_PTR,
  87:Generated_Source\PSoC4/GLCD_SPIM_UDB_INT.c ****                     GLCD_SPIM_UDB_txBuffer[GLCD_SPIM_UDB_txBufferRead]);
  88:Generated_Source\PSoC4/GLCD_SPIM_UDB_INT.c ****             }
  89:Generated_Source\PSoC4/GLCD_SPIM_UDB_INT.c ****             else
  90:Generated_Source\PSoC4/GLCD_SPIM_UDB_INT.c ****             {
  91:Generated_Source\PSoC4/GLCD_SPIM_UDB_INT.c ****                 break;
  92:Generated_Source\PSoC4/GLCD_SPIM_UDB_INT.c ****             }
  93:Generated_Source\PSoC4/GLCD_SPIM_UDB_INT.c ****         }
  94:Generated_Source\PSoC4/GLCD_SPIM_UDB_INT.c **** 
  95:Generated_Source\PSoC4/GLCD_SPIM_UDB_INT.c ****         if(GLCD_SPIM_UDB_txBufferRead == GLCD_SPIM_UDB_txBufferWrite)
  96:Generated_Source\PSoC4/GLCD_SPIM_UDB_INT.c ****         {
  97:Generated_Source\PSoC4/GLCD_SPIM_UDB_INT.c ****             /* TX Buffer is EMPTY: disable interrupt on TX NOT FULL */
  98:Generated_Source\PSoC4/GLCD_SPIM_UDB_INT.c ****             GLCD_SPIM_UDB_TX_STATUS_MASK_REG &= ((uint8) ~GLCD_SPIM_UDB_STS_TX_FIFO_NOT_FULL);
  99:Generated_Source\PSoC4/GLCD_SPIM_UDB_INT.c ****         }
 100:Generated_Source\PSoC4/GLCD_SPIM_UDB_INT.c **** 
 101:Generated_Source\PSoC4/GLCD_SPIM_UDB_INT.c ****     #endif /* (GLCD_SPIM_UDB_TX_SOFTWARE_BUF_ENABLED) */
 102:Generated_Source\PSoC4/GLCD_SPIM_UDB_INT.c **** 
 103:Generated_Source\PSoC4/GLCD_SPIM_UDB_INT.c ****     /* User code required at end of ISR (Optional) */
 104:Generated_Source\PSoC4/GLCD_SPIM_UDB_INT.c ****     /* `#START GLCD_SPIM_UDB_TX_ISR_END` */
 105:Generated_Source\PSoC4/GLCD_SPIM_UDB_INT.c **** 
 106:Generated_Source\PSoC4/GLCD_SPIM_UDB_INT.c ****     /* `#END` */
 107:Generated_Source\PSoC4/GLCD_SPIM_UDB_INT.c **** }
  34              		.loc 1 107 0
  35 0004 BD46     		mov	sp, r7
  36              		@ sp needed
  37 0006 80BD     		pop	{r7, pc}
  38              		.cfi_endproc
  39              	.LFE0:
  40              		.size	GLCD_SPIM_UDB_TX_ISR, .-GLCD_SPIM_UDB_TX_ISR
  41              		.section	.text.GLCD_SPIM_UDB_RX_ISR,"ax",%progbits
  42              		.align	2
  43              		.global	GLCD_SPIM_UDB_RX_ISR
  44              		.code	16
  45              		.thumb_func
  46              		.type	GLCD_SPIM_UDB_RX_ISR, %function
  47              	GLCD_SPIM_UDB_RX_ISR:
  48              	.LFB1:
 108:Generated_Source\PSoC4/GLCD_SPIM_UDB_INT.c **** 
 109:Generated_Source\PSoC4/GLCD_SPIM_UDB_INT.c **** 
 110:Generated_Source\PSoC4/GLCD_SPIM_UDB_INT.c **** /*******************************************************************************
 111:Generated_Source\PSoC4/GLCD_SPIM_UDB_INT.c **** * Function Name: GLCD_SPIM_UDB_RX_ISR
 112:Generated_Source\PSoC4/GLCD_SPIM_UDB_INT.c **** ********************************************************************************
 113:Generated_Source\PSoC4/GLCD_SPIM_UDB_INT.c **** *
 114:Generated_Source\PSoC4/GLCD_SPIM_UDB_INT.c **** * Summary:
 115:Generated_Source\PSoC4/GLCD_SPIM_UDB_INT.c **** *  Interrupt Service Routine for RX portion of the SPI Master.
 116:Generated_Source\PSoC4/GLCD_SPIM_UDB_INT.c **** *
 117:Generated_Source\PSoC4/GLCD_SPIM_UDB_INT.c **** * Parameters:
 118:Generated_Source\PSoC4/GLCD_SPIM_UDB_INT.c **** *  None.
 119:Generated_Source\PSoC4/GLCD_SPIM_UDB_INT.c **** *
 120:Generated_Source\PSoC4/GLCD_SPIM_UDB_INT.c **** * Return:
 121:Generated_Source\PSoC4/GLCD_SPIM_UDB_INT.c **** *  None.
 122:Generated_Source\PSoC4/GLCD_SPIM_UDB_INT.c **** *
 123:Generated_Source\PSoC4/GLCD_SPIM_UDB_INT.c **** * Global variables:
ARM GAS  C:\Users\bolding\AppData\Local\Temp\ccUPayRE.s 			page 4


 124:Generated_Source\PSoC4/GLCD_SPIM_UDB_INT.c **** *  GLCD_SPIM_UDB_rxBufferWrite - used for the account of the bytes which
 125:Generated_Source\PSoC4/GLCD_SPIM_UDB_INT.c **** *  have been written down in the RX software buffer modified when FIFO contains
 126:Generated_Source\PSoC4/GLCD_SPIM_UDB_INT.c **** *  new data.
 127:Generated_Source\PSoC4/GLCD_SPIM_UDB_INT.c **** *  GLCD_SPIM_UDB_rxBufferRead - used for the account of the bytes which
 128:Generated_Source\PSoC4/GLCD_SPIM_UDB_INT.c **** *  have been read from the RX software buffer, modified when overflow occurred.
 129:Generated_Source\PSoC4/GLCD_SPIM_UDB_INT.c **** *  GLCD_SPIM_UDB_rxBuffer[GLCD_SPIM_UDB_RX_BUFFER_SIZE] - used to store
 130:Generated_Source\PSoC4/GLCD_SPIM_UDB_INT.c **** *  received data, modified when FIFO contains new data.
 131:Generated_Source\PSoC4/GLCD_SPIM_UDB_INT.c **** *  All described above Global variables are used when Software Buffer is used.
 132:Generated_Source\PSoC4/GLCD_SPIM_UDB_INT.c **** *
 133:Generated_Source\PSoC4/GLCD_SPIM_UDB_INT.c **** *******************************************************************************/
 134:Generated_Source\PSoC4/GLCD_SPIM_UDB_INT.c **** CY_ISR(GLCD_SPIM_UDB_RX_ISR)
 135:Generated_Source\PSoC4/GLCD_SPIM_UDB_INT.c **** {
  49              		.loc 1 135 0
  50              		.cfi_startproc
  51 0000 80B5     		push	{r7, lr}
  52              		.cfi_def_cfa_offset 8
  53              		.cfi_offset 7, -8
  54              		.cfi_offset 14, -4
  55 0002 00AF     		add	r7, sp, #0
  56              		.cfi_def_cfa_register 7
 136:Generated_Source\PSoC4/GLCD_SPIM_UDB_INT.c ****     #if(GLCD_SPIM_UDB_RX_SOFTWARE_BUF_ENABLED)
 137:Generated_Source\PSoC4/GLCD_SPIM_UDB_INT.c ****         uint8 tmpStatus;
 138:Generated_Source\PSoC4/GLCD_SPIM_UDB_INT.c ****         uint16 rxData;
 139:Generated_Source\PSoC4/GLCD_SPIM_UDB_INT.c ****     #endif /* (GLCD_SPIM_UDB_RX_SOFTWARE_BUF_ENABLED) */
 140:Generated_Source\PSoC4/GLCD_SPIM_UDB_INT.c **** 
 141:Generated_Source\PSoC4/GLCD_SPIM_UDB_INT.c ****     /* User code required at start of ISR */
 142:Generated_Source\PSoC4/GLCD_SPIM_UDB_INT.c ****     /* `#START GLCD_SPIM_UDB_RX_ISR_START` */
 143:Generated_Source\PSoC4/GLCD_SPIM_UDB_INT.c **** 
 144:Generated_Source\PSoC4/GLCD_SPIM_UDB_INT.c ****     /* `#END` */
 145:Generated_Source\PSoC4/GLCD_SPIM_UDB_INT.c **** 
 146:Generated_Source\PSoC4/GLCD_SPIM_UDB_INT.c ****     #if(GLCD_SPIM_UDB_RX_SOFTWARE_BUF_ENABLED)
 147:Generated_Source\PSoC4/GLCD_SPIM_UDB_INT.c **** 
 148:Generated_Source\PSoC4/GLCD_SPIM_UDB_INT.c ****         tmpStatus = GLCD_SPIM_UDB_GET_STATUS_RX(GLCD_SPIM_UDB_swStatusRx);
 149:Generated_Source\PSoC4/GLCD_SPIM_UDB_INT.c ****         GLCD_SPIM_UDB_swStatusRx = tmpStatus;
 150:Generated_Source\PSoC4/GLCD_SPIM_UDB_INT.c **** 
 151:Generated_Source\PSoC4/GLCD_SPIM_UDB_INT.c ****         /* Check if RX data FIFO has some data to be moved into the RX Buffer */
 152:Generated_Source\PSoC4/GLCD_SPIM_UDB_INT.c ****         while(0u != (GLCD_SPIM_UDB_swStatusRx & GLCD_SPIM_UDB_STS_RX_FIFO_NOT_EMPTY))
 153:Generated_Source\PSoC4/GLCD_SPIM_UDB_INT.c ****         {
 154:Generated_Source\PSoC4/GLCD_SPIM_UDB_INT.c ****             rxData = CY_GET_REG16(GLCD_SPIM_UDB_RXDATA_PTR);
 155:Generated_Source\PSoC4/GLCD_SPIM_UDB_INT.c **** 
 156:Generated_Source\PSoC4/GLCD_SPIM_UDB_INT.c ****             /* Set next pointer. */
 157:Generated_Source\PSoC4/GLCD_SPIM_UDB_INT.c ****             GLCD_SPIM_UDB_rxBufferWrite++;
 158:Generated_Source\PSoC4/GLCD_SPIM_UDB_INT.c ****             if(GLCD_SPIM_UDB_rxBufferWrite >= GLCD_SPIM_UDB_RX_BUFFER_SIZE)
 159:Generated_Source\PSoC4/GLCD_SPIM_UDB_INT.c ****             {
 160:Generated_Source\PSoC4/GLCD_SPIM_UDB_INT.c ****                 GLCD_SPIM_UDB_rxBufferWrite = 0u;
 161:Generated_Source\PSoC4/GLCD_SPIM_UDB_INT.c ****             }
 162:Generated_Source\PSoC4/GLCD_SPIM_UDB_INT.c **** 
 163:Generated_Source\PSoC4/GLCD_SPIM_UDB_INT.c ****             if(GLCD_SPIM_UDB_rxBufferWrite == GLCD_SPIM_UDB_rxBufferRead)
 164:Generated_Source\PSoC4/GLCD_SPIM_UDB_INT.c ****             {
 165:Generated_Source\PSoC4/GLCD_SPIM_UDB_INT.c ****                 GLCD_SPIM_UDB_rxBufferRead++;
 166:Generated_Source\PSoC4/GLCD_SPIM_UDB_INT.c ****                 if(GLCD_SPIM_UDB_rxBufferRead >= GLCD_SPIM_UDB_RX_BUFFER_SIZE)
 167:Generated_Source\PSoC4/GLCD_SPIM_UDB_INT.c ****                 {
 168:Generated_Source\PSoC4/GLCD_SPIM_UDB_INT.c ****                     GLCD_SPIM_UDB_rxBufferRead = 0u;
 169:Generated_Source\PSoC4/GLCD_SPIM_UDB_INT.c ****                 }
 170:Generated_Source\PSoC4/GLCD_SPIM_UDB_INT.c **** 
 171:Generated_Source\PSoC4/GLCD_SPIM_UDB_INT.c ****                 GLCD_SPIM_UDB_rxBufferFull = 1u;
 172:Generated_Source\PSoC4/GLCD_SPIM_UDB_INT.c ****             }
ARM GAS  C:\Users\bolding\AppData\Local\Temp\ccUPayRE.s 			page 5


 173:Generated_Source\PSoC4/GLCD_SPIM_UDB_INT.c **** 
 174:Generated_Source\PSoC4/GLCD_SPIM_UDB_INT.c ****             /* Move data from the FIFO to the Buffer */
 175:Generated_Source\PSoC4/GLCD_SPIM_UDB_INT.c ****             GLCD_SPIM_UDB_rxBuffer[GLCD_SPIM_UDB_rxBufferWrite] = rxData;
 176:Generated_Source\PSoC4/GLCD_SPIM_UDB_INT.c **** 
 177:Generated_Source\PSoC4/GLCD_SPIM_UDB_INT.c ****             tmpStatus = GLCD_SPIM_UDB_GET_STATUS_RX(GLCD_SPIM_UDB_swStatusRx);
 178:Generated_Source\PSoC4/GLCD_SPIM_UDB_INT.c ****             GLCD_SPIM_UDB_swStatusRx = tmpStatus;
 179:Generated_Source\PSoC4/GLCD_SPIM_UDB_INT.c ****         }
 180:Generated_Source\PSoC4/GLCD_SPIM_UDB_INT.c **** 
 181:Generated_Source\PSoC4/GLCD_SPIM_UDB_INT.c ****     #endif /* (GLCD_SPIM_UDB_RX_SOFTWARE_BUF_ENABLED) */
 182:Generated_Source\PSoC4/GLCD_SPIM_UDB_INT.c **** 
 183:Generated_Source\PSoC4/GLCD_SPIM_UDB_INT.c ****     /* User code required at end of ISR (Optional) */
 184:Generated_Source\PSoC4/GLCD_SPIM_UDB_INT.c ****     /* `#START GLCD_SPIM_UDB_RX_ISR_END` */
 185:Generated_Source\PSoC4/GLCD_SPIM_UDB_INT.c **** 
 186:Generated_Source\PSoC4/GLCD_SPIM_UDB_INT.c ****     /* `#END` */
 187:Generated_Source\PSoC4/GLCD_SPIM_UDB_INT.c **** }
  57              		.loc 1 187 0
  58 0004 BD46     		mov	sp, r7
  59              		@ sp needed
  60 0006 80BD     		pop	{r7, pc}
  61              		.cfi_endproc
  62              	.LFE1:
  63              		.size	GLCD_SPIM_UDB_RX_ISR, .-GLCD_SPIM_UDB_RX_ISR
  64              		.text
  65              	.Letext0: