ARM GAS  C:\Users\bolding\AppData\Local\Temp\ccF41pl0.s 			page 1


   1              		.cpu cortex-m0
   2              		.fpu softvfp
   3              		.eabi_attribute 20, 1
   4              		.eabi_attribute 21, 1
   5              		.eabi_attribute 23, 3
   6              		.eabi_attribute 24, 1
   7              		.eabi_attribute 25, 1
   8              		.eabi_attribute 26, 1
   9              		.eabi_attribute 30, 6
  10              		.eabi_attribute 34, 0
  11              		.eabi_attribute 18, 4
  12              		.code	16
  13              		.file	"GLCD.c"
  14              		.text
  15              	.Ltext0:
  16              		.cfi_sections	.debug_frame
  17              		.comm	GLCD_FONT8x16,1552,4
  18              		.comm	GLCD_driver,1,1
  19              		.bss
  20              		.align	2
  21              	GLCD_x_offset:
  22 0000 00000000 		.space	4
  23              		.align	2
  24              	GLCD_y_offset:
  25 0004 00000000 		.space	4
  26              		.section	.text.GLCD_Command,"ax",%progbits
  27              		.align	2
  28              		.global	GLCD_Command
  29              		.code	16
  30              		.thumb_func
  31              		.type	GLCD_Command, %function
  32              	GLCD_Command:
  33              	.LFB0:
  34              		.file 1 "Generated_Source\\PSoC4\\GLCD.c"
   1:Generated_Source\PSoC4/GLCD.c **** /*******************************************************************************
   2:Generated_Source\PSoC4/GLCD.c **** * File Name: GLCD.c  
   3:Generated_Source\PSoC4/GLCD.c **** * Version 0.3
   4:Generated_Source\PSoC4/GLCD.c **** *
   5:Generated_Source\PSoC4/GLCD.c **** *  Description:
   6:Generated_Source\PSoC4/GLCD.c **** *    This file contains all the API for the SparkFun Color Graphics
   7:Generated_Source\PSoC4/GLCD.c **** *    Arduino Shield board which uses a Nokia 6100 LCD.
   8:Generated_Source\PSoC4/GLCD.c **** *
   9:Generated_Source\PSoC4/GLCD.c **** * Note:  This code has been tested with the Philips PCF8833 controller, but not
  10:Generated_Source\PSoC4/GLCD.c **** *        the EPSON S115D10 controller as of release 0.3.
  11:Generated_Source\PSoC4/GLCD.c **** *
  12:Generated_Source\PSoC4/GLCD.c **** *        Code has been optimized for a 32-bit processor such as the Cortex
  13:Generated_Source\PSoC4/GLCD.c **** *        M0 or M3.
  14:Generated_Source\PSoC4/GLCD.c **** *******************************************************************************
  15:Generated_Source\PSoC4/GLCD.c **** * The following firmware was developed by Cypress Semiconductor
  16:Generated_Source\PSoC4/GLCD.c **** * This work is licensed under a Creative Commons Attribution 3.0 Unported License.
  17:Generated_Source\PSoC4/GLCD.c **** *
  18:Generated_Source\PSoC4/GLCD.c **** * http://creativecommons.org/licenses/by/3.0/deed.en_US
  19:Generated_Source\PSoC4/GLCD.c **** * 
  20:Generated_Source\PSoC4/GLCD.c **** * You are free to:
  21:Generated_Source\PSoC4/GLCD.c **** * -To Share — to copy, distribute and transmit the work 
  22:Generated_Source\PSoC4/GLCD.c **** * -To Remix — to adapt the work 
  23:Generated_Source\PSoC4/GLCD.c **** * -To make commercial use of the work
ARM GAS  C:\Users\bolding\AppData\Local\Temp\ccF41pl0.s 			page 2


  24:Generated_Source\PSoC4/GLCD.c **** *
  25:Generated_Source\PSoC4/GLCD.c **** * Much of this code was ported from the LCD_driver code by Mark Sproul
  26:Generated_Source\PSoC4/GLCD.c **** * and Peter DavenPort.  Also the tutorial by James P. Lynch
  27:Generated_Source\PSoC4/GLCD.c **** * on how the controller works was invaluable.
  28:Generated_Source\PSoC4/GLCD.c **** ********************************************************************************/
  29:Generated_Source\PSoC4/GLCD.c **** #include "cytypes.h"
  30:Generated_Source\PSoC4/GLCD.c **** #include "GLCD.h"
  31:Generated_Source\PSoC4/GLCD.c **** #include "GLCD_SPIM_UDB.h"
  32:Generated_Source\PSoC4/GLCD.c **** #include "GLCD_Reset.h"
  33:Generated_Source\PSoC4/GLCD.c **** #include "cyfitter.h"
  34:Generated_Source\PSoC4/GLCD.c **** 
  35:Generated_Source\PSoC4/GLCD.c **** #if (GLCD_SPIM_TYPE == GLCD_SPIM_SCB_TYPE)
  36:Generated_Source\PSoC4/GLCD.c **** #include "GLCD_SPIM_UDB_SPI_UART.h"
  37:Generated_Source\PSoC4/GLCD.c **** #endif
  38:Generated_Source\PSoC4/GLCD.c **** 
  39:Generated_Source\PSoC4/GLCD.c **** uint8 GLCD_driver;
  40:Generated_Source\PSoC4/GLCD.c **** 				
  41:Generated_Source\PSoC4/GLCD.c **** static int32 GLCD_x_offset = 0;
  42:Generated_Source\PSoC4/GLCD.c **** static int32 GLCD_y_offset = 0;
  43:Generated_Source\PSoC4/GLCD.c **** 
  44:Generated_Source\PSoC4/GLCD.c **** /*******************************************************************************
  45:Generated_Source\PSoC4/GLCD.c **** * Function Name: GLCD_Command
  46:Generated_Source\PSoC4/GLCD.c **** ********************************************************************************
  47:Generated_Source\PSoC4/GLCD.c **** *
  48:Generated_Source\PSoC4/GLCD.c **** * Summary:
  49:Generated_Source\PSoC4/GLCD.c **** *  This function sends a command to the LCD controller.  
  50:Generated_Source\PSoC4/GLCD.c **** *
  51:Generated_Source\PSoC4/GLCD.c **** * Parameters:  
  52:Generated_Source\PSoC4/GLCD.c **** *  cmdData:  This is the command to be sent to the LCD controller  
  53:Generated_Source\PSoC4/GLCD.c **** *
  54:Generated_Source\PSoC4/GLCD.c **** * Return: 
  55:Generated_Source\PSoC4/GLCD.c **** *  None 
  56:Generated_Source\PSoC4/GLCD.c **** *  
  57:Generated_Source\PSoC4/GLCD.c **** *******************************************************************************/
  58:Generated_Source\PSoC4/GLCD.c **** void GLCD_Command(uint32 cmdData)
  59:Generated_Source\PSoC4/GLCD.c **** {
  35              		.loc 1 59 0
  36              		.cfi_startproc
  37 0000 80B5     		push	{r7, lr}
  38              		.cfi_def_cfa_offset 8
  39              		.cfi_offset 7, -8
  40              		.cfi_offset 14, -4
  41 0002 82B0     		sub	sp, sp, #8
  42              		.cfi_def_cfa_offset 16
  43 0004 00AF     		add	r7, sp, #0
  44              		.cfi_def_cfa_register 7
  45 0006 7860     		str	r0, [r7, #4]
  60:Generated_Source\PSoC4/GLCD.c **** #if (GLCD_SPIM_TYPE == GLCD_SPIM_UDB_TYPE)
  61:Generated_Source\PSoC4/GLCD.c ****   while((GLCD_SPIM_UDB_ReadTxStatus() & (GLCD_SPIM_UDB_STS_SPI_DONE | GLCD_SPIM_UDB_STS_SPI_IDLE) )
  46              		.loc 1 61 0
  47 0008 C046     		mov	r8, r8
  48              	.L2:
  49              		.loc 1 61 0 is_stmt 0 discriminator 1
  50 000a FFF7FEFF 		bl	GLCD_SPIM_UDB_ReadTxStatus
  51 000e 031C     		mov	r3, r0
  52 0010 1A1C     		mov	r2, r3
  53 0012 1123     		mov	r3, #17
ARM GAS  C:\Users\bolding\AppData\Local\Temp\ccF41pl0.s 			page 3


  54 0014 1340     		and	r3, r2
  55 0016 F8D0     		beq	.L2
  62:Generated_Source\PSoC4/GLCD.c ****   GLCD_SPIM_UDB_WriteTxData((uint16)cmdData);
  56              		.loc 1 62 0 is_stmt 1
  57 0018 7B68     		ldr	r3, [r7, #4]
  58 001a 9BB2     		uxth	r3, r3
  59 001c 181C     		mov	r0, r3
  60 001e FFF7FEFF 		bl	GLCD_SPIM_UDB_WriteTxData
  63:Generated_Source\PSoC4/GLCD.c **** #endif
  64:Generated_Source\PSoC4/GLCD.c **** 
  65:Generated_Source\PSoC4/GLCD.c **** #if (GLCD_SPIM_TYPE == GLCD_SPIM_SCB_TYPE)
  66:Generated_Source\PSoC4/GLCD.c ****     GLCD_SPIM_UDB_SpiUartWriteTxData(cmdData);
  67:Generated_Source\PSoC4/GLCD.c **** #endif
  68:Generated_Source\PSoC4/GLCD.c **** }
  61              		.loc 1 68 0
  62 0022 BD46     		mov	sp, r7
  63 0024 02B0     		add	sp, sp, #8
  64              		@ sp needed
  65 0026 80BD     		pop	{r7, pc}
  66              		.cfi_endproc
  67              	.LFE0:
  68              		.size	GLCD_Command, .-GLCD_Command
  69              		.section	.text.GLCD_Data,"ax",%progbits
  70              		.align	2
  71              		.global	GLCD_Data
  72              		.code	16
  73              		.thumb_func
  74              		.type	GLCD_Data, %function
  75              	GLCD_Data:
  76              	.LFB1:
  69:Generated_Source\PSoC4/GLCD.c **** 
  70:Generated_Source\PSoC4/GLCD.c **** /*******************************************************************************
  71:Generated_Source\PSoC4/GLCD.c **** * Function Name: GLCD_Data
  72:Generated_Source\PSoC4/GLCD.c **** ********************************************************************************
  73:Generated_Source\PSoC4/GLCD.c **** *
  74:Generated_Source\PSoC4/GLCD.c **** * Summary:
  75:Generated_Source\PSoC4/GLCD.c **** *  This function sends raw data to the controller.  The 9th bit is set to signal
  76:Generated_Source\PSoC4/GLCD.c **** *  the controller that it information is data and not a command.
  77:Generated_Source\PSoC4/GLCD.c **** *
  78:Generated_Source\PSoC4/GLCD.c **** * Parameters:  
  79:Generated_Source\PSoC4/GLCD.c **** *  rawData:  The data to be sent to the controller. 
  80:Generated_Source\PSoC4/GLCD.c **** *
  81:Generated_Source\PSoC4/GLCD.c **** * Return: 
  82:Generated_Source\PSoC4/GLCD.c **** *  None 
  83:Generated_Source\PSoC4/GLCD.c **** *  
  84:Generated_Source\PSoC4/GLCD.c **** *******************************************************************************/
  85:Generated_Source\PSoC4/GLCD.c **** void GLCD_Data(uint32 rawData)
  86:Generated_Source\PSoC4/GLCD.c **** {	
  77              		.loc 1 86 0
  78              		.cfi_startproc
  79 0000 80B5     		push	{r7, lr}
  80              		.cfi_def_cfa_offset 8
  81              		.cfi_offset 7, -8
  82              		.cfi_offset 14, -4
  83 0002 84B0     		sub	sp, sp, #16
  84              		.cfi_def_cfa_offset 24
  85 0004 00AF     		add	r7, sp, #0
ARM GAS  C:\Users\bolding\AppData\Local\Temp\ccF41pl0.s 			page 4


  86              		.cfi_def_cfa_register 7
  87 0006 7860     		str	r0, [r7, #4]
  87:Generated_Source\PSoC4/GLCD.c **** #if (GLCD_SPIM_TYPE == GLCD_SPIM_UDB_TYPE)
  88:Generated_Source\PSoC4/GLCD.c ****     uint16 data16;
  89:Generated_Source\PSoC4/GLCD.c ****     data16 = (uint16)rawData | 0x0100;
  88              		.loc 1 89 0
  89 0008 7B68     		ldr	r3, [r7, #4]
  90 000a 9AB2     		uxth	r2, r3
  91 000c 0E23     		mov	r3, #14
  92 000e FB18     		add	r3, r7, r3
  93 0010 8021     		mov	r1, #128
  94 0012 4900     		lsl	r1, r1, #1
  95 0014 0A43     		orr	r2, r1
  96 0016 1A80     		strh	r2, [r3]
  90:Generated_Source\PSoC4/GLCD.c **** 	
  91:Generated_Source\PSoC4/GLCD.c ****     while((GLCD_SPIM_UDB_ReadTxStatus() & (GLCD_SPIM_UDB_STS_SPI_DONE | GLCD_SPIM_UDB_STS_SPI_IDLE)
  97              		.loc 1 91 0
  98 0018 C046     		mov	r8, r8
  99              	.L4:
 100              		.loc 1 91 0 is_stmt 0 discriminator 1
 101 001a FFF7FEFF 		bl	GLCD_SPIM_UDB_ReadTxStatus
 102 001e 031C     		mov	r3, r0
 103 0020 1A1C     		mov	r2, r3
 104 0022 1123     		mov	r3, #17
 105 0024 1340     		and	r3, r2
 106 0026 F8D0     		beq	.L4
  92:Generated_Source\PSoC4/GLCD.c ****     GLCD_SPIM_UDB_WriteTxData(data16);
 107              		.loc 1 92 0 is_stmt 1
 108 0028 0E23     		mov	r3, #14
 109 002a FB18     		add	r3, r7, r3
 110 002c 1B88     		ldrh	r3, [r3]
 111 002e 181C     		mov	r0, r3
 112 0030 FFF7FEFF 		bl	GLCD_SPIM_UDB_WriteTxData
  93:Generated_Source\PSoC4/GLCD.c **** #endif
  94:Generated_Source\PSoC4/GLCD.c **** 
  95:Generated_Source\PSoC4/GLCD.c **** #if (GLCD_SPIM_TYPE == GLCD_SPIM_SCB_TYPE)
  96:Generated_Source\PSoC4/GLCD.c **** 
  97:Generated_Source\PSoC4/GLCD.c ****     rawData = rawData | 0x00000100;
  98:Generated_Source\PSoC4/GLCD.c ****     GLCD_SPIM_UDB_SpiUartWriteTxData(rawData);
  99:Generated_Source\PSoC4/GLCD.c **** #endif
 100:Generated_Source\PSoC4/GLCD.c **** 
 101:Generated_Source\PSoC4/GLCD.c **** }
 113              		.loc 1 101 0
 114 0034 BD46     		mov	sp, r7
 115 0036 04B0     		add	sp, sp, #16
 116              		@ sp needed
 117 0038 80BD     		pop	{r7, pc}
 118              		.cfi_endproc
 119              	.LFE1:
 120              		.size	GLCD_Data, .-GLCD_Data
 121 003a C046     		.section	.text.GLCD_Start,"ax",%progbits
 122              		.align	2
 123              		.global	GLCD_Start
 124              		.code	16
 125              		.thumb_func
 126              		.type	GLCD_Start, %function
 127              	GLCD_Start:
ARM GAS  C:\Users\bolding\AppData\Local\Temp\ccF41pl0.s 			page 5


 128              	.LFB2:
 102:Generated_Source\PSoC4/GLCD.c **** 
 103:Generated_Source\PSoC4/GLCD.c **** /*******************************************************************************
 104:Generated_Source\PSoC4/GLCD.c **** * Function Name: GLCD_Start
 105:Generated_Source\PSoC4/GLCD.c **** ********************************************************************************
 106:Generated_Source\PSoC4/GLCD.c **** *
 107:Generated_Source\PSoC4/GLCD.c **** * Summary:
 108:Generated_Source\PSoC4/GLCD.c **** *  This function initializes the SPI interface and the LCD controller.  
 109:Generated_Source\PSoC4/GLCD.c **** *
 110:Generated_Source\PSoC4/GLCD.c **** * Parameters:  
 111:Generated_Source\PSoC4/GLCD.c **** *  None:   
 112:Generated_Source\PSoC4/GLCD.c **** *
 113:Generated_Source\PSoC4/GLCD.c **** * Return: 
 114:Generated_Source\PSoC4/GLCD.c **** *  None 
 115:Generated_Source\PSoC4/GLCD.c **** *  
 116:Generated_Source\PSoC4/GLCD.c **** *******************************************************************************/
 117:Generated_Source\PSoC4/GLCD.c **** void GLCD_Start(void)
 118:Generated_Source\PSoC4/GLCD.c **** {
 129              		.loc 1 118 0
 130              		.cfi_startproc
 131 0000 80B5     		push	{r7, lr}
 132              		.cfi_def_cfa_offset 8
 133              		.cfi_offset 7, -8
 134              		.cfi_offset 14, -4
 135 0002 00AF     		add	r7, sp, #0
 136              		.cfi_def_cfa_register 7
 119:Generated_Source\PSoC4/GLCD.c **** 	
 120:Generated_Source\PSoC4/GLCD.c **** 	GLCD_SPIM_UDB_Start();
 137              		.loc 1 120 0
 138 0004 FFF7FEFF 		bl	GLCD_SPIM_UDB_Start
 121:Generated_Source\PSoC4/GLCD.c **** #if (GLCD_SPIM_TYPE == GLCD_SPIM_SCB_TYPE)
 122:Generated_Source\PSoC4/GLCD.c ****     GLCD_SPIM_UDB_SpiSetActiveSlaveSelect(3u);
 123:Generated_Source\PSoC4/GLCD.c **** #endif
 124:Generated_Source\PSoC4/GLCD.c **** 
 125:Generated_Source\PSoC4/GLCD.c **** 	CyDelayUs(20);			            /* 20us delay    */
 139              		.loc 1 125 0
 140 0008 1420     		mov	r0, #20
 141 000a FFF7FEFF 		bl	CyDelayUs
 126:Generated_Source\PSoC4/GLCD.c **** 	GLCD_Reset_Write(0x00);	/* Display Reset */
 142              		.loc 1 126 0
 143 000e 0020     		mov	r0, #0
 144 0010 FFF7FEFF 		bl	GLCD_Reset_Write
 127:Generated_Source\PSoC4/GLCD.c **** 	CyDelay(200);			            /* 200ms delay   */
 145              		.loc 1 127 0
 146 0014 C820     		mov	r0, #200
 147 0016 FFF7FEFF 		bl	CyDelay
 128:Generated_Source\PSoC4/GLCD.c **** 	GLCD_Reset_Write(0xFF);	/* Release Reset */
 148              		.loc 1 128 0
 149 001a FF20     		mov	r0, #255
 150 001c FFF7FEFF 		bl	GLCD_Reset_Write
 129:Generated_Source\PSoC4/GLCD.c **** 	CyDelay(200);			            /* 200ms delay   */
 151              		.loc 1 129 0
 152 0020 C820     		mov	r0, #200
 153 0022 FFF7FEFF 		bl	CyDelay
 130:Generated_Source\PSoC4/GLCD.c **** 	
 131:Generated_Source\PSoC4/GLCD.c **** #if(GLCD_Controller == GLCD_EPSON)
 132:Generated_Source\PSoC4/GLCD.c **** 	GLCD_Command(GLCD_DISCTL);	/*  Display control (0xCA)         */
ARM GAS  C:\Users\bolding\AppData\Local\Temp\ccF41pl0.s 			page 6


 133:Generated_Source\PSoC4/GLCD.c **** 	GLCD_Data(0x0C);		/* 12 = 1100 - CL dividing ratio [don't divide] switching period 8H (default) */
 134:Generated_Source\PSoC4/GLCD.c **** 	GLCD_Data(0x20);		/* nlines/4 - 1 = 132/4 - 1 = 32 duty              */
 135:Generated_Source\PSoC4/GLCD.c **** 	GLCD_Data(0x00);		/* No inversely highlighted lines                  */
 136:Generated_Source\PSoC4/GLCD.c **** 	
 137:Generated_Source\PSoC4/GLCD.c **** 	GLCD_Command(GLCD_COMSCN);	  /* common scanning direction     */
 138:Generated_Source\PSoC4/GLCD.c **** 	GLCD_Data(0x01);		                  /* 1->68, 132<-69 scan direction */
 139:Generated_Source\PSoC4/GLCD.c **** 	
 140:Generated_Source\PSoC4/GLCD.c **** 	GLCD_Command(GLCD_OSCON);	  /* internal oscialltor ON        */
 141:Generated_Source\PSoC4/GLCD.c **** 	GLCD_Command(GLCD_SLEEPOUT);  /* sleep out                     */    
 142:Generated_Source\PSoC4/GLCD.c **** 	
 143:Generated_Source\PSoC4/GLCD.c **** 	GLCD_Command(GLCD_PWRCTR);	  /* Power ctrl                    */
 144:Generated_Source\PSoC4/GLCD.c **** 	GLCD_Data(0x0F);	                      /* everything on, no external reference  resistors  */
 145:Generated_Source\PSoC4/GLCD.c **** 	
 146:Generated_Source\PSoC4/GLCD.c **** 	GLCD_Command(GLCD_DINVON);	  /* invert display mode           */
 147:Generated_Source\PSoC4/GLCD.c **** 	
 148:Generated_Source\PSoC4/GLCD.c **** 	GLCD_Command(GLCD_DATCTL);	  /* data control                  */
 149:Generated_Source\PSoC4/GLCD.c **** 	GLCD_Data(0x03);		/* Inverse page address, reverse rotation column address, column scan-direction	
 150:Generated_Source\PSoC4/GLCD.c **** 	GLCD_Data(0x00);		                  /* normal RGB arrangement                 */
 151:Generated_Source\PSoC4/GLCD.c **** 	GLCD_Data(0x02);		                  /* 16-bit Grayscale Type A (12-bit color) */
 152:Generated_Source\PSoC4/GLCD.c **** 	
 153:Generated_Source\PSoC4/GLCD.c **** 	GLCD_Command(GLCD_SETCONST);	/* Electronic volume, this is the contrast/brightness        */
 154:Generated_Source\PSoC4/GLCD.c **** 	GLCD_Data(GLCD_CONST_DEFAULT);  /* Volume (contrast) setting - fine tuning, original (0-63)  */
 155:Generated_Source\PSoC4/GLCD.c **** 	GLCD_Data(3);			                    /* Internal resistor ratio - coarse adjustment (0-7)         *
 156:Generated_Source\PSoC4/GLCD.c **** 	
 157:Generated_Source\PSoC4/GLCD.c **** 	GLCD_Command(GLCD_NOP);	        /* nop */
 158:Generated_Source\PSoC4/GLCD.c **** 
 159:Generated_Source\PSoC4/GLCD.c **** 	CyDelay(100);
 160:Generated_Source\PSoC4/GLCD.c **** 
 161:Generated_Source\PSoC4/GLCD.c **** 	GLCD_Command(GLCD_DISPON);	     /*  Display on */
 162:Generated_Source\PSoC4/GLCD.c **** #endif
 163:Generated_Source\PSoC4/GLCD.c **** 
 164:Generated_Source\PSoC4/GLCD.c **** #if(GLCD_Controller == GLCD_PHILIPS) /* Driver is Philips */
 165:Generated_Source\PSoC4/GLCD.c **** 
 166:Generated_Source\PSoC4/GLCD.c **** 	GLCD_Command(GLCD_SLEEPOUT);	 /* Sleep Out          */
 154              		.loc 1 166 0
 155 0026 1120     		mov	r0, #17
 156 0028 FFF7FEFF 		bl	GLCD_Command
 167:Generated_Source\PSoC4/GLCD.c **** 	GLCD_Command(GLCD_BSTRON);       /* Booster voltage on */
 157              		.loc 1 167 0
 158 002c 0320     		mov	r0, #3
 159 002e FFF7FEFF 		bl	GLCD_Command
 168:Generated_Source\PSoC4/GLCD.c **** 	GLCD_Command(GLCD_DISPON);		 /* Display on         */
 160              		.loc 1 168 0
 161 0032 2920     		mov	r0, #41
 162 0034 FFF7FEFF 		bl	GLCD_Command
 169:Generated_Source\PSoC4/GLCD.c **** 	
 170:Generated_Source\PSoC4/GLCD.c **** 	/* 12-bit color pixel format:  */
 171:Generated_Source\PSoC4/GLCD.c **** 	GLCD_Command(GLCD_COLMOD);		 /* Color interface format     */
 163              		.loc 1 171 0
 164 0038 3A20     		mov	r0, #58
 165 003a FFF7FEFF 		bl	GLCD_Command
 172:Generated_Source\PSoC4/GLCD.c **** 	GLCD_Data(0x03);			                 /* 0b011 is 12-bit/pixel mode */
 166              		.loc 1 172 0
 167 003e 0320     		mov	r0, #3
 168 0040 FFF7FEFF 		bl	GLCD_Data
 173:Generated_Source\PSoC4/GLCD.c **** 	
 174:Generated_Source\PSoC4/GLCD.c **** 	GLCD_Command(GLCD_MADCTL);		 /* Memory Access Control      */
ARM GAS  C:\Users\bolding\AppData\Local\Temp\ccF41pl0.s 			page 7


 169              		.loc 1 174 0
 170 0044 3620     		mov	r0, #54
 171 0046 FFF7FEFF 		bl	GLCD_Command
 175:Generated_Source\PSoC4/GLCD.c **** 	GLCD_Command(GLCD_SETCONST);     /* Set Contrast               */          
 172              		.loc 1 175 0
 173 004a 2520     		mov	r0, #37
 174 004c FFF7FEFF 		bl	GLCD_Command
 176:Generated_Source\PSoC4/GLCD.c **** 	GLCD_Data(GLCD_CONST_DEFAULT);
 175              		.loc 1 176 0
 176 0050 3020     		mov	r0, #48
 177 0052 FFF7FEFF 		bl	GLCD_Data
 177:Generated_Source\PSoC4/GLCD.c **** 	
 178:Generated_Source\PSoC4/GLCD.c **** 	GLCD_Command(GLCD_NOP);	
 178              		.loc 1 178 0
 179 0056 0020     		mov	r0, #0
 180 0058 FFF7FEFF 		bl	GLCD_Command
 179:Generated_Source\PSoC4/GLCD.c **** #endif
 180:Generated_Source\PSoC4/GLCD.c **** 
 181:Generated_Source\PSoC4/GLCD.c ****   	GLCD_Contrast(60);                           /* Set default contrast  */
 181              		.loc 1 181 0
 182 005c 3C20     		mov	r0, #60
 183 005e FFF7FEFF 		bl	GLCD_Contrast
 182:Generated_Source\PSoC4/GLCD.c ****   	GLCD_Clear(GLCD_BLACK);          /* Clear screen to black */
 184              		.loc 1 182 0
 185 0062 0020     		mov	r0, #0
 186 0064 FFF7FEFF 		bl	GLCD_Clear
 183:Generated_Source\PSoC4/GLCD.c **** }
 187              		.loc 1 183 0
 188 0068 BD46     		mov	sp, r7
 189              		@ sp needed
 190 006a 80BD     		pop	{r7, pc}
 191              		.cfi_endproc
 192              	.LFE2:
 193              		.size	GLCD_Start, .-GLCD_Start
 194              		.section	.text.GLCD_Stop,"ax",%progbits
 195              		.align	2
 196              		.global	GLCD_Stop
 197              		.code	16
 198              		.thumb_func
 199              		.type	GLCD_Stop, %function
 200              	GLCD_Stop:
 201              	.LFB3:
 184:Generated_Source\PSoC4/GLCD.c **** 
 185:Generated_Source\PSoC4/GLCD.c **** /*******************************************************************************
 186:Generated_Source\PSoC4/GLCD.c **** * Function Name: GLCD_Stop
 187:Generated_Source\PSoC4/GLCD.c **** ********************************************************************************
 188:Generated_Source\PSoC4/GLCD.c **** *
 189:Generated_Source\PSoC4/GLCD.c **** * Summary:
 190:Generated_Source\PSoC4/GLCD.c **** *  This function clears the LCD to black and turns off the display.  
 191:Generated_Source\PSoC4/GLCD.c **** *
 192:Generated_Source\PSoC4/GLCD.c **** * Parameters:  
 193:Generated_Source\PSoC4/GLCD.c **** *   None:   
 194:Generated_Source\PSoC4/GLCD.c **** *
 195:Generated_Source\PSoC4/GLCD.c **** * Return: 
 196:Generated_Source\PSoC4/GLCD.c **** *  None 
 197:Generated_Source\PSoC4/GLCD.c **** *  
 198:Generated_Source\PSoC4/GLCD.c **** *******************************************************************************/
ARM GAS  C:\Users\bolding\AppData\Local\Temp\ccF41pl0.s 			page 8


 199:Generated_Source\PSoC4/GLCD.c **** void GLCD_Stop(void)
 200:Generated_Source\PSoC4/GLCD.c **** {
 202              		.loc 1 200 0
 203              		.cfi_startproc
 204 0000 80B5     		push	{r7, lr}
 205              		.cfi_def_cfa_offset 8
 206              		.cfi_offset 7, -8
 207              		.cfi_offset 14, -4
 208 0002 00AF     		add	r7, sp, #0
 209              		.cfi_def_cfa_register 7
 201:Generated_Source\PSoC4/GLCD.c ****    GLCD_Clear(GLCD_BLACK);
 210              		.loc 1 201 0
 211 0004 0020     		mov	r0, #0
 212 0006 FFF7FEFF 		bl	GLCD_Clear
 202:Generated_Source\PSoC4/GLCD.c ****    GLCD_Command(GLCD_DISPOFF);
 213              		.loc 1 202 0
 214 000a 2820     		mov	r0, #40
 215 000c FFF7FEFF 		bl	GLCD_Command
 203:Generated_Source\PSoC4/GLCD.c **** }
 216              		.loc 1 203 0
 217 0010 BD46     		mov	sp, r7
 218              		@ sp needed
 219 0012 80BD     		pop	{r7, pc}
 220              		.cfi_endproc
 221              	.LFE3:
 222              		.size	GLCD_Stop, .-GLCD_Stop
 223              		.section	.text.GLCD_Clear,"ax",%progbits
 224              		.align	2
 225              		.global	GLCD_Clear
 226              		.code	16
 227              		.thumb_func
 228              		.type	GLCD_Clear, %function
 229              	GLCD_Clear:
 230              	.LFB4:
 204:Generated_Source\PSoC4/GLCD.c **** 
 205:Generated_Source\PSoC4/GLCD.c **** /*******************************************************************************
 206:Generated_Source\PSoC4/GLCD.c **** * Function Name: GLCD_Clear
 207:Generated_Source\PSoC4/GLCD.c **** ********************************************************************************
 208:Generated_Source\PSoC4/GLCD.c **** *
 209:Generated_Source\PSoC4/GLCD.c **** * Summary:
 210:Generated_Source\PSoC4/GLCD.c **** *  Clear the display.  
 211:Generated_Source\PSoC4/GLCD.c **** *
 212:Generated_Source\PSoC4/GLCD.c **** * Parameters:  
 213:Generated_Source\PSoC4/GLCD.c **** *  color: Color to clear display with. 
 214:Generated_Source\PSoC4/GLCD.c **** *
 215:Generated_Source\PSoC4/GLCD.c **** * Return: 
 216:Generated_Source\PSoC4/GLCD.c **** *  None 
 217:Generated_Source\PSoC4/GLCD.c **** *  
 218:Generated_Source\PSoC4/GLCD.c **** *******************************************************************************/
 219:Generated_Source\PSoC4/GLCD.c **** void GLCD_Clear(int32 color)
 220:Generated_Source\PSoC4/GLCD.c **** {
 231              		.loc 1 220 0
 232              		.cfi_startproc
 233 0000 80B5     		push	{r7, lr}
 234              		.cfi_def_cfa_offset 8
 235              		.cfi_offset 7, -8
 236              		.cfi_offset 14, -4
ARM GAS  C:\Users\bolding\AppData\Local\Temp\ccF41pl0.s 			page 9


 237 0002 84B0     		sub	sp, sp, #16
 238              		.cfi_def_cfa_offset 24
 239 0004 00AF     		add	r7, sp, #0
 240              		.cfi_def_cfa_register 7
 241 0006 7860     		str	r0, [r7, #4]
 221:Generated_Source\PSoC4/GLCD.c ****     int32 i;
 222:Generated_Source\PSoC4/GLCD.c **** 
 223:Generated_Source\PSoC4/GLCD.c **** 	GLCD_Command(GLCD_PAGEADDR);
 242              		.loc 1 223 0
 243 0008 2B20     		mov	r0, #43
 244 000a FFF7FEFF 		bl	GLCD_Command
 224:Generated_Source\PSoC4/GLCD.c **** 	GLCD_Data(GLCD_MINX);
 245              		.loc 1 224 0
 246 000e 0020     		mov	r0, #0
 247 0010 FFF7FEFF 		bl	GLCD_Data
 225:Generated_Source\PSoC4/GLCD.c **** 	GLCD_Data(GLCD_MAXX);
 248              		.loc 1 225 0
 249 0014 8320     		mov	r0, #131
 250 0016 FFF7FEFF 		bl	GLCD_Data
 226:Generated_Source\PSoC4/GLCD.c **** 
 227:Generated_Source\PSoC4/GLCD.c **** 	GLCD_Command(GLCD_COLADDR);
 251              		.loc 1 227 0
 252 001a 2A20     		mov	r0, #42
 253 001c FFF7FEFF 		bl	GLCD_Command
 228:Generated_Source\PSoC4/GLCD.c **** 	GLCD_Data(GLCD_MINY);
 254              		.loc 1 228 0
 255 0020 0020     		mov	r0, #0
 256 0022 FFF7FEFF 		bl	GLCD_Data
 229:Generated_Source\PSoC4/GLCD.c **** 	GLCD_Data(GLCD_MAXY);
 257              		.loc 1 229 0
 258 0026 8320     		mov	r0, #131
 259 0028 FFF7FEFF 		bl	GLCD_Data
 230:Generated_Source\PSoC4/GLCD.c **** 
 231:Generated_Source\PSoC4/GLCD.c **** 	GLCD_Command(GLCD_RAMWR);
 260              		.loc 1 231 0
 261 002c 2C20     		mov	r0, #44
 262 002e FFF7FEFF 		bl	GLCD_Command
 232:Generated_Source\PSoC4/GLCD.c **** 
 233:Generated_Source\PSoC4/GLCD.c **** 
 234:Generated_Source\PSoC4/GLCD.c **** 	for( i=0; i < (GLCD_MAXX*GLCD_MAXY)/2; i++)
 263              		.loc 1 234 0
 264 0032 0023     		mov	r3, #0
 265 0034 FB60     		str	r3, [r7, #12]
 266 0036 1AE0     		b	.L8
 267              	.L9:
 235:Generated_Source\PSoC4/GLCD.c **** 	{
 236:Generated_Source\PSoC4/GLCD.c **** 		GLCD_Data((color>>4)&0x00FF);
 268              		.loc 1 236 0 discriminator 3
 269 0038 7B68     		ldr	r3, [r7, #4]
 270 003a 1B11     		asr	r3, r3, #4
 271 003c 1A1C     		mov	r2, r3
 272 003e FF23     		mov	r3, #255
 273 0040 1340     		and	r3, r2
 274 0042 181C     		mov	r0, r3
 275 0044 FFF7FEFF 		bl	GLCD_Data
 237:Generated_Source\PSoC4/GLCD.c **** 		GLCD_Data(((color&0x0F)<<4)|(color>>8));
 276              		.loc 1 237 0 discriminator 3
ARM GAS  C:\Users\bolding\AppData\Local\Temp\ccF41pl0.s 			page 10


 277 0048 7B68     		ldr	r3, [r7, #4]
 278 004a 1B01     		lsl	r3, r3, #4
 279 004c FF22     		mov	r2, #255
 280 004e 1A40     		and	r2, r3
 281 0050 7B68     		ldr	r3, [r7, #4]
 282 0052 1B12     		asr	r3, r3, #8
 283 0054 1343     		orr	r3, r2
 284 0056 181C     		mov	r0, r3
 285 0058 FFF7FEFF 		bl	GLCD_Data
 238:Generated_Source\PSoC4/GLCD.c **** 		GLCD_Data(color&0x0FF);
 286              		.loc 1 238 0 discriminator 3
 287 005c 7B68     		ldr	r3, [r7, #4]
 288 005e FF22     		mov	r2, #255
 289 0060 1340     		and	r3, r2
 290 0062 181C     		mov	r0, r3
 291 0064 FFF7FEFF 		bl	GLCD_Data
 234:Generated_Source\PSoC4/GLCD.c **** 	{
 292              		.loc 1 234 0 discriminator 3
 293 0068 FB68     		ldr	r3, [r7, #12]
 294 006a 0133     		add	r3, r3, #1
 295 006c FB60     		str	r3, [r7, #12]
 296              	.L8:
 234:Generated_Source\PSoC4/GLCD.c **** 	{
 297              		.loc 1 234 0 is_stmt 0 discriminator 1
 298 006e FB68     		ldr	r3, [r7, #12]
 299 0070 054A     		ldr	r2, .L10
 300 0072 9342     		cmp	r3, r2
 301 0074 E0D9     		bls	.L9
 239:Generated_Source\PSoC4/GLCD.c **** 	}
 240:Generated_Source\PSoC4/GLCD.c **** 
 241:Generated_Source\PSoC4/GLCD.c **** 	GLCD_x_offset = 0;
 302              		.loc 1 241 0 is_stmt 1
 303 0076 054B     		ldr	r3, .L10+4
 304 0078 0022     		mov	r2, #0
 305 007a 1A60     		str	r2, [r3]
 242:Generated_Source\PSoC4/GLCD.c **** 	GLCD_y_offset = 0;
 306              		.loc 1 242 0
 307 007c 044B     		ldr	r3, .L10+8
 308 007e 0022     		mov	r2, #0
 309 0080 1A60     		str	r2, [r3]
 243:Generated_Source\PSoC4/GLCD.c **** }
 310              		.loc 1 243 0
 311 0082 BD46     		mov	sp, r7
 312 0084 04B0     		add	sp, sp, #16
 313              		@ sp needed
 314 0086 80BD     		pop	{r7, pc}
 315              	.L11:
 316              		.align	2
 317              	.L10:
 318 0088 83210000 		.word	8579
 319 008c 00000000 		.word	GLCD_x_offset
 320 0090 04000000 		.word	GLCD_y_offset
 321              		.cfi_endproc
 322              	.LFE4:
 323              		.size	GLCD_Clear, .-GLCD_Clear
 324              		.section	.text.GLCD_Contrast,"ax",%progbits
 325              		.align	2
ARM GAS  C:\Users\bolding\AppData\Local\Temp\ccF41pl0.s 			page 11


 326              		.global	GLCD_Contrast
 327              		.code	16
 328              		.thumb_func
 329              		.type	GLCD_Contrast, %function
 330              	GLCD_Contrast:
 331              	.LFB5:
 244:Generated_Source\PSoC4/GLCD.c **** 
 245:Generated_Source\PSoC4/GLCD.c **** 
 246:Generated_Source\PSoC4/GLCD.c **** /*******************************************************************************
 247:Generated_Source\PSoC4/GLCD.c **** * Function Name: GLCD_Contrast
 248:Generated_Source\PSoC4/GLCD.c **** ********************************************************************************
 249:Generated_Source\PSoC4/GLCD.c **** *
 250:Generated_Source\PSoC4/GLCD.c **** * Summary:
 251:Generated_Source\PSoC4/GLCD.c **** *  Set color contrast  
 252:Generated_Source\PSoC4/GLCD.c **** *
 253:Generated_Source\PSoC4/GLCD.c **** * Parameters:  
 254:Generated_Source\PSoC4/GLCD.c **** *  setting: Contrast value.  
 255:Generated_Source\PSoC4/GLCD.c **** *
 256:Generated_Source\PSoC4/GLCD.c **** * Return: 
 257:Generated_Source\PSoC4/GLCD.c **** *  None 
 258:Generated_Source\PSoC4/GLCD.c **** *  
 259:Generated_Source\PSoC4/GLCD.c **** *******************************************************************************/
 260:Generated_Source\PSoC4/GLCD.c **** void GLCD_Contrast(int32 setting)
 261:Generated_Source\PSoC4/GLCD.c **** {
 332              		.loc 1 261 0
 333              		.cfi_startproc
 334 0000 80B5     		push	{r7, lr}
 335              		.cfi_def_cfa_offset 8
 336              		.cfi_offset 7, -8
 337              		.cfi_offset 14, -4
 338 0002 82B0     		sub	sp, sp, #8
 339              		.cfi_def_cfa_offset 16
 340 0004 00AF     		add	r7, sp, #0
 341              		.cfi_def_cfa_register 7
 342 0006 7860     		str	r0, [r7, #4]
 262:Generated_Source\PSoC4/GLCD.c ****     setting &= GLCD_CONST_MASK;	                /* Mask off contrast value */
 343              		.loc 1 262 0
 344 0008 7B68     		ldr	r3, [r7, #4]
 345 000a 7F22     		mov	r2, #127
 346 000c 1340     		and	r3, r2
 347 000e 7B60     		str	r3, [r7, #4]
 263:Generated_Source\PSoC4/GLCD.c ****     GLCD_Command(GLCD_SETCONST);	/* Set Contrast            */
 348              		.loc 1 263 0
 349 0010 2520     		mov	r0, #37
 350 0012 FFF7FEFF 		bl	GLCD_Command
 264:Generated_Source\PSoC4/GLCD.c ****     GLCD_Data(setting);	                    
 351              		.loc 1 264 0
 352 0016 7B68     		ldr	r3, [r7, #4]
 353 0018 181C     		mov	r0, r3
 354 001a FFF7FEFF 		bl	GLCD_Data
 265:Generated_Source\PSoC4/GLCD.c **** 
 266:Generated_Source\PSoC4/GLCD.c **** #if(GLCD_Controller == GLCD_EPSON)  /* Only required for Epson */
 267:Generated_Source\PSoC4/GLCD.c ****     GLCD_Data(3);			
 268:Generated_Source\PSoC4/GLCD.c **** #endif
 269:Generated_Source\PSoC4/GLCD.c **** 
 270:Generated_Source\PSoC4/GLCD.c **** }
 355              		.loc 1 270 0
ARM GAS  C:\Users\bolding\AppData\Local\Temp\ccF41pl0.s 			page 12


 356 001e BD46     		mov	sp, r7
 357 0020 02B0     		add	sp, sp, #8
 358              		@ sp needed
 359 0022 80BD     		pop	{r7, pc}
 360              		.cfi_endproc
 361              	.LFE5:
 362              		.size	GLCD_Contrast, .-GLCD_Contrast
 363              		.section	.text.GLCD_SwapColors,"ax",%progbits
 364              		.align	2
 365              		.global	GLCD_SwapColors
 366              		.code	16
 367              		.thumb_func
 368              		.type	GLCD_SwapColors, %function
 369              	GLCD_SwapColors:
 370              	.LFB6:
 271:Generated_Source\PSoC4/GLCD.c **** 
 272:Generated_Source\PSoC4/GLCD.c **** /*******************************************************************************
 273:Generated_Source\PSoC4/GLCD.c **** * Function Name: GLCD_SwapColors
 274:Generated_Source\PSoC4/GLCD.c **** ********************************************************************************
 275:Generated_Source\PSoC4/GLCD.c **** *
 276:Generated_Source\PSoC4/GLCD.c **** * Summary:
 277:Generated_Source\PSoC4/GLCD.c **** *   Swaps colors between Epson and Philips mode.  
 278:Generated_Source\PSoC4/GLCD.c **** *
 279:Generated_Source\PSoC4/GLCD.c **** * Parameters:  
 280:Generated_Source\PSoC4/GLCD.c **** *  prtValue:  The value  
 281:Generated_Source\PSoC4/GLCD.c **** *
 282:Generated_Source\PSoC4/GLCD.c **** * Return: 
 283:Generated_Source\PSoC4/GLCD.c **** *  None 
 284:Generated_Source\PSoC4/GLCD.c **** *  Added by Steve Sparks @ Big Nerd Ranch.
 285:Generated_Source\PSoC4/GLCD.c **** *  This swaps the Epson RGB order into the Philips RGB order. (Or, vice versa, I suppose.)
 286:Generated_Source\PSoC4/GLCD.c **** *******************************************************************************/
 287:Generated_Source\PSoC4/GLCD.c **** int32 GLCD_SwapColors(int32 in)
 288:Generated_Source\PSoC4/GLCD.c **** {
 371              		.loc 1 288 0
 372              		.cfi_startproc
 373 0000 80B5     		push	{r7, lr}
 374              		.cfi_def_cfa_offset 8
 375              		.cfi_offset 7, -8
 376              		.cfi_offset 14, -4
 377 0002 82B0     		sub	sp, sp, #8
 378              		.cfi_def_cfa_offset 16
 379 0004 00AF     		add	r7, sp, #0
 380              		.cfi_def_cfa_register 7
 381 0006 7860     		str	r0, [r7, #4]
 289:Generated_Source\PSoC4/GLCD.c ****     return ((in & 0x000F)<<8)|(in & 0x00F0)|((in & 0x0F00)>>8);
 382              		.loc 1 289 0
 383 0008 7B68     		ldr	r3, [r7, #4]
 384 000a 0F22     		mov	r2, #15
 385 000c 1340     		and	r3, r2
 386 000e 1A02     		lsl	r2, r3, #8
 387 0010 7B68     		ldr	r3, [r7, #4]
 388 0012 F021     		mov	r1, #240
 389 0014 0B40     		and	r3, r1
 390 0016 1A43     		orr	r2, r3
 391 0018 7968     		ldr	r1, [r7, #4]
 392 001a F023     		mov	r3, #240
 393 001c 1B01     		lsl	r3, r3, #4
ARM GAS  C:\Users\bolding\AppData\Local\Temp\ccF41pl0.s 			page 13


 394 001e 0B40     		and	r3, r1
 395 0020 1B12     		asr	r3, r3, #8
 396 0022 1343     		orr	r3, r2
 290:Generated_Source\PSoC4/GLCD.c **** }
 397              		.loc 1 290 0
 398 0024 181C     		mov	r0, r3
 399 0026 BD46     		mov	sp, r7
 400 0028 02B0     		add	sp, sp, #8
 401              		@ sp needed
 402 002a 80BD     		pop	{r7, pc}
 403              		.cfi_endproc
 404              	.LFE6:
 405              		.size	GLCD_SwapColors, .-GLCD_SwapColors
 406              		.section	.text.GLCD_Pixel,"ax",%progbits
 407              		.align	2
 408              		.global	GLCD_Pixel
 409              		.code	16
 410              		.thumb_func
 411              		.type	GLCD_Pixel, %function
 412              	GLCD_Pixel:
 413              	.LFB7:
 291:Generated_Source\PSoC4/GLCD.c **** /*******************************************************************************
 292:Generated_Source\PSoC4/GLCD.c **** * Function Name: GLCD_Pixel
 293:Generated_Source\PSoC4/GLCD.c **** ********************************************************************************
 294:Generated_Source\PSoC4/GLCD.c **** *
 295:Generated_Source\PSoC4/GLCD.c **** * Summary:
 296:Generated_Source\PSoC4/GLCD.c **** *  Draw Pixel  
 297:Generated_Source\PSoC4/GLCD.c **** *
 298:Generated_Source\PSoC4/GLCD.c **** * Parameters:  
 299:Generated_Source\PSoC4/GLCD.c **** *  x,y:    Location to draw the pixel
 300:Generated_Source\PSoC4/GLCD.c **** *  color:  Color of the pixel
 301:Generated_Source\PSoC4/GLCD.c **** *
 302:Generated_Source\PSoC4/GLCD.c **** * Return: 
 303:Generated_Source\PSoC4/GLCD.c **** *  None 
 304:Generated_Source\PSoC4/GLCD.c **** *******************************************************************************/
 305:Generated_Source\PSoC4/GLCD.c **** void GLCD_Pixel(int32 x, int32 y, int32 color)
 306:Generated_Source\PSoC4/GLCD.c **** {
 414              		.loc 1 306 0
 415              		.cfi_startproc
 416 0000 80B5     		push	{r7, lr}
 417              		.cfi_def_cfa_offset 8
 418              		.cfi_offset 7, -8
 419              		.cfi_offset 14, -4
 420 0002 84B0     		sub	sp, sp, #16
 421              		.cfi_def_cfa_offset 24
 422 0004 00AF     		add	r7, sp, #0
 423              		.cfi_def_cfa_register 7
 424 0006 F860     		str	r0, [r7, #12]
 425 0008 B960     		str	r1, [r7, #8]
 426 000a 7A60     		str	r2, [r7, #4]
 307:Generated_Source\PSoC4/GLCD.c ****     y =	(GLCD_COL_HEIGHT - 1) - y;
 427              		.loc 1 307 0
 428 000c BB68     		ldr	r3, [r7, #8]
 429 000e 8322     		mov	r2, #131
 430 0010 D31A     		sub	r3, r2, r3
 431 0012 BB60     		str	r3, [r7, #8]
 308:Generated_Source\PSoC4/GLCD.c ****     x = (GLCD_ROW_LENGTH - 1) - x;
ARM GAS  C:\Users\bolding\AppData\Local\Temp\ccF41pl0.s 			page 14


 432              		.loc 1 308 0
 433 0014 FB68     		ldr	r3, [r7, #12]
 434 0016 8322     		mov	r2, #131
 435 0018 D31A     		sub	r3, r2, r3
 436 001a FB60     		str	r3, [r7, #12]
 309:Generated_Source\PSoC4/GLCD.c **** 
 310:Generated_Source\PSoC4/GLCD.c **** #if (GLCD_Controller == GLCD_EPSON) /* EPSON     */
 311:Generated_Source\PSoC4/GLCD.c **** 	GLCD_Command(GLCD_PAGEADDR);    /* Set page  */
 312:Generated_Source\PSoC4/GLCD.c **** 	GLCD_Data(x);
 313:Generated_Source\PSoC4/GLCD.c **** 	GLCD_Data(GLCD_ENDPAGE);
 314:Generated_Source\PSoC4/GLCD.c **** 
 315:Generated_Source\PSoC4/GLCD.c **** 	GLCD_Command(GLCD_COLADDR);     /* Set column */
 316:Generated_Source\PSoC4/GLCD.c **** 	GLCD_Data(y);
 317:Generated_Source\PSoC4/GLCD.c **** 	GLCD_Data(GLCD_ENDCOL);
 318:Generated_Source\PSoC4/GLCD.c **** 
 319:Generated_Source\PSoC4/GLCD.c **** 	GLCD_Command(GLCD_RAMWR);       /* Write color data */
 320:Generated_Source\PSoC4/GLCD.c **** 	GLCD_Data((color>>4)&0x00FF);
 321:Generated_Source\PSoC4/GLCD.c **** 	GLCD_Data(((color&0x0F)<<4)|(color>>8));
 322:Generated_Source\PSoC4/GLCD.c **** 	GLCD_Data(color&0x0FF);
 323:Generated_Source\PSoC4/GLCD.c **** #endif
 324:Generated_Source\PSoC4/GLCD.c **** 
 325:Generated_Source\PSoC4/GLCD.c **** #if (GLCD_Controller == GLCD_PHILIPS) /* PHILIPS   */
 326:Generated_Source\PSoC4/GLCD.c **** 	GLCD_Command(GLCD_PAGEADDR);      /* Set page  */
 437              		.loc 1 326 0
 438 001c 2B20     		mov	r0, #43
 439 001e FFF7FEFF 		bl	GLCD_Command
 327:Generated_Source\PSoC4/GLCD.c **** 	GLCD_Data((uint8)x);
 440              		.loc 1 327 0
 441 0022 FB68     		ldr	r3, [r7, #12]
 442 0024 DBB2     		uxtb	r3, r3
 443 0026 181C     		mov	r0, r3
 444 0028 FFF7FEFF 		bl	GLCD_Data
 328:Generated_Source\PSoC4/GLCD.c **** 	GLCD_Data((uint8)x);
 445              		.loc 1 328 0
 446 002c FB68     		ldr	r3, [r7, #12]
 447 002e DBB2     		uxtb	r3, r3
 448 0030 181C     		mov	r0, r3
 449 0032 FFF7FEFF 		bl	GLCD_Data
 329:Generated_Source\PSoC4/GLCD.c **** 
 330:Generated_Source\PSoC4/GLCD.c **** 	GLCD_Command(GLCD_COLADDR);       /* Set column */
 450              		.loc 1 330 0
 451 0036 2A20     		mov	r0, #42
 452 0038 FFF7FEFF 		bl	GLCD_Command
 331:Generated_Source\PSoC4/GLCD.c **** 	GLCD_Data((uint8)y);
 453              		.loc 1 331 0
 454 003c BB68     		ldr	r3, [r7, #8]
 455 003e DBB2     		uxtb	r3, r3
 456 0040 181C     		mov	r0, r3
 457 0042 FFF7FEFF 		bl	GLCD_Data
 332:Generated_Source\PSoC4/GLCD.c **** 	GLCD_Data((uint8)y);
 458              		.loc 1 332 0
 459 0046 BB68     		ldr	r3, [r7, #8]
 460 0048 DBB2     		uxtb	r3, r3
 461 004a 181C     		mov	r0, r3
 462 004c FFF7FEFF 		bl	GLCD_Data
 333:Generated_Source\PSoC4/GLCD.c **** 
 334:Generated_Source\PSoC4/GLCD.c **** 	GLCD_Command(GLCD_RAMWR);         /* Write color data */
ARM GAS  C:\Users\bolding\AppData\Local\Temp\ccF41pl0.s 			page 15


 463              		.loc 1 334 0
 464 0050 2C20     		mov	r0, #44
 465 0052 FFF7FEFF 		bl	GLCD_Command
 335:Generated_Source\PSoC4/GLCD.c **** 	GLCD_Data((uint8)((color>>4)&0x00FF));
 466              		.loc 1 335 0
 467 0056 7B68     		ldr	r3, [r7, #4]
 468 0058 1B11     		asr	r3, r3, #4
 469 005a DBB2     		uxtb	r3, r3
 470 005c 181C     		mov	r0, r3
 471 005e FFF7FEFF 		bl	GLCD_Data
 336:Generated_Source\PSoC4/GLCD.c **** 	GLCD_Data((uint8)(((color&0x0F)<<4)|0x00));
 472              		.loc 1 336 0
 473 0062 7B68     		ldr	r3, [r7, #4]
 474 0064 1B01     		lsl	r3, r3, #4
 475 0066 DBB2     		uxtb	r3, r3
 476 0068 181C     		mov	r0, r3
 477 006a FFF7FEFF 		bl	GLCD_Data
 337:Generated_Source\PSoC4/GLCD.c **** #endif
 338:Generated_Source\PSoC4/GLCD.c **** }
 478              		.loc 1 338 0
 479 006e BD46     		mov	sp, r7
 480 0070 04B0     		add	sp, sp, #16
 481              		@ sp needed
 482 0072 80BD     		pop	{r7, pc}
 483              		.cfi_endproc
 484              	.LFE7:
 485              		.size	GLCD_Pixel, .-GLCD_Pixel
 486              		.section	.text.GLCD_DrawCircle,"ax",%progbits
 487              		.align	2
 488              		.global	GLCD_DrawCircle
 489              		.code	16
 490              		.thumb_func
 491              		.type	GLCD_DrawCircle, %function
 492              	GLCD_DrawCircle:
 493              	.LFB8:
 339:Generated_Source\PSoC4/GLCD.c **** 
 340:Generated_Source\PSoC4/GLCD.c **** /*******************************************************************************
 341:Generated_Source\PSoC4/GLCD.c **** * Function Name: GLCD_DrawCircle
 342:Generated_Source\PSoC4/GLCD.c **** ********************************************************************************
 343:Generated_Source\PSoC4/GLCD.c **** *
 344:Generated_Source\PSoC4/GLCD.c **** * Summary:
 345:Generated_Source\PSoC4/GLCD.c **** *  Draw a circle on the display given a start point and radius.  
 346:Generated_Source\PSoC4/GLCD.c **** *
 347:Generated_Source\PSoC4/GLCD.c **** *  This code uses Bresenham's Circle Algorithm. 
 348:Generated_Source\PSoC4/GLCD.c **** *
 349:Generated_Source\PSoC4/GLCD.c **** * Parameters:  
 350:Generated_Source\PSoC4/GLCD.c **** *  x0, y0: Center of circle
 351:Generated_Source\PSoC4/GLCD.c **** *  radius: Radius of circle
 352:Generated_Source\PSoC4/GLCD.c **** *  color:  Color of circle
 353:Generated_Source\PSoC4/GLCD.c **** *
 354:Generated_Source\PSoC4/GLCD.c **** * Return: 
 355:Generated_Source\PSoC4/GLCD.c **** *  None 
 356:Generated_Source\PSoC4/GLCD.c **** *  
 357:Generated_Source\PSoC4/GLCD.c **** *******************************************************************************/
 358:Generated_Source\PSoC4/GLCD.c **** void GLCD_DrawCircle (int32 x0, int32 y0, int32 radius, int32 color)
 359:Generated_Source\PSoC4/GLCD.c **** {
 494              		.loc 1 359 0
ARM GAS  C:\Users\bolding\AppData\Local\Temp\ccF41pl0.s 			page 16


 495              		.cfi_startproc
 496 0000 80B5     		push	{r7, lr}
 497              		.cfi_def_cfa_offset 8
 498              		.cfi_offset 7, -8
 499              		.cfi_offset 14, -4
 500 0002 8AB0     		sub	sp, sp, #40
 501              		.cfi_def_cfa_offset 48
 502 0004 00AF     		add	r7, sp, #0
 503              		.cfi_def_cfa_register 7
 504 0006 F860     		str	r0, [r7, #12]
 505 0008 B960     		str	r1, [r7, #8]
 506 000a 7A60     		str	r2, [r7, #4]
 507 000c 3B60     		str	r3, [r7]
 360:Generated_Source\PSoC4/GLCD.c **** 	int32 f = 1 - radius;
 508              		.loc 1 360 0
 509 000e 7B68     		ldr	r3, [r7, #4]
 510 0010 0122     		mov	r2, #1
 511 0012 D31A     		sub	r3, r2, r3
 512 0014 7B62     		str	r3, [r7, #36]
 361:Generated_Source\PSoC4/GLCD.c **** 	int32 ddF_x = 0;
 513              		.loc 1 361 0
 514 0016 0023     		mov	r3, #0
 515 0018 3B62     		str	r3, [r7, #32]
 362:Generated_Source\PSoC4/GLCD.c **** 	int32 ddF_y = -2 * radius;
 516              		.loc 1 362 0
 517 001a 7A68     		ldr	r2, [r7, #4]
 518 001c 131C     		mov	r3, r2
 519 001e DB07     		lsl	r3, r3, #31
 520 0020 9B1A     		sub	r3, r3, r2
 521 0022 5B00     		lsl	r3, r3, #1
 522 0024 FB61     		str	r3, [r7, #28]
 363:Generated_Source\PSoC4/GLCD.c **** 	int32 x = 0;
 523              		.loc 1 363 0
 524 0026 0023     		mov	r3, #0
 525 0028 BB61     		str	r3, [r7, #24]
 364:Generated_Source\PSoC4/GLCD.c **** 	int32 y = radius;
 526              		.loc 1 364 0
 527 002a 7B68     		ldr	r3, [r7, #4]
 528 002c 7B61     		str	r3, [r7, #20]
 365:Generated_Source\PSoC4/GLCD.c **** 
 366:Generated_Source\PSoC4/GLCD.c **** 	GLCD_Pixel(x0, y0 + radius, color);
 529              		.loc 1 366 0
 530 002e BA68     		ldr	r2, [r7, #8]
 531 0030 7B68     		ldr	r3, [r7, #4]
 532 0032 D218     		add	r2, r2, r3
 533 0034 F968     		ldr	r1, [r7, #12]
 534 0036 3B68     		ldr	r3, [r7]
 535 0038 081C     		mov	r0, r1
 536 003a 111C     		mov	r1, r2
 537 003c 1A1C     		mov	r2, r3
 538 003e FFF7FEFF 		bl	GLCD_Pixel
 367:Generated_Source\PSoC4/GLCD.c **** 	GLCD_Pixel(x0, y0 - radius, color);
 539              		.loc 1 367 0
 540 0042 BA68     		ldr	r2, [r7, #8]
 541 0044 7B68     		ldr	r3, [r7, #4]
 542 0046 D21A     		sub	r2, r2, r3
 543 0048 F968     		ldr	r1, [r7, #12]
ARM GAS  C:\Users\bolding\AppData\Local\Temp\ccF41pl0.s 			page 17


 544 004a 3B68     		ldr	r3, [r7]
 545 004c 081C     		mov	r0, r1
 546 004e 111C     		mov	r1, r2
 547 0050 1A1C     		mov	r2, r3
 548 0052 FFF7FEFF 		bl	GLCD_Pixel
 368:Generated_Source\PSoC4/GLCD.c **** 	GLCD_Pixel( x0 + radius, y0, color);
 549              		.loc 1 368 0
 550 0056 FA68     		ldr	r2, [r7, #12]
 551 0058 7B68     		ldr	r3, [r7, #4]
 552 005a D118     		add	r1, r2, r3
 553 005c BA68     		ldr	r2, [r7, #8]
 554 005e 3B68     		ldr	r3, [r7]
 555 0060 081C     		mov	r0, r1
 556 0062 111C     		mov	r1, r2
 557 0064 1A1C     		mov	r2, r3
 558 0066 FFF7FEFF 		bl	GLCD_Pixel
 369:Generated_Source\PSoC4/GLCD.c **** 	GLCD_Pixel( x0 - radius, y0, color);
 559              		.loc 1 369 0
 560 006a FA68     		ldr	r2, [r7, #12]
 561 006c 7B68     		ldr	r3, [r7, #4]
 562 006e D11A     		sub	r1, r2, r3
 563 0070 BA68     		ldr	r2, [r7, #8]
 564 0072 3B68     		ldr	r3, [r7]
 565 0074 081C     		mov	r0, r1
 566 0076 111C     		mov	r1, r2
 567 0078 1A1C     		mov	r2, r3
 568 007a FFF7FEFF 		bl	GLCD_Pixel
 370:Generated_Source\PSoC4/GLCD.c **** 
 371:Generated_Source\PSoC4/GLCD.c **** 	while(x < y)
 569              		.loc 1 371 0
 570 007e 77E0     		b	.L17
 571              	.L19:
 372:Generated_Source\PSoC4/GLCD.c **** 	{
 373:Generated_Source\PSoC4/GLCD.c **** 		if(f >= 0)
 572              		.loc 1 373 0
 573 0080 7B6A     		ldr	r3, [r7, #36]
 574 0082 002B     		cmp	r3, #0
 575 0084 09DB     		blt	.L18
 374:Generated_Source\PSoC4/GLCD.c **** 		{
 375:Generated_Source\PSoC4/GLCD.c **** 			y--;
 576              		.loc 1 375 0
 577 0086 7B69     		ldr	r3, [r7, #20]
 578 0088 013B     		sub	r3, r3, #1
 579 008a 7B61     		str	r3, [r7, #20]
 376:Generated_Source\PSoC4/GLCD.c **** 			ddF_y += 2;
 580              		.loc 1 376 0
 581 008c FB69     		ldr	r3, [r7, #28]
 582 008e 0233     		add	r3, r3, #2
 583 0090 FB61     		str	r3, [r7, #28]
 377:Generated_Source\PSoC4/GLCD.c **** 			f += ddF_y;
 584              		.loc 1 377 0
 585 0092 7A6A     		ldr	r2, [r7, #36]
 586 0094 FB69     		ldr	r3, [r7, #28]
 587 0096 D318     		add	r3, r2, r3
 588 0098 7B62     		str	r3, [r7, #36]
 589              	.L18:
 378:Generated_Source\PSoC4/GLCD.c **** 		}
ARM GAS  C:\Users\bolding\AppData\Local\Temp\ccF41pl0.s 			page 18


 379:Generated_Source\PSoC4/GLCD.c **** 		x++;
 590              		.loc 1 379 0
 591 009a BB69     		ldr	r3, [r7, #24]
 592 009c 0133     		add	r3, r3, #1
 593 009e BB61     		str	r3, [r7, #24]
 380:Generated_Source\PSoC4/GLCD.c **** 		ddF_x += 2;
 594              		.loc 1 380 0
 595 00a0 3B6A     		ldr	r3, [r7, #32]
 596 00a2 0233     		add	r3, r3, #2
 597 00a4 3B62     		str	r3, [r7, #32]
 381:Generated_Source\PSoC4/GLCD.c **** 		f += ddF_x + 1;
 598              		.loc 1 381 0
 599 00a6 3B6A     		ldr	r3, [r7, #32]
 600 00a8 0133     		add	r3, r3, #1
 601 00aa 7A6A     		ldr	r2, [r7, #36]
 602 00ac D318     		add	r3, r2, r3
 603 00ae 7B62     		str	r3, [r7, #36]
 382:Generated_Source\PSoC4/GLCD.c **** 
 383:Generated_Source\PSoC4/GLCD.c **** 		GLCD_Pixel(x0 + x, y0 + y, color);
 604              		.loc 1 383 0
 605 00b0 FA68     		ldr	r2, [r7, #12]
 606 00b2 BB69     		ldr	r3, [r7, #24]
 607 00b4 D118     		add	r1, r2, r3
 608 00b6 BA68     		ldr	r2, [r7, #8]
 609 00b8 7B69     		ldr	r3, [r7, #20]
 610 00ba D218     		add	r2, r2, r3
 611 00bc 3B68     		ldr	r3, [r7]
 612 00be 081C     		mov	r0, r1
 613 00c0 111C     		mov	r1, r2
 614 00c2 1A1C     		mov	r2, r3
 615 00c4 FFF7FEFF 		bl	GLCD_Pixel
 384:Generated_Source\PSoC4/GLCD.c **** 		GLCD_Pixel(x0 - x, y0 + y, color);
 616              		.loc 1 384 0
 617 00c8 FA68     		ldr	r2, [r7, #12]
 618 00ca BB69     		ldr	r3, [r7, #24]
 619 00cc D11A     		sub	r1, r2, r3
 620 00ce BA68     		ldr	r2, [r7, #8]
 621 00d0 7B69     		ldr	r3, [r7, #20]
 622 00d2 D218     		add	r2, r2, r3
 623 00d4 3B68     		ldr	r3, [r7]
 624 00d6 081C     		mov	r0, r1
 625 00d8 111C     		mov	r1, r2
 626 00da 1A1C     		mov	r2, r3
 627 00dc FFF7FEFF 		bl	GLCD_Pixel
 385:Generated_Source\PSoC4/GLCD.c **** 		GLCD_Pixel( x0 + x, y0 - y, color);
 628              		.loc 1 385 0
 629 00e0 FA68     		ldr	r2, [r7, #12]
 630 00e2 BB69     		ldr	r3, [r7, #24]
 631 00e4 D118     		add	r1, r2, r3
 632 00e6 BA68     		ldr	r2, [r7, #8]
 633 00e8 7B69     		ldr	r3, [r7, #20]
 634 00ea D21A     		sub	r2, r2, r3
 635 00ec 3B68     		ldr	r3, [r7]
 636 00ee 081C     		mov	r0, r1
 637 00f0 111C     		mov	r1, r2
 638 00f2 1A1C     		mov	r2, r3
 639 00f4 FFF7FEFF 		bl	GLCD_Pixel
ARM GAS  C:\Users\bolding\AppData\Local\Temp\ccF41pl0.s 			page 19


 386:Generated_Source\PSoC4/GLCD.c **** 		GLCD_Pixel( x0 - x, y0 - y, color);
 640              		.loc 1 386 0
 641 00f8 FA68     		ldr	r2, [r7, #12]
 642 00fa BB69     		ldr	r3, [r7, #24]
 643 00fc D11A     		sub	r1, r2, r3
 644 00fe BA68     		ldr	r2, [r7, #8]
 645 0100 7B69     		ldr	r3, [r7, #20]
 646 0102 D21A     		sub	r2, r2, r3
 647 0104 3B68     		ldr	r3, [r7]
 648 0106 081C     		mov	r0, r1
 649 0108 111C     		mov	r1, r2
 650 010a 1A1C     		mov	r2, r3
 651 010c FFF7FEFF 		bl	GLCD_Pixel
 387:Generated_Source\PSoC4/GLCD.c **** 		GLCD_Pixel( x0 + y, y0 + x, color);
 652              		.loc 1 387 0
 653 0110 FA68     		ldr	r2, [r7, #12]
 654 0112 7B69     		ldr	r3, [r7, #20]
 655 0114 D118     		add	r1, r2, r3
 656 0116 BA68     		ldr	r2, [r7, #8]
 657 0118 BB69     		ldr	r3, [r7, #24]
 658 011a D218     		add	r2, r2, r3
 659 011c 3B68     		ldr	r3, [r7]
 660 011e 081C     		mov	r0, r1
 661 0120 111C     		mov	r1, r2
 662 0122 1A1C     		mov	r2, r3
 663 0124 FFF7FEFF 		bl	GLCD_Pixel
 388:Generated_Source\PSoC4/GLCD.c **** 		GLCD_Pixel( x0 - y, y0 + x, color);
 664              		.loc 1 388 0
 665 0128 FA68     		ldr	r2, [r7, #12]
 666 012a 7B69     		ldr	r3, [r7, #20]
 667 012c D11A     		sub	r1, r2, r3
 668 012e BA68     		ldr	r2, [r7, #8]
 669 0130 BB69     		ldr	r3, [r7, #24]
 670 0132 D218     		add	r2, r2, r3
 671 0134 3B68     		ldr	r3, [r7]
 672 0136 081C     		mov	r0, r1
 673 0138 111C     		mov	r1, r2
 674 013a 1A1C     		mov	r2, r3
 675 013c FFF7FEFF 		bl	GLCD_Pixel
 389:Generated_Source\PSoC4/GLCD.c **** 		GLCD_Pixel( x0 + y, y0 - x, color);
 676              		.loc 1 389 0
 677 0140 FA68     		ldr	r2, [r7, #12]
 678 0142 7B69     		ldr	r3, [r7, #20]
 679 0144 D118     		add	r1, r2, r3
 680 0146 BA68     		ldr	r2, [r7, #8]
 681 0148 BB69     		ldr	r3, [r7, #24]
 682 014a D21A     		sub	r2, r2, r3
 683 014c 3B68     		ldr	r3, [r7]
 684 014e 081C     		mov	r0, r1
 685 0150 111C     		mov	r1, r2
 686 0152 1A1C     		mov	r2, r3
 687 0154 FFF7FEFF 		bl	GLCD_Pixel
 390:Generated_Source\PSoC4/GLCD.c **** 		GLCD_Pixel( x0 - y, y0 - x, color);
 688              		.loc 1 390 0
 689 0158 FA68     		ldr	r2, [r7, #12]
 690 015a 7B69     		ldr	r3, [r7, #20]
 691 015c D11A     		sub	r1, r2, r3
ARM GAS  C:\Users\bolding\AppData\Local\Temp\ccF41pl0.s 			page 20


 692 015e BA68     		ldr	r2, [r7, #8]
 693 0160 BB69     		ldr	r3, [r7, #24]
 694 0162 D21A     		sub	r2, r2, r3
 695 0164 3B68     		ldr	r3, [r7]
 696 0166 081C     		mov	r0, r1
 697 0168 111C     		mov	r1, r2
 698 016a 1A1C     		mov	r2, r3
 699 016c FFF7FEFF 		bl	GLCD_Pixel
 700              	.L17:
 371:Generated_Source\PSoC4/GLCD.c **** 	{
 701              		.loc 1 371 0
 702 0170 BA69     		ldr	r2, [r7, #24]
 703 0172 7B69     		ldr	r3, [r7, #20]
 704 0174 9A42     		cmp	r2, r3
 705 0176 83DB     		blt	.L19
 391:Generated_Source\PSoC4/GLCD.c **** 	}
 392:Generated_Source\PSoC4/GLCD.c **** }
 706              		.loc 1 392 0
 707 0178 BD46     		mov	sp, r7
 708 017a 0AB0     		add	sp, sp, #40
 709              		@ sp needed
 710 017c 80BD     		pop	{r7, pc}
 711              		.cfi_endproc
 712              	.LFE8:
 713              		.size	GLCD_DrawCircle, .-GLCD_DrawCircle
 714 017e C046     		.section	.text.GLCD_PrintChar,"ax",%progbits
 715              		.align	2
 716              		.global	GLCD_PrintChar
 717              		.code	16
 718              		.thumb_func
 719              		.type	GLCD_PrintChar, %function
 720              	GLCD_PrintChar:
 721              	.LFB9:
 393:Generated_Source\PSoC4/GLCD.c **** 
 394:Generated_Source\PSoC4/GLCD.c **** /*******************************************************************************
 395:Generated_Source\PSoC4/GLCD.c **** * Function Name: GLCD_PrintChar
 396:Generated_Source\PSoC4/GLCD.c **** ********************************************************************************
 397:Generated_Source\PSoC4/GLCD.c **** *
 398:Generated_Source\PSoC4/GLCD.c **** * Summary:
 399:Generated_Source\PSoC4/GLCD.c **** *  Print a character on the display.  
 400:Generated_Source\PSoC4/GLCD.c **** *
 401:Generated_Source\PSoC4/GLCD.c **** * Parameters:  
 402:Generated_Source\PSoC4/GLCD.c **** *  c:       ASCII character to be printed
 403:Generated_Source\PSoC4/GLCD.c **** *  x,y:     Location where character will be printed.
 404:Generated_Source\PSoC4/GLCD.c **** *  fColor:  Foreground color
 405:Generated_Source\PSoC4/GLCD.c **** *  bColor:  Background color
 406:Generated_Source\PSoC4/GLCD.c **** *
 407:Generated_Source\PSoC4/GLCD.c **** * Return: 
 408:Generated_Source\PSoC4/GLCD.c **** *  None 
 409:Generated_Source\PSoC4/GLCD.c **** *  
 410:Generated_Source\PSoC4/GLCD.c **** *******************************************************************************/
 411:Generated_Source\PSoC4/GLCD.c **** void GLCD_PrintChar(uint8 c, int32 x, int32 y, int32 fColor, int32 bColor)
 412:Generated_Source\PSoC4/GLCD.c **** {
 722              		.loc 1 412 0
 723              		.cfi_startproc
 724 0000 80B5     		push	{r7, lr}
 725              		.cfi_def_cfa_offset 8
ARM GAS  C:\Users\bolding\AppData\Local\Temp\ccF41pl0.s 			page 21


 726              		.cfi_offset 7, -8
 727              		.cfi_offset 14, -4
 728 0002 90B0     		sub	sp, sp, #64
 729              		.cfi_def_cfa_offset 72
 730 0004 00AF     		add	r7, sp, #0
 731              		.cfi_def_cfa_register 7
 732 0006 B960     		str	r1, [r7, #8]
 733 0008 7A60     		str	r2, [r7, #4]
 734 000a 3B60     		str	r3, [r7]
 735 000c 0F23     		mov	r3, #15
 736 000e FB18     		add	r3, r7, r3
 737 0010 021C     		add	r2, r0, #0
 738 0012 1A70     		strb	r2, [r3]
 413:Generated_Source\PSoC4/GLCD.c **** 	y	=	(GLCD_COL_HEIGHT - 1) - y; /* make display "right" side up */
 739              		.loc 1 413 0
 740 0014 7B68     		ldr	r3, [r7, #4]
 741 0016 8322     		mov	r2, #131
 742 0018 D31A     		sub	r3, r2, r3
 743 001a 7B60     		str	r3, [r7, #4]
 414:Generated_Source\PSoC4/GLCD.c **** 	x	=	(GLCD_ROW_LENGTH - 2) - x;
 744              		.loc 1 414 0
 745 001c BB68     		ldr	r3, [r7, #8]
 746 001e 8222     		mov	r2, #130
 747 0020 D31A     		sub	r3, r2, r3
 748 0022 BB60     		str	r3, [r7, #8]
 415:Generated_Source\PSoC4/GLCD.c **** 
 416:Generated_Source\PSoC4/GLCD.c **** 	int32             i,j;
 417:Generated_Source\PSoC4/GLCD.c **** 	int32    nCols;
 418:Generated_Source\PSoC4/GLCD.c **** 	int32    nRows;
 419:Generated_Source\PSoC4/GLCD.c **** 	int32    nBytes;
 420:Generated_Source\PSoC4/GLCD.c **** 	uint8    PixelRow;
 421:Generated_Source\PSoC4/GLCD.c **** 	uint8    Mask;
 422:Generated_Source\PSoC4/GLCD.c **** 	int32    Word0;
 423:Generated_Source\PSoC4/GLCD.c **** 	int32    Word1;
 424:Generated_Source\PSoC4/GLCD.c **** 	uint8   *pFont;
 425:Generated_Source\PSoC4/GLCD.c **** 	uint8   *pChar;
 426:Generated_Source\PSoC4/GLCD.c **** 
 427:Generated_Source\PSoC4/GLCD.c **** 	/* Get pointer to the beginning of the selected font table  */
 428:Generated_Source\PSoC4/GLCD.c **** 	pFont = (uint8 *)GLCD_FONT8x16;
 749              		.loc 1 428 0
 750 0024 574B     		ldr	r3, .L29
 751 0026 7B62     		str	r3, [r7, #36]
 429:Generated_Source\PSoC4/GLCD.c **** 	
 430:Generated_Source\PSoC4/GLCD.c **** 	/* Get the nColumns, nRows and nBytes.                      */
 431:Generated_Source\PSoC4/GLCD.c **** 	nCols = *pFont;
 752              		.loc 1 431 0
 753 0028 7B6A     		ldr	r3, [r7, #36]
 754 002a 1B78     		ldrb	r3, [r3]
 755 002c 3B62     		str	r3, [r7, #32]
 432:Generated_Source\PSoC4/GLCD.c **** 	nRows = *(pFont + 1);
 756              		.loc 1 432 0
 757 002e 7B6A     		ldr	r3, [r7, #36]
 758 0030 0133     		add	r3, r3, #1
 759 0032 1B78     		ldrb	r3, [r3]
 760 0034 FB61     		str	r3, [r7, #28]
 433:Generated_Source\PSoC4/GLCD.c **** 	nBytes = *(pFont + 2);
 761              		.loc 1 433 0
ARM GAS  C:\Users\bolding\AppData\Local\Temp\ccF41pl0.s 			page 22


 762 0036 7B6A     		ldr	r3, [r7, #36]
 763 0038 0233     		add	r3, r3, #2
 764 003a 1B78     		ldrb	r3, [r3]
 765 003c BB61     		str	r3, [r7, #24]
 434:Generated_Source\PSoC4/GLCD.c **** 	
 435:Generated_Source\PSoC4/GLCD.c **** 	/* Get pointer to the last byte of the desired character    */
 436:Generated_Source\PSoC4/GLCD.c **** 	pChar = pFont + (nBytes * (c - 0x1F)) + nBytes - 1;
 766              		.loc 1 436 0
 767 003e 0F23     		mov	r3, #15
 768 0040 FB18     		add	r3, r7, r3
 769 0042 1B78     		ldrb	r3, [r3]
 770 0044 1F3B     		sub	r3, r3, #31
 771 0046 BA69     		ldr	r2, [r7, #24]
 772 0048 5343     		mul	r3, r2
 773 004a 1A1C     		mov	r2, r3
 774 004c BB69     		ldr	r3, [r7, #24]
 775 004e D318     		add	r3, r2, r3
 776 0050 013B     		sub	r3, r3, #1
 777 0052 7A6A     		ldr	r2, [r7, #36]
 778 0054 D318     		add	r3, r2, r3
 779 0056 BB62     		str	r3, [r7, #40]
 437:Generated_Source\PSoC4/GLCD.c **** 
 438:Generated_Source\PSoC4/GLCD.c **** #if (GLCD_Controller == GLCD_EPSON)
 439:Generated_Source\PSoC4/GLCD.c **** 	/* Row address set */
 440:Generated_Source\PSoC4/GLCD.c **** 	GLCD_Command(GLCD_PAGEADDR);
 441:Generated_Source\PSoC4/GLCD.c **** 	GLCD_Data(x);
 442:Generated_Source\PSoC4/GLCD.c **** 	GLCD_Data((x + nRows - 1));
 443:Generated_Source\PSoC4/GLCD.c **** 	/* Column address set */
 444:Generated_Source\PSoC4/GLCD.c **** 	GLCD_Command(GLCD_COLADDR);
 445:Generated_Source\PSoC4/GLCD.c **** 	GLCD_Data(y);
 446:Generated_Source\PSoC4/GLCD.c **** 	GLCD_Data((y + nCols - 1));
 447:Generated_Source\PSoC4/GLCD.c **** 
 448:Generated_Source\PSoC4/GLCD.c **** 	/* Write Memory */
 449:Generated_Source\PSoC4/GLCD.c **** 	GLCD_Command(GLCD_RAMWR);
 450:Generated_Source\PSoC4/GLCD.c **** 	/* Loop on each row, working backwards from the bottom to the top  */
 451:Generated_Source\PSoC4/GLCD.c **** 	for (i = nRows - 1; i >= 0; i--) {
 452:Generated_Source\PSoC4/GLCD.c **** 		/* Copy pixel row from font table and then decrement row       */
 453:Generated_Source\PSoC4/GLCD.c **** 		PixelRow = *pChar++;
 454:Generated_Source\PSoC4/GLCD.c **** 		/* Loop on each pixel in the row (left to right)               */
 455:Generated_Source\PSoC4/GLCD.c **** 		/* Note: we do two pixels each loop                            */
 456:Generated_Source\PSoC4/GLCD.c **** 		Mask = 0x80;
 457:Generated_Source\PSoC4/GLCD.c **** 		for (j = 0; j < nCols; j += 2) 
 458:Generated_Source\PSoC4/GLCD.c **** 		{
 459:Generated_Source\PSoC4/GLCD.c **** 			/* If pixel bit set, use foreground color; else use the background color. */
 460:Generated_Source\PSoC4/GLCD.c **** 			/* Now get the pixel color for two successive pixels                      */
 461:Generated_Source\PSoC4/GLCD.c **** 			if ((PixelRow & Mask) == 0)
 462:Generated_Source\PSoC4/GLCD.c **** 			{
 463:Generated_Source\PSoC4/GLCD.c **** 				Word0 = bColor;
 464:Generated_Source\PSoC4/GLCD.c **** 			}
 465:Generated_Source\PSoC4/GLCD.c **** 			else
 466:Generated_Source\PSoC4/GLCD.c **** 			{
 467:Generated_Source\PSoC4/GLCD.c **** 				Word0 = fColor;
 468:Generated_Source\PSoC4/GLCD.c **** 			}
 469:Generated_Source\PSoC4/GLCD.c **** 			
 470:Generated_Source\PSoC4/GLCD.c **** 			Mask = Mask >> 1;
 471:Generated_Source\PSoC4/GLCD.c **** 			if ((PixelRow & Mask) == 0)
 472:Generated_Source\PSoC4/GLCD.c **** 			{
ARM GAS  C:\Users\bolding\AppData\Local\Temp\ccF41pl0.s 			page 23


 473:Generated_Source\PSoC4/GLCD.c **** 				Word1 = bColor;
 474:Generated_Source\PSoC4/GLCD.c **** 			}
 475:Generated_Source\PSoC4/GLCD.c **** 			else
 476:Generated_Source\PSoC4/GLCD.c **** 			{
 477:Generated_Source\PSoC4/GLCD.c **** 				Word1 = fColor;
 478:Generated_Source\PSoC4/GLCD.c **** 			}
 479:Generated_Source\PSoC4/GLCD.c **** 			Mask = Mask >> 1;
 480:Generated_Source\PSoC4/GLCD.c **** 			/* Use this information to output three data bytes  */
 481:Generated_Source\PSoC4/GLCD.c **** 			GLCD_Data((uint8)((Word0 >> 4) & 0xFF));
 482:Generated_Source\PSoC4/GLCD.c **** 			GLCD_Data((uint8)(((Word0 & 0xF) << 4) | ((Word1 >> 8) & 0xF)));
 483:Generated_Source\PSoC4/GLCD.c **** 			GLCD_Data((uint8)(Word1 & 0xFF));
 484:Generated_Source\PSoC4/GLCD.c **** 		}
 485:Generated_Source\PSoC4/GLCD.c **** 	}
 486:Generated_Source\PSoC4/GLCD.c **** #endif
 487:Generated_Source\PSoC4/GLCD.c **** 
 488:Generated_Source\PSoC4/GLCD.c **** #if (GLCD_Controller == GLCD_PHILIPS)
 489:Generated_Source\PSoC4/GLCD.c **** 
 490:Generated_Source\PSoC4/GLCD.c **** 	/* Set row address     */
 491:Generated_Source\PSoC4/GLCD.c **** 	GLCD_Command(GLCD_PAGEADDR);
 780              		.loc 1 491 0
 781 0058 2B20     		mov	r0, #43
 782 005a FFF7FEFF 		bl	GLCD_Command
 492:Generated_Source\PSoC4/GLCD.c **** 	GLCD_Data((uint8)x);
 783              		.loc 1 492 0
 784 005e BB68     		ldr	r3, [r7, #8]
 785 0060 DBB2     		uxtb	r3, r3
 786 0062 181C     		mov	r0, r3
 787 0064 FFF7FEFF 		bl	GLCD_Data
 493:Generated_Source\PSoC4/GLCD.c **** 	GLCD_Data((uint8)(x + nRows - 1));
 788              		.loc 1 493 0
 789 0068 BB68     		ldr	r3, [r7, #8]
 790 006a DAB2     		uxtb	r2, r3
 791 006c FB69     		ldr	r3, [r7, #28]
 792 006e DBB2     		uxtb	r3, r3
 793 0070 D318     		add	r3, r2, r3
 794 0072 DBB2     		uxtb	r3, r3
 795 0074 013B     		sub	r3, r3, #1
 796 0076 DBB2     		uxtb	r3, r3
 797 0078 181C     		mov	r0, r3
 798 007a FFF7FEFF 		bl	GLCD_Data
 494:Generated_Source\PSoC4/GLCD.c ****     /* Set column address  */
 495:Generated_Source\PSoC4/GLCD.c **** 	GLCD_Command(GLCD_COLADDR);
 799              		.loc 1 495 0
 800 007e 2A20     		mov	r0, #42
 801 0080 FFF7FEFF 		bl	GLCD_Command
 496:Generated_Source\PSoC4/GLCD.c **** 	GLCD_Data((uint8)y);
 802              		.loc 1 496 0
 803 0084 7B68     		ldr	r3, [r7, #4]
 804 0086 DBB2     		uxtb	r3, r3
 805 0088 181C     		mov	r0, r3
 806 008a FFF7FEFF 		bl	GLCD_Data
 497:Generated_Source\PSoC4/GLCD.c **** 	GLCD_Data((uint8)(y + nCols - 1));
 807              		.loc 1 497 0
 808 008e 7B68     		ldr	r3, [r7, #4]
 809 0090 DAB2     		uxtb	r2, r3
 810 0092 3B6A     		ldr	r3, [r7, #32]
 811 0094 DBB2     		uxtb	r3, r3
ARM GAS  C:\Users\bolding\AppData\Local\Temp\ccF41pl0.s 			page 24


 812 0096 D318     		add	r3, r2, r3
 813 0098 DBB2     		uxtb	r3, r3
 814 009a 013B     		sub	r3, r3, #1
 815 009c DBB2     		uxtb	r3, r3
 816 009e 181C     		mov	r0, r3
 817 00a0 FFF7FEFF 		bl	GLCD_Data
 498:Generated_Source\PSoC4/GLCD.c **** 
 499:Generated_Source\PSoC4/GLCD.c **** 	/* Write to display memory */
 500:Generated_Source\PSoC4/GLCD.c **** 	GLCD_Command(GLCD_RAMWR);
 818              		.loc 1 500 0
 819 00a4 2C20     		mov	r0, #44
 820 00a6 FFF7FEFF 		bl	GLCD_Command
 501:Generated_Source\PSoC4/GLCD.c **** 	/* loop on each row, working backwards from the bottom to the top.  */
 502:Generated_Source\PSoC4/GLCD.c **** 	pChar+=nBytes-1;  /* Stick pChar at the end of the row, need to reverse print on phillips */
 821              		.loc 1 502 0
 822 00aa BB69     		ldr	r3, [r7, #24]
 823 00ac 013B     		sub	r3, r3, #1
 824 00ae BA6A     		ldr	r2, [r7, #40]
 825 00b0 D318     		add	r3, r2, r3
 826 00b2 BB62     		str	r3, [r7, #40]
 503:Generated_Source\PSoC4/GLCD.c **** 	for (i = nRows - 1; i >= 0; i--) {
 827              		.loc 1 503 0
 828 00b4 FB69     		ldr	r3, [r7, #28]
 829 00b6 013B     		sub	r3, r3, #1
 830 00b8 FB63     		str	r3, [r7, #60]
 831 00ba 5DE0     		b	.L21
 832              	.L28:
 504:Generated_Source\PSoC4/GLCD.c **** 		/* copy pixel row from font table and then decrement row.  */
 505:Generated_Source\PSoC4/GLCD.c **** 		PixelRow = *pChar--;
 833              		.loc 1 505 0
 834 00bc BB6A     		ldr	r3, [r7, #40]
 835 00be 5A1E     		sub	r2, r3, #1
 836 00c0 BA62     		str	r2, [r7, #40]
 837 00c2 1722     		mov	r2, #23
 838 00c4 BA18     		add	r2, r7, r2
 839 00c6 1B78     		ldrb	r3, [r3]
 840 00c8 1370     		strb	r3, [r2]
 506:Generated_Source\PSoC4/GLCD.c **** 		/* Loop on each pixel in the row (left to right)  */
 507:Generated_Source\PSoC4/GLCD.c **** 		/* Note: we do two pixels each loop               */
 508:Generated_Source\PSoC4/GLCD.c **** 		Mask = 0x01;  
 841              		.loc 1 508 0
 842 00ca 3723     		mov	r3, #55
 843 00cc FB18     		add	r3, r7, r3
 844 00ce 0122     		mov	r2, #1
 845 00d0 1A70     		strb	r2, [r3]
 509:Generated_Source\PSoC4/GLCD.c **** 		for (j = 0; j < nCols; j += 2) 
 846              		.loc 1 509 0
 847 00d2 0023     		mov	r3, #0
 848 00d4 BB63     		str	r3, [r7, #56]
 849 00d6 48E0     		b	.L22
 850              	.L27:
 510:Generated_Source\PSoC4/GLCD.c **** 		{
 511:Generated_Source\PSoC4/GLCD.c **** 			/* If pixel bit set, use foreground color; else use the background color  */
 512:Generated_Source\PSoC4/GLCD.c **** 			/* Get the pixel color for two successive pixels                          */
 513:Generated_Source\PSoC4/GLCD.c **** 			if ((PixelRow & Mask) == 0)
 851              		.loc 1 513 0
 852 00d8 1723     		mov	r3, #23
ARM GAS  C:\Users\bolding\AppData\Local\Temp\ccF41pl0.s 			page 25


 853 00da FB18     		add	r3, r7, r3
 854 00dc 3722     		mov	r2, #55
 855 00de BA18     		add	r2, r7, r2
 856 00e0 1B78     		ldrb	r3, [r3]
 857 00e2 1278     		ldrb	r2, [r2]
 858 00e4 1340     		and	r3, r2
 859 00e6 DBB2     		uxtb	r3, r3
 860 00e8 002B     		cmp	r3, #0
 861 00ea 02D1     		bne	.L23
 514:Generated_Source\PSoC4/GLCD.c **** 				Word0 = bColor;
 862              		.loc 1 514 0
 863 00ec BB6C     		ldr	r3, [r7, #72]
 864 00ee 3B63     		str	r3, [r7, #48]
 865 00f0 01E0     		b	.L24
 866              	.L23:
 515:Generated_Source\PSoC4/GLCD.c **** 			else
 516:Generated_Source\PSoC4/GLCD.c **** 				Word0 = fColor;
 867              		.loc 1 516 0
 868 00f2 3B68     		ldr	r3, [r7]
 869 00f4 3B63     		str	r3, [r7, #48]
 870              	.L24:
 517:Generated_Source\PSoC4/GLCD.c **** 			Mask = Mask << 1; 
 871              		.loc 1 517 0
 872 00f6 3723     		mov	r3, #55
 873 00f8 FA18     		add	r2, r7, r3
 874 00fa 3723     		mov	r3, #55
 875 00fc FB18     		add	r3, r7, r3
 876 00fe 1B78     		ldrb	r3, [r3]
 877 0100 DB18     		add	r3, r3, r3
 878 0102 1370     		strb	r3, [r2]
 518:Generated_Source\PSoC4/GLCD.c **** 			if ((PixelRow & Mask) == 0)
 879              		.loc 1 518 0
 880 0104 1723     		mov	r3, #23
 881 0106 FB18     		add	r3, r7, r3
 882 0108 3722     		mov	r2, #55
 883 010a BA18     		add	r2, r7, r2
 884 010c 1B78     		ldrb	r3, [r3]
 885 010e 1278     		ldrb	r2, [r2]
 886 0110 1340     		and	r3, r2
 887 0112 DBB2     		uxtb	r3, r3
 888 0114 002B     		cmp	r3, #0
 889 0116 02D1     		bne	.L25
 519:Generated_Source\PSoC4/GLCD.c **** 				Word1 = bColor;
 890              		.loc 1 519 0
 891 0118 BB6C     		ldr	r3, [r7, #72]
 892 011a FB62     		str	r3, [r7, #44]
 893 011c 01E0     		b	.L26
 894              	.L25:
 520:Generated_Source\PSoC4/GLCD.c **** 			else
 521:Generated_Source\PSoC4/GLCD.c **** 				Word1 = fColor;
 895              		.loc 1 521 0
 896 011e 3B68     		ldr	r3, [r7]
 897 0120 FB62     		str	r3, [r7, #44]
 898              	.L26:
 522:Generated_Source\PSoC4/GLCD.c **** 			Mask = Mask << 1; 
 899              		.loc 1 522 0 discriminator 2
 900 0122 3723     		mov	r3, #55
ARM GAS  C:\Users\bolding\AppData\Local\Temp\ccF41pl0.s 			page 26


 901 0124 FA18     		add	r2, r7, r3
 902 0126 3723     		mov	r3, #55
 903 0128 FB18     		add	r3, r7, r3
 904 012a 1B78     		ldrb	r3, [r3]
 905 012c DB18     		add	r3, r3, r3
 906 012e 1370     		strb	r3, [r2]
 523:Generated_Source\PSoC4/GLCD.c **** 			/* use this information to output three data bytes */
 524:Generated_Source\PSoC4/GLCD.c **** 			GLCD_Data((Word0 >> 4) & 0xFF);
 907              		.loc 1 524 0 discriminator 2
 908 0130 3B6B     		ldr	r3, [r7, #48]
 909 0132 1B11     		asr	r3, r3, #4
 910 0134 1A1C     		mov	r2, r3
 911 0136 FF23     		mov	r3, #255
 912 0138 1340     		and	r3, r2
 913 013a 181C     		mov	r0, r3
 914 013c FFF7FEFF 		bl	GLCD_Data
 525:Generated_Source\PSoC4/GLCD.c **** 			GLCD_Data(((Word0 & 0xF) << 4) | ((Word1 >> 8) & 0xF));
 915              		.loc 1 525 0 discriminator 2
 916 0140 3B6B     		ldr	r3, [r7, #48]
 917 0142 1B01     		lsl	r3, r3, #4
 918 0144 FF22     		mov	r2, #255
 919 0146 1A40     		and	r2, r3
 920 0148 FB6A     		ldr	r3, [r7, #44]
 921 014a 1B12     		asr	r3, r3, #8
 922 014c 0F21     		mov	r1, #15
 923 014e 0B40     		and	r3, r1
 924 0150 1343     		orr	r3, r2
 925 0152 181C     		mov	r0, r3
 926 0154 FFF7FEFF 		bl	GLCD_Data
 526:Generated_Source\PSoC4/GLCD.c **** 			GLCD_Data(Word1 & 0xFF);
 927              		.loc 1 526 0 discriminator 2
 928 0158 FB6A     		ldr	r3, [r7, #44]
 929 015a FF22     		mov	r2, #255
 930 015c 1340     		and	r3, r2
 931 015e 181C     		mov	r0, r3
 932 0160 FFF7FEFF 		bl	GLCD_Data
 509:Generated_Source\PSoC4/GLCD.c **** 		{
 933              		.loc 1 509 0 discriminator 2
 934 0164 BB6B     		ldr	r3, [r7, #56]
 935 0166 0233     		add	r3, r3, #2
 936 0168 BB63     		str	r3, [r7, #56]
 937              	.L22:
 509:Generated_Source\PSoC4/GLCD.c **** 		{
 938              		.loc 1 509 0 is_stmt 0 discriminator 1
 939 016a BA6B     		ldr	r2, [r7, #56]
 940 016c 3B6A     		ldr	r3, [r7, #32]
 941 016e 9A42     		cmp	r2, r3
 942 0170 B2DB     		blt	.L27
 503:Generated_Source\PSoC4/GLCD.c **** 		/* copy pixel row from font table and then decrement row.  */
 943              		.loc 1 503 0 is_stmt 1 discriminator 2
 944 0172 FB6B     		ldr	r3, [r7, #60]
 945 0174 013B     		sub	r3, r3, #1
 946 0176 FB63     		str	r3, [r7, #60]
 947              	.L21:
 503:Generated_Source\PSoC4/GLCD.c **** 		/* copy pixel row from font table and then decrement row.  */
 948              		.loc 1 503 0 is_stmt 0 discriminator 1
 949 0178 FB6B     		ldr	r3, [r7, #60]
ARM GAS  C:\Users\bolding\AppData\Local\Temp\ccF41pl0.s 			page 27


 950 017a 002B     		cmp	r3, #0
 951 017c 9EDA     		bge	.L28
 527:Generated_Source\PSoC4/GLCD.c **** 		}
 528:Generated_Source\PSoC4/GLCD.c **** 	}
 529:Generated_Source\PSoC4/GLCD.c **** #endif
 530:Generated_Source\PSoC4/GLCD.c **** }
 952              		.loc 1 530 0 is_stmt 1
 953 017e BD46     		mov	sp, r7
 954 0180 10B0     		add	sp, sp, #64
 955              		@ sp needed
 956 0182 80BD     		pop	{r7, pc}
 957              	.L30:
 958              		.align	2
 959              	.L29:
 960 0184 00000000 		.word	GLCD_FONT8x16
 961              		.cfi_endproc
 962              	.LFE9:
 963              		.size	GLCD_PrintChar, .-GLCD_PrintChar
 964              		.section	.text.GLCD_PrintString,"ax",%progbits
 965              		.align	2
 966              		.global	GLCD_PrintString
 967              		.code	16
 968              		.thumb_func
 969              		.type	GLCD_PrintString, %function
 970              	GLCD_PrintString:
 971              	.LFB10:
 531:Generated_Source\PSoC4/GLCD.c **** 
 532:Generated_Source\PSoC4/GLCD.c **** /*******************************************************************************
 533:Generated_Source\PSoC4/GLCD.c **** * Function Name: GLCD_PrintString
 534:Generated_Source\PSoC4/GLCD.c **** ********************************************************************************
 535:Generated_Source\PSoC4/GLCD.c **** *
 536:Generated_Source\PSoC4/GLCD.c **** * Summary:
 537:Generated_Source\PSoC4/GLCD.c **** *  Print a string horizontally on the display.  
 538:Generated_Source\PSoC4/GLCD.c **** *
 539:Generated_Source\PSoC4/GLCD.c **** * Parameters:  
 540:Generated_Source\PSoC4/GLCD.c **** *  pString:  Pointer to null terminated string to be displayed.
 541:Generated_Source\PSoC4/GLCD.c **** *  x,y:      Location where string is to be printed
 542:Generated_Source\PSoC4/GLCD.c **** *  fColor:   Forground Color
 543:Generated_Source\PSoC4/GLCD.c **** *  bColor:   Background Color
 544:Generated_Source\PSoC4/GLCD.c **** *
 545:Generated_Source\PSoC4/GLCD.c **** * Return: 
 546:Generated_Source\PSoC4/GLCD.c **** *  None 
 547:Generated_Source\PSoC4/GLCD.c **** *  
 548:Generated_Source\PSoC4/GLCD.c **** *******************************************************************************/
 549:Generated_Source\PSoC4/GLCD.c **** void GLCD_PrintString(char *pString, int32 x, int32 y, int32 fColor, int32 bColor)
 550:Generated_Source\PSoC4/GLCD.c **** {
 972              		.loc 1 550 0
 973              		.cfi_startproc
 974 0000 90B5     		push	{r4, r7, lr}
 975              		.cfi_def_cfa_offset 12
 976              		.cfi_offset 4, -12
 977              		.cfi_offset 7, -8
 978              		.cfi_offset 14, -4
 979 0002 89B0     		sub	sp, sp, #36
 980              		.cfi_def_cfa_offset 48
 981 0004 02AF     		add	r7, sp, #8
 982              		.cfi_def_cfa 7, 40
ARM GAS  C:\Users\bolding\AppData\Local\Temp\ccF41pl0.s 			page 28


 983 0006 F860     		str	r0, [r7, #12]
 984 0008 B960     		str	r1, [r7, #8]
 985 000a 7A60     		str	r2, [r7, #4]
 986 000c 3B60     		str	r3, [r7]
 551:Generated_Source\PSoC4/GLCD.c **** 	x = x + 16;
 987              		.loc 1 551 0
 988 000e BB68     		ldr	r3, [r7, #8]
 989 0010 1033     		add	r3, r3, #16
 990 0012 BB60     		str	r3, [r7, #8]
 552:Generated_Source\PSoC4/GLCD.c **** 	y = y + 8;
 991              		.loc 1 552 0
 992 0014 7B68     		ldr	r3, [r7, #4]
 993 0016 0833     		add	r3, r3, #8
 994 0018 7B60     		str	r3, [r7, #4]
 553:Generated_Source\PSoC4/GLCD.c ****     int32 originalY = y;
 995              		.loc 1 553 0
 996 001a 7B68     		ldr	r3, [r7, #4]
 997 001c 7B61     		str	r3, [r7, #20]
 554:Generated_Source\PSoC4/GLCD.c **** 
 555:Generated_Source\PSoC4/GLCD.c **** 	/* Loop until null-terminator is found */
 556:Generated_Source\PSoC4/GLCD.c **** 	while (*pString != 0x00) 
 998              		.loc 1 556 0
 999 001e 1AE0     		b	.L32
 1000              	.L35:
 557:Generated_Source\PSoC4/GLCD.c **** 	{
 558:Generated_Source\PSoC4/GLCD.c **** 		/* Draw the character        */
 559:Generated_Source\PSoC4/GLCD.c **** 		GLCD_PrintChar(*pString++, x, y, fColor, bColor);
 1001              		.loc 1 559 0
 1002 0020 FB68     		ldr	r3, [r7, #12]
 1003 0022 5A1C     		add	r2, r3, #1
 1004 0024 FA60     		str	r2, [r7, #12]
 1005 0026 1878     		ldrb	r0, [r3]
 1006 0028 B968     		ldr	r1, [r7, #8]
 1007 002a 7A68     		ldr	r2, [r7, #4]
 1008 002c 3C68     		ldr	r4, [r7]
 1009 002e BB6A     		ldr	r3, [r7, #40]
 1010 0030 0093     		str	r3, [sp]
 1011 0032 231C     		mov	r3, r4
 1012 0034 FFF7FEFF 		bl	GLCD_PrintChar
 560:Generated_Source\PSoC4/GLCD.c **** 		/* Advance the y position    */
 561:Generated_Source\PSoC4/GLCD.c **** 		y = y + 8;
 1013              		.loc 1 561 0
 1014 0038 7B68     		ldr	r3, [r7, #4]
 1015 003a 0833     		add	r3, r3, #8
 1016 003c 7B60     		str	r3, [r7, #4]
 562:Generated_Source\PSoC4/GLCD.c **** 		/* Bail out if y exceeds 131 */
 563:Generated_Source\PSoC4/GLCD.c **** 		if (y > 131) 
 1017              		.loc 1 563 0
 1018 003e 7B68     		ldr	r3, [r7, #4]
 1019 0040 832B     		cmp	r3, #131
 1020 0042 04DD     		ble	.L33
 564:Generated_Source\PSoC4/GLCD.c **** 		{
 565:Generated_Source\PSoC4/GLCD.c ****             x = x + 16;
 1021              		.loc 1 565 0
 1022 0044 BB68     		ldr	r3, [r7, #8]
 1023 0046 1033     		add	r3, r3, #16
 1024 0048 BB60     		str	r3, [r7, #8]
ARM GAS  C:\Users\bolding\AppData\Local\Temp\ccF41pl0.s 			page 29


 566:Generated_Source\PSoC4/GLCD.c ****             y = originalY;
 1025              		.loc 1 566 0
 1026 004a 7B69     		ldr	r3, [r7, #20]
 1027 004c 7B60     		str	r3, [r7, #4]
 1028              	.L33:
 567:Generated_Source\PSoC4/GLCD.c ****         }
 568:Generated_Source\PSoC4/GLCD.c ****         if (x > 131) break;
 1029              		.loc 1 568 0
 1030 004e BB68     		ldr	r3, [r7, #8]
 1031 0050 832B     		cmp	r3, #131
 1032 0052 00DD     		ble	.L32
 1033 0054 03E0     		b	.L31
 1034              	.L32:
 556:Generated_Source\PSoC4/GLCD.c **** 	{
 1035              		.loc 1 556 0
 1036 0056 FB68     		ldr	r3, [r7, #12]
 1037 0058 1B78     		ldrb	r3, [r3]
 1038 005a 002B     		cmp	r3, #0
 1039 005c E0D1     		bne	.L35
 1040              	.L31:
 569:Generated_Source\PSoC4/GLCD.c **** 	}
 570:Generated_Source\PSoC4/GLCD.c **** }
 1041              		.loc 1 570 0
 1042 005e BD46     		mov	sp, r7
 1043 0060 07B0     		add	sp, sp, #28
 1044              		@ sp needed
 1045 0062 90BD     		pop	{r4, r7, pc}
 1046              		.cfi_endproc
 1047              	.LFE10:
 1048              		.size	GLCD_PrintString, .-GLCD_PrintString
 1049              		.section	.text.GLCD_DrawLine,"ax",%progbits
 1050              		.align	2
 1051              		.global	GLCD_DrawLine
 1052              		.code	16
 1053              		.thumb_func
 1054              		.type	GLCD_DrawLine, %function
 1055              	GLCD_DrawLine:
 1056              	.LFB11:
 571:Generated_Source\PSoC4/GLCD.c **** 
 572:Generated_Source\PSoC4/GLCD.c **** /*******************************************************************************
 573:Generated_Source\PSoC4/GLCD.c **** * Function Name: GLCD_DrawLine
 574:Generated_Source\PSoC4/GLCD.c **** ********************************************************************************
 575:Generated_Source\PSoC4/GLCD.c **** *
 576:Generated_Source\PSoC4/GLCD.c **** * Summary:
 577:Generated_Source\PSoC4/GLCD.c **** *  Draw a line on the display.  
 578:Generated_Source\PSoC4/GLCD.c **** *
 579:Generated_Source\PSoC4/GLCD.c **** * Parameters:  
 580:Generated_Source\PSoC4/GLCD.c **** *  x0, y0:  The beginning endpoint
 581:Generated_Source\PSoC4/GLCD.c **** *  x1, y1:  The end endpoint.
 582:Generated_Source\PSoC4/GLCD.c **** *  color:   Color of the line.
 583:Generated_Source\PSoC4/GLCD.c **** *
 584:Generated_Source\PSoC4/GLCD.c **** * Return: 
 585:Generated_Source\PSoC4/GLCD.c **** *  None 
 586:Generated_Source\PSoC4/GLCD.c **** *  
 587:Generated_Source\PSoC4/GLCD.c **** *******************************************************************************/
 588:Generated_Source\PSoC4/GLCD.c **** void GLCD_DrawLine(int32 x0, int32 y0, int32 x1, int32 y1, int32 color)
 589:Generated_Source\PSoC4/GLCD.c **** {
ARM GAS  C:\Users\bolding\AppData\Local\Temp\ccF41pl0.s 			page 30


 1057              		.loc 1 589 0
 1058              		.cfi_startproc
 1059 0000 80B5     		push	{r7, lr}
 1060              		.cfi_def_cfa_offset 8
 1061              		.cfi_offset 7, -8
 1062              		.cfi_offset 14, -4
 1063 0002 8AB0     		sub	sp, sp, #40
 1064              		.cfi_def_cfa_offset 48
 1065 0004 00AF     		add	r7, sp, #0
 1066              		.cfi_def_cfa_register 7
 1067 0006 F860     		str	r0, [r7, #12]
 1068 0008 B960     		str	r1, [r7, #8]
 1069 000a 7A60     		str	r2, [r7, #4]
 1070 000c 3B60     		str	r3, [r7]
 590:Generated_Source\PSoC4/GLCD.c **** 	int32 dy = y1 - y0; /* Difference between y0 and y1 */
 1071              		.loc 1 590 0
 1072 000e 3A68     		ldr	r2, [r7]
 1073 0010 BB68     		ldr	r3, [r7, #8]
 1074 0012 D31A     		sub	r3, r2, r3
 1075 0014 7B62     		str	r3, [r7, #36]
 591:Generated_Source\PSoC4/GLCD.c **** 	int32 dx = x1 - x0; /* Difference between x0 and x1 */
 1076              		.loc 1 591 0
 1077 0016 7A68     		ldr	r2, [r7, #4]
 1078 0018 FB68     		ldr	r3, [r7, #12]
 1079 001a D31A     		sub	r3, r2, r3
 1080 001c 3B62     		str	r3, [r7, #32]
 592:Generated_Source\PSoC4/GLCD.c **** 	int32 stepx, stepy;
 593:Generated_Source\PSoC4/GLCD.c **** 
 594:Generated_Source\PSoC4/GLCD.c **** 	if (dy < 0)
 1081              		.loc 1 594 0
 1082 001e 7B6A     		ldr	r3, [r7, #36]
 1083 0020 002B     		cmp	r3, #0
 1084 0022 06DA     		bge	.L37
 595:Generated_Source\PSoC4/GLCD.c **** 	{
 596:Generated_Source\PSoC4/GLCD.c **** 		dy = -dy;
 1085              		.loc 1 596 0
 1086 0024 7B6A     		ldr	r3, [r7, #36]
 1087 0026 5B42     		neg	r3, r3
 1088 0028 7B62     		str	r3, [r7, #36]
 597:Generated_Source\PSoC4/GLCD.c **** 		stepy = -1;
 1089              		.loc 1 597 0
 1090 002a 0123     		mov	r3, #1
 1091 002c 5B42     		neg	r3, r3
 1092 002e BB61     		str	r3, [r7, #24]
 1093 0030 01E0     		b	.L38
 1094              	.L37:
 598:Generated_Source\PSoC4/GLCD.c **** 	}
 599:Generated_Source\PSoC4/GLCD.c **** 	else
 600:Generated_Source\PSoC4/GLCD.c **** 	{
 601:Generated_Source\PSoC4/GLCD.c **** 		stepy = 1;
 1095              		.loc 1 601 0
 1096 0032 0123     		mov	r3, #1
 1097 0034 BB61     		str	r3, [r7, #24]
 1098              	.L38:
 602:Generated_Source\PSoC4/GLCD.c **** 	}
 603:Generated_Source\PSoC4/GLCD.c **** 
 604:Generated_Source\PSoC4/GLCD.c **** 	if (dx < 0)
ARM GAS  C:\Users\bolding\AppData\Local\Temp\ccF41pl0.s 			page 31


 1099              		.loc 1 604 0
 1100 0036 3B6A     		ldr	r3, [r7, #32]
 1101 0038 002B     		cmp	r3, #0
 1102 003a 06DA     		bge	.L39
 605:Generated_Source\PSoC4/GLCD.c **** 	{
 606:Generated_Source\PSoC4/GLCD.c **** 		dx = -dx;
 1103              		.loc 1 606 0
 1104 003c 3B6A     		ldr	r3, [r7, #32]
 1105 003e 5B42     		neg	r3, r3
 1106 0040 3B62     		str	r3, [r7, #32]
 607:Generated_Source\PSoC4/GLCD.c **** 		stepx = -1;
 1107              		.loc 1 607 0
 1108 0042 0123     		mov	r3, #1
 1109 0044 5B42     		neg	r3, r3
 1110 0046 FB61     		str	r3, [r7, #28]
 1111 0048 01E0     		b	.L40
 1112              	.L39:
 608:Generated_Source\PSoC4/GLCD.c **** 	}
 609:Generated_Source\PSoC4/GLCD.c **** 	else
 610:Generated_Source\PSoC4/GLCD.c **** 	{
 611:Generated_Source\PSoC4/GLCD.c **** 		stepx = 1;
 1113              		.loc 1 611 0
 1114 004a 0123     		mov	r3, #1
 1115 004c FB61     		str	r3, [r7, #28]
 1116              	.L40:
 612:Generated_Source\PSoC4/GLCD.c **** 	}
 613:Generated_Source\PSoC4/GLCD.c **** 
 614:Generated_Source\PSoC4/GLCD.c **** 	dy <<= 1; /* dy is now 2*dy  */
 1117              		.loc 1 614 0
 1118 004e 7B6A     		ldr	r3, [r7, #36]
 1119 0050 5B00     		lsl	r3, r3, #1
 1120 0052 7B62     		str	r3, [r7, #36]
 615:Generated_Source\PSoC4/GLCD.c **** 	dx <<= 1; /* dx is now 2*dx  */
 1121              		.loc 1 615 0
 1122 0054 3B6A     		ldr	r3, [r7, #32]
 1123 0056 5B00     		lsl	r3, r3, #1
 1124 0058 3B62     		str	r3, [r7, #32]
 616:Generated_Source\PSoC4/GLCD.c **** 	GLCD_Pixel(x0, y0, color);
 1125              		.loc 1 616 0
 1126 005a F968     		ldr	r1, [r7, #12]
 1127 005c BA68     		ldr	r2, [r7, #8]
 1128 005e 3B6B     		ldr	r3, [r7, #48]
 1129 0060 081C     		mov	r0, r1
 1130 0062 111C     		mov	r1, r2
 1131 0064 1A1C     		mov	r2, r3
 1132 0066 FFF7FEFF 		bl	GLCD_Pixel
 617:Generated_Source\PSoC4/GLCD.c **** 
 618:Generated_Source\PSoC4/GLCD.c **** 	if (dx > dy) 
 1133              		.loc 1 618 0
 1134 006a 3A6A     		ldr	r2, [r7, #32]
 1135 006c 7B6A     		ldr	r3, [r7, #36]
 1136 006e 9A42     		cmp	r2, r3
 1137 0070 25DD     		ble	.L41
 1138              	.LBB2:
 619:Generated_Source\PSoC4/GLCD.c **** 	{
 620:Generated_Source\PSoC4/GLCD.c **** 		int fraction = dy - (dx >> 1);
 1139              		.loc 1 620 0
ARM GAS  C:\Users\bolding\AppData\Local\Temp\ccF41pl0.s 			page 32


 1140 0072 3B6A     		ldr	r3, [r7, #32]
 1141 0074 5B10     		asr	r3, r3, #1
 1142 0076 7A6A     		ldr	r2, [r7, #36]
 1143 0078 D31A     		sub	r3, r2, r3
 1144 007a 7B61     		str	r3, [r7, #20]
 621:Generated_Source\PSoC4/GLCD.c **** 		while (x0 != x1)
 1145              		.loc 1 621 0
 1146 007c 1AE0     		b	.L42
 1147              	.L44:
 622:Generated_Source\PSoC4/GLCD.c **** 		{
 623:Generated_Source\PSoC4/GLCD.c **** 			if (fraction >= 0)
 1148              		.loc 1 623 0
 1149 007e 7B69     		ldr	r3, [r7, #20]
 1150 0080 002B     		cmp	r3, #0
 1151 0082 07DB     		blt	.L43
 624:Generated_Source\PSoC4/GLCD.c **** 			{
 625:Generated_Source\PSoC4/GLCD.c **** 				y0 += stepy;
 1152              		.loc 1 625 0
 1153 0084 BA68     		ldr	r2, [r7, #8]
 1154 0086 BB69     		ldr	r3, [r7, #24]
 1155 0088 D318     		add	r3, r2, r3
 1156 008a BB60     		str	r3, [r7, #8]
 626:Generated_Source\PSoC4/GLCD.c **** 				fraction -= dx;
 1157              		.loc 1 626 0
 1158 008c 7A69     		ldr	r2, [r7, #20]
 1159 008e 3B6A     		ldr	r3, [r7, #32]
 1160 0090 D31A     		sub	r3, r2, r3
 1161 0092 7B61     		str	r3, [r7, #20]
 1162              	.L43:
 627:Generated_Source\PSoC4/GLCD.c **** 			}
 628:Generated_Source\PSoC4/GLCD.c **** 			x0 += stepx;
 1163              		.loc 1 628 0
 1164 0094 FA68     		ldr	r2, [r7, #12]
 1165 0096 FB69     		ldr	r3, [r7, #28]
 1166 0098 D318     		add	r3, r2, r3
 1167 009a FB60     		str	r3, [r7, #12]
 629:Generated_Source\PSoC4/GLCD.c **** 			fraction += dy;
 1168              		.loc 1 629 0
 1169 009c 7A69     		ldr	r2, [r7, #20]
 1170 009e 7B6A     		ldr	r3, [r7, #36]
 1171 00a0 D318     		add	r3, r2, r3
 1172 00a2 7B61     		str	r3, [r7, #20]
 630:Generated_Source\PSoC4/GLCD.c **** 			GLCD_Pixel(x0, y0, color);
 1173              		.loc 1 630 0
 1174 00a4 F968     		ldr	r1, [r7, #12]
 1175 00a6 BA68     		ldr	r2, [r7, #8]
 1176 00a8 3B6B     		ldr	r3, [r7, #48]
 1177 00aa 081C     		mov	r0, r1
 1178 00ac 111C     		mov	r1, r2
 1179 00ae 1A1C     		mov	r2, r3
 1180 00b0 FFF7FEFF 		bl	GLCD_Pixel
 1181              	.L42:
 621:Generated_Source\PSoC4/GLCD.c **** 		{
 1182              		.loc 1 621 0
 1183 00b4 FA68     		ldr	r2, [r7, #12]
 1184 00b6 7B68     		ldr	r3, [r7, #4]
 1185 00b8 9A42     		cmp	r2, r3
ARM GAS  C:\Users\bolding\AppData\Local\Temp\ccF41pl0.s 			page 33


 1186 00ba E0D1     		bne	.L44
 1187              	.LBE2:
 1188 00bc 24E0     		b	.L36
 1189              	.L41:
 1190              	.LBB3:
 631:Generated_Source\PSoC4/GLCD.c **** 		}
 632:Generated_Source\PSoC4/GLCD.c **** 	}
 633:Generated_Source\PSoC4/GLCD.c **** 	else
 634:Generated_Source\PSoC4/GLCD.c **** 	{
 635:Generated_Source\PSoC4/GLCD.c **** 		int fraction = dx - (dy >> 1);
 1191              		.loc 1 635 0
 1192 00be 7B6A     		ldr	r3, [r7, #36]
 1193 00c0 5B10     		asr	r3, r3, #1
 1194 00c2 3A6A     		ldr	r2, [r7, #32]
 1195 00c4 D31A     		sub	r3, r2, r3
 1196 00c6 3B61     		str	r3, [r7, #16]
 636:Generated_Source\PSoC4/GLCD.c **** 		while (y0 != y1)
 1197              		.loc 1 636 0
 1198 00c8 1AE0     		b	.L46
 1199              	.L48:
 637:Generated_Source\PSoC4/GLCD.c **** 		{
 638:Generated_Source\PSoC4/GLCD.c **** 			if (fraction >= 0)
 1200              		.loc 1 638 0
 1201 00ca 3B69     		ldr	r3, [r7, #16]
 1202 00cc 002B     		cmp	r3, #0
 1203 00ce 07DB     		blt	.L47
 639:Generated_Source\PSoC4/GLCD.c **** 			{
 640:Generated_Source\PSoC4/GLCD.c **** 				x0 += stepx;
 1204              		.loc 1 640 0
 1205 00d0 FA68     		ldr	r2, [r7, #12]
 1206 00d2 FB69     		ldr	r3, [r7, #28]
 1207 00d4 D318     		add	r3, r2, r3
 1208 00d6 FB60     		str	r3, [r7, #12]
 641:Generated_Source\PSoC4/GLCD.c **** 				fraction -= dy;
 1209              		.loc 1 641 0
 1210 00d8 3A69     		ldr	r2, [r7, #16]
 1211 00da 7B6A     		ldr	r3, [r7, #36]
 1212 00dc D31A     		sub	r3, r2, r3
 1213 00de 3B61     		str	r3, [r7, #16]
 1214              	.L47:
 642:Generated_Source\PSoC4/GLCD.c **** 			}
 643:Generated_Source\PSoC4/GLCD.c **** 			y0 += stepy;
 1215              		.loc 1 643 0
 1216 00e0 BA68     		ldr	r2, [r7, #8]
 1217 00e2 BB69     		ldr	r3, [r7, #24]
 1218 00e4 D318     		add	r3, r2, r3
 1219 00e6 BB60     		str	r3, [r7, #8]
 644:Generated_Source\PSoC4/GLCD.c **** 			fraction += dx;
 1220              		.loc 1 644 0
 1221 00e8 3A69     		ldr	r2, [r7, #16]
 1222 00ea 3B6A     		ldr	r3, [r7, #32]
 1223 00ec D318     		add	r3, r2, r3
 1224 00ee 3B61     		str	r3, [r7, #16]
 645:Generated_Source\PSoC4/GLCD.c **** 			GLCD_Pixel( x0, y0, color);
 1225              		.loc 1 645 0
 1226 00f0 F968     		ldr	r1, [r7, #12]
 1227 00f2 BA68     		ldr	r2, [r7, #8]
ARM GAS  C:\Users\bolding\AppData\Local\Temp\ccF41pl0.s 			page 34


 1228 00f4 3B6B     		ldr	r3, [r7, #48]
 1229 00f6 081C     		mov	r0, r1
 1230 00f8 111C     		mov	r1, r2
 1231 00fa 1A1C     		mov	r2, r3
 1232 00fc FFF7FEFF 		bl	GLCD_Pixel
 1233              	.L46:
 636:Generated_Source\PSoC4/GLCD.c **** 		{
 1234              		.loc 1 636 0
 1235 0100 BA68     		ldr	r2, [r7, #8]
 1236 0102 3B68     		ldr	r3, [r7]
 1237 0104 9A42     		cmp	r2, r3
 1238 0106 E0D1     		bne	.L48
 1239              	.L36:
 1240              	.LBE3:
 646:Generated_Source\PSoC4/GLCD.c **** 		}
 647:Generated_Source\PSoC4/GLCD.c **** 	}
 648:Generated_Source\PSoC4/GLCD.c **** }
 1241              		.loc 1 648 0
 1242 0108 BD46     		mov	sp, r7
 1243 010a 0AB0     		add	sp, sp, #40
 1244              		@ sp needed
 1245 010c 80BD     		pop	{r7, pc}
 1246              		.cfi_endproc
 1247              	.LFE11:
 1248              		.size	GLCD_DrawLine, .-GLCD_DrawLine
 1249 010e C046     		.section	.text.GLCD_DrawRect,"ax",%progbits
 1250              		.align	2
 1251              		.global	GLCD_DrawRect
 1252              		.code	16
 1253              		.thumb_func
 1254              		.type	GLCD_DrawRect, %function
 1255              	GLCD_DrawRect:
 1256              	.LFB12:
 649:Generated_Source\PSoC4/GLCD.c **** 
 650:Generated_Source\PSoC4/GLCD.c **** /*******************************************************************************
 651:Generated_Source\PSoC4/GLCD.c **** * Function Name: GLCD_DrawRect
 652:Generated_Source\PSoC4/GLCD.c **** ********************************************************************************
 653:Generated_Source\PSoC4/GLCD.c **** *
 654:Generated_Source\PSoC4/GLCD.c **** * Summary:
 655:Generated_Source\PSoC4/GLCD.c **** *  Draw a rectangle, filled or not.  
 656:Generated_Source\PSoC4/GLCD.c **** *
 657:Generated_Source\PSoC4/GLCD.c **** * Parameters:  
 658:Generated_Source\PSoC4/GLCD.c **** *  x0, y0:  The upper lefthand corner.
 659:Generated_Source\PSoC4/GLCD.c **** *  x1, y1:  The lower right corner.
 660:Generated_Source\PSoC4/GLCD.c **** *  fill:    Non-Zero if retangle is to be filled.
 661:Generated_Source\PSoC4/GLCD.c **** *  color:   Color for rectangle, border and fill.
 662:Generated_Source\PSoC4/GLCD.c **** *
 663:Generated_Source\PSoC4/GLCD.c **** * Return: 
 664:Generated_Source\PSoC4/GLCD.c **** *  None 
 665:Generated_Source\PSoC4/GLCD.c **** *  
 666:Generated_Source\PSoC4/GLCD.c **** *******************************************************************************/
 667:Generated_Source\PSoC4/GLCD.c **** void GLCD_DrawRect(int32 x0, int32 y0, int32 x1, int32 y1, int32 fill, int32 color)
 668:Generated_Source\PSoC4/GLCD.c **** {	
 1257              		.loc 1 668 0
 1258              		.cfi_startproc
 1259 0000 90B5     		push	{r4, r7, lr}
 1260              		.cfi_def_cfa_offset 12
ARM GAS  C:\Users\bolding\AppData\Local\Temp\ccF41pl0.s 			page 35


 1261              		.cfi_offset 4, -12
 1262              		.cfi_offset 7, -8
 1263              		.cfi_offset 14, -4
 1264 0002 89B0     		sub	sp, sp, #36
 1265              		.cfi_def_cfa_offset 48
 1266 0004 02AF     		add	r7, sp, #8
 1267              		.cfi_def_cfa 7, 40
 1268 0006 F860     		str	r0, [r7, #12]
 1269 0008 B960     		str	r1, [r7, #8]
 1270 000a 7A60     		str	r2, [r7, #4]
 1271 000c 3B60     		str	r3, [r7]
 669:Generated_Source\PSoC4/GLCD.c ****      int xDiff;
 670:Generated_Source\PSoC4/GLCD.c **** 	/* Check if the rectangle is to be filled    */
 671:Generated_Source\PSoC4/GLCD.c **** 	if (fill != 0)
 1272              		.loc 1 671 0
 1273 000e BB6A     		ldr	r3, [r7, #40]
 1274 0010 002B     		cmp	r3, #0
 1275 0012 28D0     		beq	.L50
 672:Generated_Source\PSoC4/GLCD.c **** 	{	
 673:Generated_Source\PSoC4/GLCD.c ****         /* Find the difference between the x vars */
 674:Generated_Source\PSoC4/GLCD.c **** 		if(x0 > x1)
 1276              		.loc 1 674 0
 1277 0014 FA68     		ldr	r2, [r7, #12]
 1278 0016 7B68     		ldr	r3, [r7, #4]
 1279 0018 9A42     		cmp	r2, r3
 1280 001a 04DD     		ble	.L51
 675:Generated_Source\PSoC4/GLCD.c **** 		{
 676:Generated_Source\PSoC4/GLCD.c **** 			xDiff = x0 - x1; 
 1281              		.loc 1 676 0
 1282 001c FA68     		ldr	r2, [r7, #12]
 1283 001e 7B68     		ldr	r3, [r7, #4]
 1284 0020 D31A     		sub	r3, r2, r3
 1285 0022 7B61     		str	r3, [r7, #20]
 1286 0024 03E0     		b	.L52
 1287              	.L51:
 677:Generated_Source\PSoC4/GLCD.c **** 		}
 678:Generated_Source\PSoC4/GLCD.c **** 		else
 679:Generated_Source\PSoC4/GLCD.c **** 		{
 680:Generated_Source\PSoC4/GLCD.c **** 			xDiff = x1 - x0;
 1288              		.loc 1 680 0
 1289 0026 7A68     		ldr	r2, [r7, #4]
 1290 0028 FB68     		ldr	r3, [r7, #12]
 1291 002a D31A     		sub	r3, r2, r3
 1292 002c 7B61     		str	r3, [r7, #20]
 1293              	.L52:
 681:Generated_Source\PSoC4/GLCD.c **** 		}
 682:Generated_Source\PSoC4/GLCD.c **** 	
 683:Generated_Source\PSoC4/GLCD.c **** 	    /* Fill it with lines  */
 684:Generated_Source\PSoC4/GLCD.c **** 		while(xDiff >= 0)
 1294              		.loc 1 684 0
 1295 002e 16E0     		b	.L53
 1296              	.L56:
 685:Generated_Source\PSoC4/GLCD.c **** 		{
 686:Generated_Source\PSoC4/GLCD.c **** 			GLCD_DrawLine(x0, y0, x0, y1, color);
 1297              		.loc 1 686 0
 1298 0030 F868     		ldr	r0, [r7, #12]
 1299 0032 B968     		ldr	r1, [r7, #8]
ARM GAS  C:\Users\bolding\AppData\Local\Temp\ccF41pl0.s 			page 36


 1300 0034 FA68     		ldr	r2, [r7, #12]
 1301 0036 3C68     		ldr	r4, [r7]
 1302 0038 FB6A     		ldr	r3, [r7, #44]
 1303 003a 0093     		str	r3, [sp]
 1304 003c 231C     		mov	r3, r4
 1305 003e FFF7FEFF 		bl	GLCD_DrawLine
 687:Generated_Source\PSoC4/GLCD.c **** 		
 688:Generated_Source\PSoC4/GLCD.c **** 			if(x0 > x1)
 1306              		.loc 1 688 0
 1307 0042 FA68     		ldr	r2, [r7, #12]
 1308 0044 7B68     		ldr	r3, [r7, #4]
 1309 0046 9A42     		cmp	r2, r3
 1310 0048 03DD     		ble	.L54
 689:Generated_Source\PSoC4/GLCD.c **** 				x0--;
 1311              		.loc 1 689 0
 1312 004a FB68     		ldr	r3, [r7, #12]
 1313 004c 013B     		sub	r3, r3, #1
 1314 004e FB60     		str	r3, [r7, #12]
 1315 0050 02E0     		b	.L55
 1316              	.L54:
 690:Generated_Source\PSoC4/GLCD.c **** 			else
 691:Generated_Source\PSoC4/GLCD.c **** 				x0++;
 1317              		.loc 1 691 0
 1318 0052 FB68     		ldr	r3, [r7, #12]
 1319 0054 0133     		add	r3, r3, #1
 1320 0056 FB60     		str	r3, [r7, #12]
 1321              	.L55:
 692:Generated_Source\PSoC4/GLCD.c **** 		
 693:Generated_Source\PSoC4/GLCD.c **** 			xDiff--;
 1322              		.loc 1 693 0
 1323 0058 7B69     		ldr	r3, [r7, #20]
 1324 005a 013B     		sub	r3, r3, #1
 1325 005c 7B61     		str	r3, [r7, #20]
 1326              	.L53:
 684:Generated_Source\PSoC4/GLCD.c **** 		{
 1327              		.loc 1 684 0
 1328 005e 7B69     		ldr	r3, [r7, #20]
 1329 0060 002B     		cmp	r3, #0
 1330 0062 E5DA     		bge	.L56
 1331 0064 23E0     		b	.L49
 1332              	.L50:
 694:Generated_Source\PSoC4/GLCD.c **** 		}
 695:Generated_Source\PSoC4/GLCD.c **** 
 696:Generated_Source\PSoC4/GLCD.c **** 	}
 697:Generated_Source\PSoC4/GLCD.c **** 	else 
 698:Generated_Source\PSoC4/GLCD.c **** 	{
 699:Generated_Source\PSoC4/GLCD.c **** 		/* Draw the four sides of the rectangle */
 700:Generated_Source\PSoC4/GLCD.c **** 		GLCD_DrawLine(x0, y0, x1, y0, color);
 1333              		.loc 1 700 0
 1334 0066 F868     		ldr	r0, [r7, #12]
 1335 0068 B968     		ldr	r1, [r7, #8]
 1336 006a 7A68     		ldr	r2, [r7, #4]
 1337 006c BC68     		ldr	r4, [r7, #8]
 1338 006e FB6A     		ldr	r3, [r7, #44]
 1339 0070 0093     		str	r3, [sp]
 1340 0072 231C     		mov	r3, r4
 1341 0074 FFF7FEFF 		bl	GLCD_DrawLine
ARM GAS  C:\Users\bolding\AppData\Local\Temp\ccF41pl0.s 			page 37


 701:Generated_Source\PSoC4/GLCD.c **** 		GLCD_DrawLine(x0, y1, x1, y1, color);
 1342              		.loc 1 701 0
 1343 0078 F868     		ldr	r0, [r7, #12]
 1344 007a 3968     		ldr	r1, [r7]
 1345 007c 7A68     		ldr	r2, [r7, #4]
 1346 007e 3C68     		ldr	r4, [r7]
 1347 0080 FB6A     		ldr	r3, [r7, #44]
 1348 0082 0093     		str	r3, [sp]
 1349 0084 231C     		mov	r3, r4
 1350 0086 FFF7FEFF 		bl	GLCD_DrawLine
 702:Generated_Source\PSoC4/GLCD.c **** 		GLCD_DrawLine(x0, y0, x0, y1, color);
 1351              		.loc 1 702 0
 1352 008a F868     		ldr	r0, [r7, #12]
 1353 008c B968     		ldr	r1, [r7, #8]
 1354 008e FA68     		ldr	r2, [r7, #12]
 1355 0090 3C68     		ldr	r4, [r7]
 1356 0092 FB6A     		ldr	r3, [r7, #44]
 1357 0094 0093     		str	r3, [sp]
 1358 0096 231C     		mov	r3, r4
 1359 0098 FFF7FEFF 		bl	GLCD_DrawLine
 703:Generated_Source\PSoC4/GLCD.c **** 		GLCD_DrawLine(x1, y0, x1, y1, color);
 1360              		.loc 1 703 0
 1361 009c 7868     		ldr	r0, [r7, #4]
 1362 009e B968     		ldr	r1, [r7, #8]
 1363 00a0 7A68     		ldr	r2, [r7, #4]
 1364 00a2 3C68     		ldr	r4, [r7]
 1365 00a4 FB6A     		ldr	r3, [r7, #44]
 1366 00a6 0093     		str	r3, [sp]
 1367 00a8 231C     		mov	r3, r4
 1368 00aa FFF7FEFF 		bl	GLCD_DrawLine
 1369              	.L49:
 704:Generated_Source\PSoC4/GLCD.c **** 	}
 705:Generated_Source\PSoC4/GLCD.c **** }
 1370              		.loc 1 705 0
 1371 00ae BD46     		mov	sp, r7
 1372 00b0 07B0     		add	sp, sp, #28
 1373              		@ sp needed
 1374 00b2 90BD     		pop	{r4, r7, pc}
 1375              		.cfi_endproc
 1376              	.LFE12:
 1377              		.size	GLCD_DrawRect, .-GLCD_DrawRect
 1378              		.section	.text.GLCD_Off,"ax",%progbits
 1379              		.align	2
 1380              		.global	GLCD_Off
 1381              		.code	16
 1382              		.thumb_func
 1383              		.type	GLCD_Off, %function
 1384              	GLCD_Off:
 1385              	.LFB13:
 706:Generated_Source\PSoC4/GLCD.c **** 
 707:Generated_Source\PSoC4/GLCD.c **** 
 708:Generated_Source\PSoC4/GLCD.c **** /*******************************************************************************
 709:Generated_Source\PSoC4/GLCD.c **** * Function Name: GLCD_Off
 710:Generated_Source\PSoC4/GLCD.c **** ********************************************************************************
 711:Generated_Source\PSoC4/GLCD.c **** *
 712:Generated_Source\PSoC4/GLCD.c **** * Summary:
 713:Generated_Source\PSoC4/GLCD.c **** *  Turn off display
ARM GAS  C:\Users\bolding\AppData\Local\Temp\ccF41pl0.s 			page 38


 714:Generated_Source\PSoC4/GLCD.c **** *
 715:Generated_Source\PSoC4/GLCD.c **** * Parameters:  
 716:Generated_Source\PSoC4/GLCD.c **** *  None 
 717:Generated_Source\PSoC4/GLCD.c **** *
 718:Generated_Source\PSoC4/GLCD.c **** * Return: 
 719:Generated_Source\PSoC4/GLCD.c **** *  None 
 720:Generated_Source\PSoC4/GLCD.c **** *  
 721:Generated_Source\PSoC4/GLCD.c **** *******************************************************************************/
 722:Generated_Source\PSoC4/GLCD.c **** void GLCD_Off(void)		/* Turn off the display  */
 723:Generated_Source\PSoC4/GLCD.c **** {
 1386              		.loc 1 723 0
 1387              		.cfi_startproc
 1388 0000 80B5     		push	{r7, lr}
 1389              		.cfi_def_cfa_offset 8
 1390              		.cfi_offset 7, -8
 1391              		.cfi_offset 14, -4
 1392 0002 00AF     		add	r7, sp, #0
 1393              		.cfi_def_cfa_register 7
 724:Generated_Source\PSoC4/GLCD.c ****     GLCD_Command(GLCD_DISPOFF);
 1394              		.loc 1 724 0
 1395 0004 2820     		mov	r0, #40
 1396 0006 FFF7FEFF 		bl	GLCD_Command
 725:Generated_Source\PSoC4/GLCD.c **** }
 1397              		.loc 1 725 0
 1398 000a BD46     		mov	sp, r7
 1399              		@ sp needed
 1400 000c 80BD     		pop	{r7, pc}
 1401              		.cfi_endproc
 1402              	.LFE13:
 1403              		.size	GLCD_Off, .-GLCD_Off
 1404 000e C046     		.section	.text.GLCD_On,"ax",%progbits
 1405              		.align	2
 1406              		.global	GLCD_On
 1407              		.code	16
 1408              		.thumb_func
 1409              		.type	GLCD_On, %function
 1410              	GLCD_On:
 1411              	.LFB14:
 726:Generated_Source\PSoC4/GLCD.c **** 
 727:Generated_Source\PSoC4/GLCD.c **** /*******************************************************************************
 728:Generated_Source\PSoC4/GLCD.c **** * Function Name: GLCD_On
 729:Generated_Source\PSoC4/GLCD.c **** ********************************************************************************
 730:Generated_Source\PSoC4/GLCD.c **** *
 731:Generated_Source\PSoC4/GLCD.c **** * Summary:
 732:Generated_Source\PSoC4/GLCD.c **** *  Turn on display
 733:Generated_Source\PSoC4/GLCD.c **** *
 734:Generated_Source\PSoC4/GLCD.c **** * Parameters:  
 735:Generated_Source\PSoC4/GLCD.c **** *  None 
 736:Generated_Source\PSoC4/GLCD.c **** *
 737:Generated_Source\PSoC4/GLCD.c **** * Return: 
 738:Generated_Source\PSoC4/GLCD.c **** *  None 
 739:Generated_Source\PSoC4/GLCD.c **** *  
 740:Generated_Source\PSoC4/GLCD.c **** *******************************************************************************/
 741:Generated_Source\PSoC4/GLCD.c **** void GLCD_On(void)		/* Turn on the display */
 742:Generated_Source\PSoC4/GLCD.c **** {
 1412              		.loc 1 742 0
 1413              		.cfi_startproc
ARM GAS  C:\Users\bolding\AppData\Local\Temp\ccF41pl0.s 			page 39


 1414 0000 80B5     		push	{r7, lr}
 1415              		.cfi_def_cfa_offset 8
 1416              		.cfi_offset 7, -8
 1417              		.cfi_offset 14, -4
 1418 0002 00AF     		add	r7, sp, #0
 1419              		.cfi_def_cfa_register 7
 743:Generated_Source\PSoC4/GLCD.c ****     GLCD_Command(GLCD_DISPON);
 1420              		.loc 1 743 0
 1421 0004 2920     		mov	r0, #41
 1422 0006 FFF7FEFF 		bl	GLCD_Command
 744:Generated_Source\PSoC4/GLCD.c **** }
 1423              		.loc 1 744 0
 1424 000a BD46     		mov	sp, r7
 1425              		@ sp needed
 1426 000c 80BD     		pop	{r7, pc}
 1427              		.cfi_endproc
 1428              	.LFE14:
 1429              		.size	GLCD_On, .-GLCD_On
 1430 000e C046     		.text
 1431              	.Letext0:
 1432              		.file 2 "Generated_Source\\PSoC4\\cytypes.h"
 1433              		.file 3 "Generated_Source\\PSoC4\\GLCD.h"