ARM GAS  C:\Users\bolding\AppData\Local\Temp\ccINdocy.s 			page 1


   1              		.cpu cortex-m0
   2              		.fpu softvfp
   3              		.eabi_attribute 20, 1
   4              		.eabi_attribute 21, 1
   5              		.eabi_attribute 23, 3
   6              		.eabi_attribute 24, 1
   7              		.eabi_attribute 25, 1
   8              		.eabi_attribute 26, 1
   9              		.eabi_attribute 30, 6
  10              		.eabi_attribute 34, 0
  11              		.eabi_attribute 18, 4
  12              		.code	16
  13              		.file	"GLCD_SPIM_UDB_PM.c"
  14              		.text
  15              	.Ltext0:
  16              		.cfi_sections	.debug_frame
  17              		.data
  18              		.align	2
  19              		.type	GLCD_SPIM_UDB_backup, %object
  20              		.size	GLCD_SPIM_UDB_backup, 2
  21              	GLCD_SPIM_UDB_backup:
  22 0000 00       		.byte	0
  23 0001 11       		.byte	17
  24 0002 0000     		.section	.text.GLCD_SPIM_UDB_SaveConfig,"ax",%progbits
  25              		.align	2
  26              		.global	GLCD_SPIM_UDB_SaveConfig
  27              		.code	16
  28              		.thumb_func
  29              		.type	GLCD_SPIM_UDB_SaveConfig, %function
  30              	GLCD_SPIM_UDB_SaveConfig:
  31              	.LFB0:
  32              		.file 1 "Generated_Source\\PSoC4\\GLCD_SPIM_UDB_PM.c"
   1:Generated_Source\PSoC4/GLCD_SPIM_UDB_PM.c **** /*******************************************************************************
   2:Generated_Source\PSoC4/GLCD_SPIM_UDB_PM.c **** * File Name: GLCD_SPIM_UDB_PM.c
   3:Generated_Source\PSoC4/GLCD_SPIM_UDB_PM.c **** * Version 2.40
   4:Generated_Source\PSoC4/GLCD_SPIM_UDB_PM.c **** *
   5:Generated_Source\PSoC4/GLCD_SPIM_UDB_PM.c **** * Description:
   6:Generated_Source\PSoC4/GLCD_SPIM_UDB_PM.c **** *  This file contains the setup, control and status commands to support
   7:Generated_Source\PSoC4/GLCD_SPIM_UDB_PM.c **** *  component operations in low power mode.
   8:Generated_Source\PSoC4/GLCD_SPIM_UDB_PM.c **** *
   9:Generated_Source\PSoC4/GLCD_SPIM_UDB_PM.c **** * Note:
  10:Generated_Source\PSoC4/GLCD_SPIM_UDB_PM.c **** *
  11:Generated_Source\PSoC4/GLCD_SPIM_UDB_PM.c **** ********************************************************************************
  12:Generated_Source\PSoC4/GLCD_SPIM_UDB_PM.c **** * Copyright 2008-2012, Cypress Semiconductor Corporation.  All rights reserved.
  13:Generated_Source\PSoC4/GLCD_SPIM_UDB_PM.c **** * You may use this file only in accordance with the license, terms, conditions,
  14:Generated_Source\PSoC4/GLCD_SPIM_UDB_PM.c **** * disclaimers, and limitations in the end user license agreement accompanying
  15:Generated_Source\PSoC4/GLCD_SPIM_UDB_PM.c **** * the software package with which this file was provided.
  16:Generated_Source\PSoC4/GLCD_SPIM_UDB_PM.c **** *******************************************************************************/
  17:Generated_Source\PSoC4/GLCD_SPIM_UDB_PM.c **** 
  18:Generated_Source\PSoC4/GLCD_SPIM_UDB_PM.c **** #include "GLCD_SPIM_UDB_PVT.h"
  19:Generated_Source\PSoC4/GLCD_SPIM_UDB_PM.c **** 
  20:Generated_Source\PSoC4/GLCD_SPIM_UDB_PM.c **** static GLCD_SPIM_UDB_BACKUP_STRUCT GLCD_SPIM_UDB_backup =
  21:Generated_Source\PSoC4/GLCD_SPIM_UDB_PM.c **** {
  22:Generated_Source\PSoC4/GLCD_SPIM_UDB_PM.c ****     GLCD_SPIM_UDB_DISABLED,
  23:Generated_Source\PSoC4/GLCD_SPIM_UDB_PM.c ****     GLCD_SPIM_UDB_BITCTR_INIT,
  24:Generated_Source\PSoC4/GLCD_SPIM_UDB_PM.c ****     #if(CY_UDB_V0)
  25:Generated_Source\PSoC4/GLCD_SPIM_UDB_PM.c ****         GLCD_SPIM_UDB_TX_INIT_INTERRUPTS_MASK,
ARM GAS  C:\Users\bolding\AppData\Local\Temp\ccINdocy.s 			page 2


  26:Generated_Source\PSoC4/GLCD_SPIM_UDB_PM.c ****         GLCD_SPIM_UDB_RX_INIT_INTERRUPTS_MASK
  27:Generated_Source\PSoC4/GLCD_SPIM_UDB_PM.c ****     #endif /* CY_UDB_V0 */
  28:Generated_Source\PSoC4/GLCD_SPIM_UDB_PM.c **** };
  29:Generated_Source\PSoC4/GLCD_SPIM_UDB_PM.c **** 
  30:Generated_Source\PSoC4/GLCD_SPIM_UDB_PM.c **** 
  31:Generated_Source\PSoC4/GLCD_SPIM_UDB_PM.c **** /*******************************************************************************
  32:Generated_Source\PSoC4/GLCD_SPIM_UDB_PM.c **** * Function Name: GLCD_SPIM_UDB_SaveConfig
  33:Generated_Source\PSoC4/GLCD_SPIM_UDB_PM.c **** ********************************************************************************
  34:Generated_Source\PSoC4/GLCD_SPIM_UDB_PM.c **** *
  35:Generated_Source\PSoC4/GLCD_SPIM_UDB_PM.c **** * Summary:
  36:Generated_Source\PSoC4/GLCD_SPIM_UDB_PM.c **** *  Saves SPIM configuration.
  37:Generated_Source\PSoC4/GLCD_SPIM_UDB_PM.c **** *
  38:Generated_Source\PSoC4/GLCD_SPIM_UDB_PM.c **** * Parameters:
  39:Generated_Source\PSoC4/GLCD_SPIM_UDB_PM.c **** *  None.
  40:Generated_Source\PSoC4/GLCD_SPIM_UDB_PM.c **** *
  41:Generated_Source\PSoC4/GLCD_SPIM_UDB_PM.c **** * Return:
  42:Generated_Source\PSoC4/GLCD_SPIM_UDB_PM.c **** *  None.
  43:Generated_Source\PSoC4/GLCD_SPIM_UDB_PM.c **** *
  44:Generated_Source\PSoC4/GLCD_SPIM_UDB_PM.c **** * Global Variables:
  45:Generated_Source\PSoC4/GLCD_SPIM_UDB_PM.c **** *  GLCD_SPIM_UDB_backup - modified when non-retention registers are saved.
  46:Generated_Source\PSoC4/GLCD_SPIM_UDB_PM.c **** *
  47:Generated_Source\PSoC4/GLCD_SPIM_UDB_PM.c **** * Reentrant:
  48:Generated_Source\PSoC4/GLCD_SPIM_UDB_PM.c **** *  No.
  49:Generated_Source\PSoC4/GLCD_SPIM_UDB_PM.c **** *
  50:Generated_Source\PSoC4/GLCD_SPIM_UDB_PM.c **** *******************************************************************************/
  51:Generated_Source\PSoC4/GLCD_SPIM_UDB_PM.c **** void GLCD_SPIM_UDB_SaveConfig(void) 
  52:Generated_Source\PSoC4/GLCD_SPIM_UDB_PM.c **** {
  33              		.loc 1 52 0
  34              		.cfi_startproc
  35 0000 80B5     		push	{r7, lr}
  36              		.cfi_def_cfa_offset 8
  37              		.cfi_offset 7, -8
  38              		.cfi_offset 14, -4
  39 0002 00AF     		add	r7, sp, #0
  40              		.cfi_def_cfa_register 7
  53:Generated_Source\PSoC4/GLCD_SPIM_UDB_PM.c ****     /* Store Status Mask registers */
  54:Generated_Source\PSoC4/GLCD_SPIM_UDB_PM.c ****     #if(CY_UDB_V0)
  55:Generated_Source\PSoC4/GLCD_SPIM_UDB_PM.c ****        GLCD_SPIM_UDB_backup.cntrPeriod      = GLCD_SPIM_UDB_COUNTER_PERIOD_REG;
  56:Generated_Source\PSoC4/GLCD_SPIM_UDB_PM.c ****        GLCD_SPIM_UDB_backup.saveSrTxIntMask = GLCD_SPIM_UDB_TX_STATUS_MASK_REG;
  57:Generated_Source\PSoC4/GLCD_SPIM_UDB_PM.c ****        GLCD_SPIM_UDB_backup.saveSrRxIntMask = GLCD_SPIM_UDB_RX_STATUS_MASK_REG;
  58:Generated_Source\PSoC4/GLCD_SPIM_UDB_PM.c ****     #endif /* (CY_UDB_V0) */
  59:Generated_Source\PSoC4/GLCD_SPIM_UDB_PM.c **** }
  41              		.loc 1 59 0
  42 0004 BD46     		mov	sp, r7
  43              		@ sp needed
  44 0006 80BD     		pop	{r7, pc}
  45              		.cfi_endproc
  46              	.LFE0:
  47              		.size	GLCD_SPIM_UDB_SaveConfig, .-GLCD_SPIM_UDB_SaveConfig
  48              		.section	.text.GLCD_SPIM_UDB_RestoreConfig,"ax",%progbits
  49              		.align	2
  50              		.global	GLCD_SPIM_UDB_RestoreConfig
  51              		.code	16
  52              		.thumb_func
  53              		.type	GLCD_SPIM_UDB_RestoreConfig, %function
  54              	GLCD_SPIM_UDB_RestoreConfig:
  55              	.LFB1:
ARM GAS  C:\Users\bolding\AppData\Local\Temp\ccINdocy.s 			page 3


  60:Generated_Source\PSoC4/GLCD_SPIM_UDB_PM.c **** 
  61:Generated_Source\PSoC4/GLCD_SPIM_UDB_PM.c **** 
  62:Generated_Source\PSoC4/GLCD_SPIM_UDB_PM.c **** /*******************************************************************************
  63:Generated_Source\PSoC4/GLCD_SPIM_UDB_PM.c **** * Function Name: GLCD_SPIM_UDB_RestoreConfig
  64:Generated_Source\PSoC4/GLCD_SPIM_UDB_PM.c **** ********************************************************************************
  65:Generated_Source\PSoC4/GLCD_SPIM_UDB_PM.c **** *
  66:Generated_Source\PSoC4/GLCD_SPIM_UDB_PM.c **** * Summary:
  67:Generated_Source\PSoC4/GLCD_SPIM_UDB_PM.c **** *  Restores SPIM configuration.
  68:Generated_Source\PSoC4/GLCD_SPIM_UDB_PM.c **** *
  69:Generated_Source\PSoC4/GLCD_SPIM_UDB_PM.c **** * Parameters:
  70:Generated_Source\PSoC4/GLCD_SPIM_UDB_PM.c **** *  None.
  71:Generated_Source\PSoC4/GLCD_SPIM_UDB_PM.c **** *
  72:Generated_Source\PSoC4/GLCD_SPIM_UDB_PM.c **** * Return:
  73:Generated_Source\PSoC4/GLCD_SPIM_UDB_PM.c **** *  None.
  74:Generated_Source\PSoC4/GLCD_SPIM_UDB_PM.c **** *
  75:Generated_Source\PSoC4/GLCD_SPIM_UDB_PM.c **** * Global Variables:
  76:Generated_Source\PSoC4/GLCD_SPIM_UDB_PM.c **** *  GLCD_SPIM_UDB_backup - used when non-retention registers are restored.
  77:Generated_Source\PSoC4/GLCD_SPIM_UDB_PM.c **** *
  78:Generated_Source\PSoC4/GLCD_SPIM_UDB_PM.c **** * Side Effects:
  79:Generated_Source\PSoC4/GLCD_SPIM_UDB_PM.c **** *  If this API is called without first calling SaveConfig then in the following
  80:Generated_Source\PSoC4/GLCD_SPIM_UDB_PM.c **** *  registers will be default values from Customizer:
  81:Generated_Source\PSoC4/GLCD_SPIM_UDB_PM.c **** *  GLCD_SPIM_UDB_STATUS_MASK_REG and GLCD_SPIM_UDB_COUNTER_PERIOD_REG.
  82:Generated_Source\PSoC4/GLCD_SPIM_UDB_PM.c **** *
  83:Generated_Source\PSoC4/GLCD_SPIM_UDB_PM.c **** *******************************************************************************/
  84:Generated_Source\PSoC4/GLCD_SPIM_UDB_PM.c **** void GLCD_SPIM_UDB_RestoreConfig(void) 
  85:Generated_Source\PSoC4/GLCD_SPIM_UDB_PM.c **** {
  56              		.loc 1 85 0
  57              		.cfi_startproc
  58 0000 80B5     		push	{r7, lr}
  59              		.cfi_def_cfa_offset 8
  60              		.cfi_offset 7, -8
  61              		.cfi_offset 14, -4
  62 0002 00AF     		add	r7, sp, #0
  63              		.cfi_def_cfa_register 7
  86:Generated_Source\PSoC4/GLCD_SPIM_UDB_PM.c ****     /* Restore the data, saved by SaveConfig() function */
  87:Generated_Source\PSoC4/GLCD_SPIM_UDB_PM.c ****     #if(CY_UDB_V0)
  88:Generated_Source\PSoC4/GLCD_SPIM_UDB_PM.c ****         GLCD_SPIM_UDB_COUNTER_PERIOD_REG = GLCD_SPIM_UDB_backup.cntrPeriod;
  89:Generated_Source\PSoC4/GLCD_SPIM_UDB_PM.c ****         GLCD_SPIM_UDB_TX_STATUS_MASK_REG = ((uint8) GLCD_SPIM_UDB_backup.saveSrTxIntMask);
  90:Generated_Source\PSoC4/GLCD_SPIM_UDB_PM.c ****         GLCD_SPIM_UDB_RX_STATUS_MASK_REG = ((uint8) GLCD_SPIM_UDB_backup.saveSrRxIntMask);
  91:Generated_Source\PSoC4/GLCD_SPIM_UDB_PM.c ****     #endif /* (CY_UDB_V0) */
  92:Generated_Source\PSoC4/GLCD_SPIM_UDB_PM.c **** }
  64              		.loc 1 92 0
  65 0004 BD46     		mov	sp, r7
  66              		@ sp needed
  67 0006 80BD     		pop	{r7, pc}
  68              		.cfi_endproc
  69              	.LFE1:
  70              		.size	GLCD_SPIM_UDB_RestoreConfig, .-GLCD_SPIM_UDB_RestoreConfig
  71              		.section	.text.GLCD_SPIM_UDB_Sleep,"ax",%progbits
  72              		.align	2
  73              		.global	GLCD_SPIM_UDB_Sleep
  74              		.code	16
  75              		.thumb_func
  76              		.type	GLCD_SPIM_UDB_Sleep, %function
  77              	GLCD_SPIM_UDB_Sleep:
  78              	.LFB2:
  93:Generated_Source\PSoC4/GLCD_SPIM_UDB_PM.c **** 
ARM GAS  C:\Users\bolding\AppData\Local\Temp\ccINdocy.s 			page 4


  94:Generated_Source\PSoC4/GLCD_SPIM_UDB_PM.c **** 
  95:Generated_Source\PSoC4/GLCD_SPIM_UDB_PM.c **** /*******************************************************************************
  96:Generated_Source\PSoC4/GLCD_SPIM_UDB_PM.c **** * Function Name: GLCD_SPIM_UDB_Sleep
  97:Generated_Source\PSoC4/GLCD_SPIM_UDB_PM.c **** ********************************************************************************
  98:Generated_Source\PSoC4/GLCD_SPIM_UDB_PM.c **** *
  99:Generated_Source\PSoC4/GLCD_SPIM_UDB_PM.c **** * Summary:
 100:Generated_Source\PSoC4/GLCD_SPIM_UDB_PM.c **** *  Prepare SPIM Component goes to sleep.
 101:Generated_Source\PSoC4/GLCD_SPIM_UDB_PM.c **** *
 102:Generated_Source\PSoC4/GLCD_SPIM_UDB_PM.c **** * Parameters:
 103:Generated_Source\PSoC4/GLCD_SPIM_UDB_PM.c **** *  None.
 104:Generated_Source\PSoC4/GLCD_SPIM_UDB_PM.c **** *
 105:Generated_Source\PSoC4/GLCD_SPIM_UDB_PM.c **** * Return:
 106:Generated_Source\PSoC4/GLCD_SPIM_UDB_PM.c **** *  None.
 107:Generated_Source\PSoC4/GLCD_SPIM_UDB_PM.c **** *
 108:Generated_Source\PSoC4/GLCD_SPIM_UDB_PM.c **** * Global Variables:
 109:Generated_Source\PSoC4/GLCD_SPIM_UDB_PM.c **** *  GLCD_SPIM_UDB_backup - modified when non-retention registers are saved.
 110:Generated_Source\PSoC4/GLCD_SPIM_UDB_PM.c **** *
 111:Generated_Source\PSoC4/GLCD_SPIM_UDB_PM.c **** * Reentrant:
 112:Generated_Source\PSoC4/GLCD_SPIM_UDB_PM.c **** *  No.
 113:Generated_Source\PSoC4/GLCD_SPIM_UDB_PM.c **** *
 114:Generated_Source\PSoC4/GLCD_SPIM_UDB_PM.c **** *******************************************************************************/
 115:Generated_Source\PSoC4/GLCD_SPIM_UDB_PM.c **** void GLCD_SPIM_UDB_Sleep(void) 
 116:Generated_Source\PSoC4/GLCD_SPIM_UDB_PM.c **** {
  79              		.loc 1 116 0
  80              		.cfi_startproc
  81 0000 80B5     		push	{r7, lr}
  82              		.cfi_def_cfa_offset 8
  83              		.cfi_offset 7, -8
  84              		.cfi_offset 14, -4
  85 0002 00AF     		add	r7, sp, #0
  86              		.cfi_def_cfa_register 7
 117:Generated_Source\PSoC4/GLCD_SPIM_UDB_PM.c ****     /* Save components enable state */
 118:Generated_Source\PSoC4/GLCD_SPIM_UDB_PM.c ****     GLCD_SPIM_UDB_backup.enableState = ((uint8) GLCD_SPIM_UDB_IS_ENABLED);
  87              		.loc 1 118 0
  88 0004 084B     		ldr	r3, .L4
  89 0006 1B78     		ldrb	r3, [r3]
  90 0008 DBB2     		uxtb	r3, r3
  91 000a 1A1C     		mov	r2, r3
  92 000c 1023     		mov	r3, #16
  93 000e 1340     		and	r3, r2
  94 0010 5A1E     		sub	r2, r3, #1
  95 0012 9341     		sbc	r3, r3, r2
  96 0014 DBB2     		uxtb	r3, r3
  97 0016 1A1C     		mov	r2, r3
  98 0018 044B     		ldr	r3, .L4+4
  99 001a 1A70     		strb	r2, [r3]
 119:Generated_Source\PSoC4/GLCD_SPIM_UDB_PM.c **** 
 120:Generated_Source\PSoC4/GLCD_SPIM_UDB_PM.c ****     GLCD_SPIM_UDB_Stop();
 100              		.loc 1 120 0
 101 001c FFF7FEFF 		bl	GLCD_SPIM_UDB_Stop
 121:Generated_Source\PSoC4/GLCD_SPIM_UDB_PM.c ****     GLCD_SPIM_UDB_SaveConfig();
 102              		.loc 1 121 0
 103 0020 FFF7FEFF 		bl	GLCD_SPIM_UDB_SaveConfig
 122:Generated_Source\PSoC4/GLCD_SPIM_UDB_PM.c **** }
 104              		.loc 1 122 0
 105 0024 BD46     		mov	sp, r7
 106              		@ sp needed
ARM GAS  C:\Users\bolding\AppData\Local\Temp\ccINdocy.s 			page 5


 107 0026 80BD     		pop	{r7, pc}
 108              	.L5:
 109              		.align	2
 110              	.L4:
 111 0028 92000F40 		.word	1074725010
 112 002c 00000000 		.word	GLCD_SPIM_UDB_backup
 113              		.cfi_endproc
 114              	.LFE2:
 115              		.size	GLCD_SPIM_UDB_Sleep, .-GLCD_SPIM_UDB_Sleep
 116              		.section	.text.GLCD_SPIM_UDB_Wakeup,"ax",%progbits
 117              		.align	2
 118              		.global	GLCD_SPIM_UDB_Wakeup
 119              		.code	16
 120              		.thumb_func
 121              		.type	GLCD_SPIM_UDB_Wakeup, %function
 122              	GLCD_SPIM_UDB_Wakeup:
 123              	.LFB3:
 123:Generated_Source\PSoC4/GLCD_SPIM_UDB_PM.c **** 
 124:Generated_Source\PSoC4/GLCD_SPIM_UDB_PM.c **** 
 125:Generated_Source\PSoC4/GLCD_SPIM_UDB_PM.c **** /*******************************************************************************
 126:Generated_Source\PSoC4/GLCD_SPIM_UDB_PM.c **** * Function Name: GLCD_SPIM_UDB_Wakeup
 127:Generated_Source\PSoC4/GLCD_SPIM_UDB_PM.c **** ********************************************************************************
 128:Generated_Source\PSoC4/GLCD_SPIM_UDB_PM.c **** *
 129:Generated_Source\PSoC4/GLCD_SPIM_UDB_PM.c **** * Summary:
 130:Generated_Source\PSoC4/GLCD_SPIM_UDB_PM.c **** *  Prepare SPIM Component to wake up.
 131:Generated_Source\PSoC4/GLCD_SPIM_UDB_PM.c **** *
 132:Generated_Source\PSoC4/GLCD_SPIM_UDB_PM.c **** * Parameters:
 133:Generated_Source\PSoC4/GLCD_SPIM_UDB_PM.c **** *  None.
 134:Generated_Source\PSoC4/GLCD_SPIM_UDB_PM.c **** *
 135:Generated_Source\PSoC4/GLCD_SPIM_UDB_PM.c **** * Return:
 136:Generated_Source\PSoC4/GLCD_SPIM_UDB_PM.c **** *  None.
 137:Generated_Source\PSoC4/GLCD_SPIM_UDB_PM.c **** *
 138:Generated_Source\PSoC4/GLCD_SPIM_UDB_PM.c **** * Global Variables:
 139:Generated_Source\PSoC4/GLCD_SPIM_UDB_PM.c **** *  GLCD_SPIM_UDB_backup - used when non-retention registers are restored.
 140:Generated_Source\PSoC4/GLCD_SPIM_UDB_PM.c **** *  GLCD_SPIM_UDB_txBufferWrite - modified every function call - resets to
 141:Generated_Source\PSoC4/GLCD_SPIM_UDB_PM.c **** *  zero.
 142:Generated_Source\PSoC4/GLCD_SPIM_UDB_PM.c **** *  GLCD_SPIM_UDB_txBufferRead - modified every function call - resets to
 143:Generated_Source\PSoC4/GLCD_SPIM_UDB_PM.c **** *  zero.
 144:Generated_Source\PSoC4/GLCD_SPIM_UDB_PM.c **** *  GLCD_SPIM_UDB_rxBufferWrite - modified every function call - resets to
 145:Generated_Source\PSoC4/GLCD_SPIM_UDB_PM.c **** *  zero.
 146:Generated_Source\PSoC4/GLCD_SPIM_UDB_PM.c **** *  GLCD_SPIM_UDB_rxBufferRead - modified every function call - resets to
 147:Generated_Source\PSoC4/GLCD_SPIM_UDB_PM.c **** *  zero.
 148:Generated_Source\PSoC4/GLCD_SPIM_UDB_PM.c **** *
 149:Generated_Source\PSoC4/GLCD_SPIM_UDB_PM.c **** * Reentrant:
 150:Generated_Source\PSoC4/GLCD_SPIM_UDB_PM.c **** *  No.
 151:Generated_Source\PSoC4/GLCD_SPIM_UDB_PM.c **** *
 152:Generated_Source\PSoC4/GLCD_SPIM_UDB_PM.c **** *******************************************************************************/
 153:Generated_Source\PSoC4/GLCD_SPIM_UDB_PM.c **** void GLCD_SPIM_UDB_Wakeup(void) 
 154:Generated_Source\PSoC4/GLCD_SPIM_UDB_PM.c **** {
 124              		.loc 1 154 0
 125              		.cfi_startproc
 126 0000 80B5     		push	{r7, lr}
 127              		.cfi_def_cfa_offset 8
 128              		.cfi_offset 7, -8
 129              		.cfi_offset 14, -4
 130 0002 00AF     		add	r7, sp, #0
 131              		.cfi_def_cfa_register 7
ARM GAS  C:\Users\bolding\AppData\Local\Temp\ccINdocy.s 			page 6


 155:Generated_Source\PSoC4/GLCD_SPIM_UDB_PM.c ****     GLCD_SPIM_UDB_RestoreConfig();
 132              		.loc 1 155 0
 133 0004 FFF7FEFF 		bl	GLCD_SPIM_UDB_RestoreConfig
 156:Generated_Source\PSoC4/GLCD_SPIM_UDB_PM.c **** 
 157:Generated_Source\PSoC4/GLCD_SPIM_UDB_PM.c ****     #if(GLCD_SPIM_UDB_RX_SOFTWARE_BUF_ENABLED)
 158:Generated_Source\PSoC4/GLCD_SPIM_UDB_PM.c ****         GLCD_SPIM_UDB_rxBufferFull  = 0u;
 159:Generated_Source\PSoC4/GLCD_SPIM_UDB_PM.c ****         GLCD_SPIM_UDB_rxBufferRead  = 0u;
 160:Generated_Source\PSoC4/GLCD_SPIM_UDB_PM.c ****         GLCD_SPIM_UDB_rxBufferWrite = 0u;
 161:Generated_Source\PSoC4/GLCD_SPIM_UDB_PM.c ****     #endif /* (GLCD_SPIM_UDB_RX_SOFTWARE_BUF_ENABLED) */
 162:Generated_Source\PSoC4/GLCD_SPIM_UDB_PM.c **** 
 163:Generated_Source\PSoC4/GLCD_SPIM_UDB_PM.c ****     #if(GLCD_SPIM_UDB_TX_SOFTWARE_BUF_ENABLED)
 164:Generated_Source\PSoC4/GLCD_SPIM_UDB_PM.c ****         GLCD_SPIM_UDB_txBufferFull  = 0u;
 165:Generated_Source\PSoC4/GLCD_SPIM_UDB_PM.c ****         GLCD_SPIM_UDB_txBufferRead  = 0u;
 166:Generated_Source\PSoC4/GLCD_SPIM_UDB_PM.c ****         GLCD_SPIM_UDB_txBufferWrite = 0u;
 167:Generated_Source\PSoC4/GLCD_SPIM_UDB_PM.c ****     #endif /* (GLCD_SPIM_UDB_TX_SOFTWARE_BUF_ENABLED) */
 168:Generated_Source\PSoC4/GLCD_SPIM_UDB_PM.c **** 
 169:Generated_Source\PSoC4/GLCD_SPIM_UDB_PM.c ****     /* Clear any data from the RX and TX FIFO */
 170:Generated_Source\PSoC4/GLCD_SPIM_UDB_PM.c ****     GLCD_SPIM_UDB_ClearFIFO();
 134              		.loc 1 170 0
 135 0008 FFF7FEFF 		bl	GLCD_SPIM_UDB_ClearFIFO
 171:Generated_Source\PSoC4/GLCD_SPIM_UDB_PM.c **** 
 172:Generated_Source\PSoC4/GLCD_SPIM_UDB_PM.c ****     /* Restore components block enable state */
 173:Generated_Source\PSoC4/GLCD_SPIM_UDB_PM.c ****     if(0u != GLCD_SPIM_UDB_backup.enableState)
 136              		.loc 1 173 0
 137 000c 034B     		ldr	r3, .L8
 138 000e 1B78     		ldrb	r3, [r3]
 139 0010 002B     		cmp	r3, #0
 140 0012 01D0     		beq	.L6
 174:Generated_Source\PSoC4/GLCD_SPIM_UDB_PM.c ****     {
 175:Generated_Source\PSoC4/GLCD_SPIM_UDB_PM.c ****         GLCD_SPIM_UDB_Enable();
 141              		.loc 1 175 0
 142 0014 FFF7FEFF 		bl	GLCD_SPIM_UDB_Enable
 143              	.L6:
 176:Generated_Source\PSoC4/GLCD_SPIM_UDB_PM.c ****     }
 177:Generated_Source\PSoC4/GLCD_SPIM_UDB_PM.c **** }
 144              		.loc 1 177 0
 145 0018 BD46     		mov	sp, r7
 146              		@ sp needed
 147 001a 80BD     		pop	{r7, pc}
 148              	.L9:
 149              		.align	2
 150              	.L8:
 151 001c 00000000 		.word	GLCD_SPIM_UDB_backup
 152              		.cfi_endproc
 153              	.LFE3:
 154              		.size	GLCD_SPIM_UDB_Wakeup, .-GLCD_SPIM_UDB_Wakeup
 155              		.text
 156              	.Letext0:
 157              		.file 2 "Generated_Source\\PSoC4\\cytypes.h"
 158              		.file 3 "Generated_Source\\PSoC4\\GLCD_SPIM_UDB.h"