ARM GAS  C:\Users\bolding\AppData\Local\Temp\ccn3M7UG.s 			page 1


   1              		.cpu cortex-m0
   2              		.fpu softvfp
   3              		.eabi_attribute 20, 1
   4              		.eabi_attribute 21, 1
   5              		.eabi_attribute 23, 3
   6              		.eabi_attribute 24, 1
   7              		.eabi_attribute 25, 1
   8              		.eabi_attribute 26, 1
   9              		.eabi_attribute 30, 6
  10              		.eabi_attribute 34, 0
  11              		.eabi_attribute 18, 4
  12              		.code	16
  13              		.file	"main.c"
  14              		.text
  15              	.Ltext0:
  16              		.cfi_sections	.debug_frame
  17              		.comm	GLCD_FONT8x16,1552,4
  18              		.section	.text.pretty_lines,"ax",%progbits
  19              		.align	2
  20              		.global	pretty_lines
  21              		.code	16
  22              		.thumb_func
  23              		.type	pretty_lines, %function
  24              	pretty_lines:
  25              	.LFB34:
  26              		.file 1 "main.c"
   1:main.c        **** 
   2:main.c        **** // Test program to confirm operation of PSoC 4 Pioneer Board and Graphical LCD
   3:main.c        **** // For documentation on the GLCD Library: Click on the Datasheets tab in the Workspace Explorer and
   4:main.c        **** //        API documentation is at the bottom of the Datasheet
   5:main.c        **** 
   6:main.c        **** #include <device.h>
   7:main.c        **** #include <header01.h>
   8:main.c        **** 
   9:main.c        **** void pretty_lines(int color){
  27              		.loc 1 9 0
  28              		.cfi_startproc
  29 0000 90B5     		push	{r4, r7, lr}
  30              		.cfi_def_cfa_offset 12
  31              		.cfi_offset 4, -12
  32              		.cfi_offset 7, -8
  33              		.cfi_offset 14, -4
  34 0002 87B0     		sub	sp, sp, #28
  35              		.cfi_def_cfa_offset 40
  36 0004 02AF     		add	r7, sp, #8
  37              		.cfi_def_cfa 7, 32
  38 0006 7860     		str	r0, [r7, #4]
  10:main.c        ****     // make some decorations around the edges by drawing lines
  11:main.c        ****     int i;
  12:main.c        ****     for (i = 0; i < 126; i+=5){
  39              		.loc 1 12 0
  40 0008 0023     		mov	r3, #0
  41 000a FB60     		str	r3, [r7, #12]
  42 000c 1CE0     		b	.L2
  43              	.L3:
  13:main.c        ****         GLCD_DrawLine(2+i,2,126,2+i, color);
  44              		.loc 1 13 0 discriminator 3
ARM GAS  C:\Users\bolding\AppData\Local\Temp\ccn3M7UG.s 			page 2


  45 000e FB68     		ldr	r3, [r7, #12]
  46 0010 9A1C     		add	r2, r3, #2
  47 0012 FB68     		ldr	r3, [r7, #12]
  48 0014 9C1C     		add	r4, r3, #2
  49 0016 7B68     		ldr	r3, [r7, #4]
  50 0018 0093     		str	r3, [sp]
  51 001a 101C     		mov	r0, r2
  52 001c 0221     		mov	r1, #2
  53 001e 7E22     		mov	r2, #126
  54 0020 231C     		mov	r3, r4
  55 0022 FFF7FEFF 		bl	GLCD_DrawLine
  14:main.c        ****         GLCD_DrawLine(126-i,126,2,126-i, color);
  56              		.loc 1 14 0 discriminator 3
  57 0026 FB68     		ldr	r3, [r7, #12]
  58 0028 7E22     		mov	r2, #126
  59 002a D11A     		sub	r1, r2, r3
  60 002c FB68     		ldr	r3, [r7, #12]
  61 002e 7E22     		mov	r2, #126
  62 0030 D41A     		sub	r4, r2, r3
  63 0032 7B68     		ldr	r3, [r7, #4]
  64 0034 0093     		str	r3, [sp]
  65 0036 081C     		mov	r0, r1
  66 0038 7E21     		mov	r1, #126
  67 003a 0222     		mov	r2, #2
  68 003c 231C     		mov	r3, r4
  69 003e FFF7FEFF 		bl	GLCD_DrawLine
  12:main.c        ****         GLCD_DrawLine(2+i,2,126,2+i, color);
  70              		.loc 1 12 0 discriminator 3
  71 0042 FB68     		ldr	r3, [r7, #12]
  72 0044 0533     		add	r3, r3, #5
  73 0046 FB60     		str	r3, [r7, #12]
  74              	.L2:
  12:main.c        ****         GLCD_DrawLine(2+i,2,126,2+i, color);
  75              		.loc 1 12 0 is_stmt 0 discriminator 1
  76 0048 FB68     		ldr	r3, [r7, #12]
  77 004a 7D2B     		cmp	r3, #125
  78 004c DFDD     		ble	.L3
  15:main.c        ****     }
  16:main.c        **** }
  79              		.loc 1 16 0 is_stmt 1
  80 004e BD46     		mov	sp, r7
  81 0050 05B0     		add	sp, sp, #20
  82              		@ sp needed
  83 0052 90BD     		pop	{r4, r7, pc}
  84              		.cfi_endproc
  85              	.LFE34:
  86              		.size	pretty_lines, .-pretty_lines
  87              		.section	.rodata
  88              		.align	2
  89              	.LC0:
  90 0000 53505500 		.ascii	"SPU\000"
  91              		.align	2
  92              	.LC2:
  93 0004 45435300 		.ascii	"ECS\000"
  94              		.section	.text.main,"ax",%progbits
  95              		.align	2
  96              		.global	main
ARM GAS  C:\Users\bolding\AppData\Local\Temp\ccn3M7UG.s 			page 3


  97              		.code	16
  98              		.thumb_func
  99              		.type	main, %function
 100              	main:
 101              	.LFB35:
  17:main.c        **** int main()
  18:main.c        **** {
 102              		.loc 1 18 0
 103              		.cfi_startproc
 104 0000 90B5     		push	{r4, r7, lr}
 105              		.cfi_def_cfa_offset 12
 106              		.cfi_offset 4, -12
 107              		.cfi_offset 7, -8
 108              		.cfi_offset 14, -4
 109 0002 85B0     		sub	sp, sp, #20
 110              		.cfi_def_cfa_offset 32
 111 0004 02AF     		add	r7, sp, #8
 112              		.cfi_def_cfa 7, 24
  19:main.c        ****     int16 i;       // counter variable -- int16 will take up less room than int32
  20:main.c        ****     int16 x = CENTER;  // x and y coordinates for center of circle
 113              		.loc 1 20 0
 114 0006 3B1D     		add	r3, r7, #4
 115 0008 3E22     		mov	r2, #62
 116 000a 1A80     		strh	r2, [r3]
  21:main.c        ****     int16 y = 62;
 117              		.loc 1 21 0
 118 000c BB1C     		add	r3, r7, #2
 119 000e 3E22     		mov	r2, #62
 120 0010 1A80     		strh	r2, [r3]
  22:main.c        **** 	
  23:main.c        **** 	// Initialize LCD
  24:main.c        ****     GLCD_Start();  
 121              		.loc 1 24 0
 122 0012 FFF7FEFF 		bl	GLCD_Start
  25:main.c        ****     Backlight_Write(1);       // turn on backlight
 123              		.loc 1 25 0
 124 0016 0120     		mov	r0, #1
 125 0018 FFF7FEFF 		bl	Backlight_Write
  26:main.c        ****     
  27:main.c        ****     LED_Blue_Write(1); LED_Green_Write(1); LED_Red_Write(1); // turn off all LEDs (1 means off)
 126              		.loc 1 27 0
 127 001c 0120     		mov	r0, #1
 128 001e FFF7FEFF 		bl	LED_Blue_Write
 129 0022 0120     		mov	r0, #1
 130 0024 FFF7FEFF 		bl	LED_Green_Write
 131 0028 0120     		mov	r0, #1
 132 002a FFF7FEFF 		bl	LED_Red_Write
  28:main.c        ****  
  29:main.c        ****     
  30:main.c        ****     // clear LCD to crimson color
  31:main.c        ****     GLCD_Clear(GLCD_CRIMSON);
 133              		.loc 1 31 0
 134 002e 584B     		ldr	r3, .L15
 135 0030 181C     		mov	r0, r3
 136 0032 FFF7FEFF 		bl	GLCD_Clear
  32:main.c        ****         
  33:main.c        ****     // Draw a filled circle in maroon by drawing a series of circles of increasing radius 
ARM GAS  C:\Users\bolding\AppData\Local\Temp\ccn3M7UG.s 			page 4


  34:main.c        ****     for (i = 0; i<40; i++) {
 137              		.loc 1 34 0
 138 0036 BB1D     		add	r3, r7, #6
 139 0038 0022     		mov	r2, #0
 140 003a 1A80     		strh	r2, [r3]
 141 003c 13E0     		b	.L5
 142              	.L6:
  35:main.c        ****         GLCD_DrawCircle (x,y,i, GLCD_MAROON);
 143              		.loc 1 35 0 discriminator 3
 144 003e 3B1D     		add	r3, r7, #4
 145 0040 0020     		mov	r0, #0
 146 0042 185E     		ldrsh	r0, [r3, r0]
 147 0044 BB1C     		add	r3, r7, #2
 148 0046 0021     		mov	r1, #0
 149 0048 595E     		ldrsh	r1, [r3, r1]
 150 004a BB1D     		add	r3, r7, #6
 151 004c 0022     		mov	r2, #0
 152 004e 9A5E     		ldrsh	r2, [r3, r2]
 153 0050 8023     		mov	r3, #128
 154 0052 1B01     		lsl	r3, r3, #4
 155 0054 FFF7FEFF 		bl	GLCD_DrawCircle
  34:main.c        ****         GLCD_DrawCircle (x,y,i, GLCD_MAROON);
 156              		.loc 1 34 0 discriminator 3
 157 0058 BB1D     		add	r3, r7, #6
 158 005a 1B88     		ldrh	r3, [r3]
 159 005c 9BB2     		uxth	r3, r3
 160 005e 0133     		add	r3, r3, #1
 161 0060 9AB2     		uxth	r2, r3
 162 0062 BB1D     		add	r3, r7, #6
 163 0064 1A80     		strh	r2, [r3]
 164              	.L5:
  34:main.c        ****         GLCD_DrawCircle (x,y,i, GLCD_MAROON);
 165              		.loc 1 34 0 is_stmt 0 discriminator 1
 166 0066 BB1D     		add	r3, r7, #6
 167 0068 0022     		mov	r2, #0
 168 006a 9B5E     		ldrsh	r3, [r3, r2]
 169 006c 272B     		cmp	r3, #39
 170 006e E6DD     		ble	.L6
  36:main.c        ****     }
  37:main.c        ****     
  38:main.c        ****     // Draw a thick white circle by drawing several white circles of increasing radius
  39:main.c        ****     for (i = 31; i< 34; i++) {
 171              		.loc 1 39 0 is_stmt 1
 172 0070 BB1D     		add	r3, r7, #6
 173 0072 1F22     		mov	r2, #31
 174 0074 1A80     		strh	r2, [r3]
 175 0076 16E0     		b	.L7
 176              	.L8:
  40:main.c        ****         GLCD_DrawCircle (x,y,i, GLCD_WHITE);
 177              		.loc 1 40 0 discriminator 3
 178 0078 3B1D     		add	r3, r7, #4
 179 007a 0021     		mov	r1, #0
 180 007c 595E     		ldrsh	r1, [r3, r1]
 181 007e BB1C     		add	r3, r7, #2
 182 0080 0022     		mov	r2, #0
 183 0082 9A5E     		ldrsh	r2, [r3, r2]
 184 0084 BB1D     		add	r3, r7, #6
ARM GAS  C:\Users\bolding\AppData\Local\Temp\ccn3M7UG.s 			page 5


 185 0086 0020     		mov	r0, #0
 186 0088 1B5E     		ldrsh	r3, [r3, r0]
 187 008a 424C     		ldr	r4, .L15+4
 188 008c 081C     		mov	r0, r1
 189 008e 111C     		mov	r1, r2
 190 0090 1A1C     		mov	r2, r3
 191 0092 231C     		mov	r3, r4
 192 0094 FFF7FEFF 		bl	GLCD_DrawCircle
  39:main.c        ****         GLCD_DrawCircle (x,y,i, GLCD_WHITE);
 193              		.loc 1 39 0 discriminator 3
 194 0098 BB1D     		add	r3, r7, #6
 195 009a 1B88     		ldrh	r3, [r3]
 196 009c 9BB2     		uxth	r3, r3
 197 009e 0133     		add	r3, r3, #1
 198 00a0 9AB2     		uxth	r2, r3
 199 00a2 BB1D     		add	r3, r7, #6
 200 00a4 1A80     		strh	r2, [r3]
 201              	.L7:
  39:main.c        ****         GLCD_DrawCircle (x,y,i, GLCD_WHITE);
 202              		.loc 1 39 0 is_stmt 0 discriminator 1
 203 00a6 BB1D     		add	r3, r7, #6
 204 00a8 0022     		mov	r2, #0
 205 00aa 9B5E     		ldrsh	r3, [r3, r2]
 206 00ac 212B     		cmp	r3, #33
 207 00ae E3DD     		ble	.L8
  41:main.c        ****     }
  42:main.c        ****     
  43:main.c        ****     // Display the words "SPU" and "ECS"
  44:main.c        ****     GLCD_PrintString("SPU", x-20, y-13, GLCD_WHITE, GLCD_MAROON);
 208              		.loc 1 44 0 is_stmt 1
 209 00b0 3B1D     		add	r3, r7, #4
 210 00b2 0022     		mov	r2, #0
 211 00b4 9B5E     		ldrsh	r3, [r3, r2]
 212 00b6 143B     		sub	r3, r3, #20
 213 00b8 191C     		mov	r1, r3
 214 00ba BB1C     		add	r3, r7, #2
 215 00bc 0022     		mov	r2, #0
 216 00be 9B5E     		ldrsh	r3, [r3, r2]
 217 00c0 0D3B     		sub	r3, r3, #13
 218 00c2 1A1C     		mov	r2, r3
 219 00c4 3448     		ldr	r0, .L15+8
 220 00c6 334C     		ldr	r4, .L15+4
 221 00c8 8023     		mov	r3, #128
 222 00ca 1B01     		lsl	r3, r3, #4
 223 00cc 0093     		str	r3, [sp]
 224 00ce 231C     		mov	r3, r4
 225 00d0 FFF7FEFF 		bl	GLCD_PrintString
  45:main.c        ****     GLCD_PrintString("ECS", x, y-13, GLCD_WHITE, GLCD_MAROON);
 226              		.loc 1 45 0
 227 00d4 3B1D     		add	r3, r7, #4
 228 00d6 0021     		mov	r1, #0
 229 00d8 595E     		ldrsh	r1, [r3, r1]
 230 00da BB1C     		add	r3, r7, #2
 231 00dc 0022     		mov	r2, #0
 232 00de 9B5E     		ldrsh	r3, [r3, r2]
 233 00e0 0D3B     		sub	r3, r3, #13
 234 00e2 1A1C     		mov	r2, r3
ARM GAS  C:\Users\bolding\AppData\Local\Temp\ccn3M7UG.s 			page 6


 235 00e4 2D48     		ldr	r0, .L15+12
 236 00e6 2B4C     		ldr	r4, .L15+4
 237 00e8 8023     		mov	r3, #128
 238 00ea 1B01     		lsl	r3, r3, #4
 239 00ec 0093     		str	r3, [sp]
 240 00ee 231C     		mov	r3, r4
 241 00f0 FFF7FEFF 		bl	GLCD_PrintString
  46:main.c        ****     
  47:main.c        ****     // Draw some decorative lines in white
  48:main.c        ****     pretty_lines(GLCD_WHITE);
 242              		.loc 1 48 0
 243 00f4 274B     		ldr	r3, .L15+4
 244 00f6 181C     		mov	r0, r3
 245 00f8 FFF7FEFF 		bl	pretty_lines
 246              	.L14:
  49:main.c        ****     
  50:main.c        ****     // endless loop - there is nothing to return to, so better to just loop forever
  51:main.c        ****     while(1) {
  52:main.c        ****     LED_Blue_Write(1); LED_Green_Write(1); LED_Red_Write(1);   // make sure all LEDs are off
 247              		.loc 1 52 0
 248 00fc 0120     		mov	r0, #1
 249 00fe FFF7FEFF 		bl	LED_Blue_Write
 250 0102 0120     		mov	r0, #1
 251 0104 FFF7FEFF 		bl	LED_Green_Write
 252 0108 0120     		mov	r0, #1
 253 010a FFF7FEFF 		bl	LED_Red_Write
  53:main.c        ****     
  54:main.c        ****     // If A pressed, turn on Green LED and draw lines in Green
  55:main.c        ****      if (A_Read()==0) {
 254              		.loc 1 55 0
 255 010e FFF7FEFF 		bl	A_Read
 256 0112 031E     		sub	r3, r0, #0
 257 0114 05D1     		bne	.L9
  56:main.c        ****          LED_Green_Write(0);   
 258              		.loc 1 56 0
 259 0116 0020     		mov	r0, #0
 260 0118 FFF7FEFF 		bl	LED_Green_Write
  57:main.c        ****         pretty_lines(GLCD_GREEN);
 261              		.loc 1 57 0
 262 011c F020     		mov	r0, #240
 263 011e FFF7FEFF 		bl	pretty_lines
 264              	.L9:
  58:main.c        ****         }
  59:main.c        ****     
  60:main.c        ****     // If B pressed, turn on Green and Red LEDs (Yellow) and draw lines in Yellow
  61:main.c        ****     if (B_Read()==0) {
 265              		.loc 1 61 0
 266 0122 FFF7FEFF 		bl	B_Read
 267 0126 031E     		sub	r3, r0, #0
 268 0128 0AD1     		bne	.L10
  62:main.c        ****          LED_Green_Write(0);  
 269              		.loc 1 62 0
 270 012a 0020     		mov	r0, #0
 271 012c FFF7FEFF 		bl	LED_Green_Write
  63:main.c        ****          LED_Red_Write(0);
 272              		.loc 1 63 0
 273 0130 0020     		mov	r0, #0
ARM GAS  C:\Users\bolding\AppData\Local\Temp\ccn3M7UG.s 			page 7


 274 0132 FFF7FEFF 		bl	LED_Red_Write
  64:main.c        ****         pretty_lines(GLCD_YELLOW);
 275              		.loc 1 64 0
 276 0136 FF23     		mov	r3, #255
 277 0138 1B01     		lsl	r3, r3, #4
 278 013a 181C     		mov	r0, r3
 279 013c FFF7FEFF 		bl	pretty_lines
 280              	.L10:
  65:main.c        ****         }
  66:main.c        ****     
  67:main.c        ****     // If C pressed, turn on Blue LED and draw lines in Blue
  68:main.c        ****     if (C_Read()==0) {
 281              		.loc 1 68 0
 282 0140 FFF7FEFF 		bl	C_Read
 283 0144 031E     		sub	r3, r0, #0
 284 0146 05D1     		bne	.L11
  69:main.c        ****          LED_Blue_Write(0); 
 285              		.loc 1 69 0
 286 0148 0020     		mov	r0, #0
 287 014a FFF7FEFF 		bl	LED_Blue_Write
  70:main.c        ****         pretty_lines(GLCD_BLUE);
 288              		.loc 1 70 0
 289 014e 0F20     		mov	r0, #15
 290 0150 FFF7FEFF 		bl	pretty_lines
 291              	.L11:
  71:main.c        ****         }
  72:main.c        ****     
  73:main.c        ****     // If D pressed, turn on Red LED and draw lines in Red
  74:main.c        ****     if (D_Read()==0) {
 292              		.loc 1 74 0
 293 0154 FFF7FEFF 		bl	D_Read
 294 0158 031E     		sub	r3, r0, #0
 295 015a 07D1     		bne	.L12
  75:main.c        ****          LED_Red_Write(0);  
 296              		.loc 1 75 0
 297 015c 0020     		mov	r0, #0
 298 015e FFF7FEFF 		bl	LED_Red_Write
  76:main.c        ****         pretty_lines(GLCD_RED);        
 299              		.loc 1 76 0
 300 0162 F023     		mov	r3, #240
 301 0164 1B01     		lsl	r3, r3, #4
 302 0166 181C     		mov	r0, r3
 303 0168 FFF7FEFF 		bl	pretty_lines
 304              	.L12:
  77:main.c        ****         }
  78:main.c        ****         
  79:main.c        **** 
  80:main.c        ****     
  81:main.c        ****     // If joystick center pushed, turn on Blue and Red LEDs and draw lines in White
  82:main.c        ****     if (Joy_Center_Read()==0) {
 305              		.loc 1 82 0
 306 016c FFF7FEFF 		bl	Joy_Center_Read
 307 0170 031E     		sub	r3, r0, #0
 308 0172 0CD1     		bne	.L13
  83:main.c        ****          LED_Blue_Write(0); 
 309              		.loc 1 83 0
 310 0174 0020     		mov	r0, #0
ARM GAS  C:\Users\bolding\AppData\Local\Temp\ccn3M7UG.s 			page 8


 311 0176 FFF7FEFF 		bl	LED_Blue_Write
  84:main.c        ****          LED_Red_Write(0);
 312              		.loc 1 84 0
 313 017a 0020     		mov	r0, #0
 314 017c FFF7FEFF 		bl	LED_Red_Write
  85:main.c        ****         LED_Green_Write(0);
 315              		.loc 1 85 0
 316 0180 0020     		mov	r0, #0
 317 0182 FFF7FEFF 		bl	LED_Green_Write
  86:main.c        ****         pretty_lines(GLCD_WHITE);
 318              		.loc 1 86 0
 319 0186 034B     		ldr	r3, .L15+4
 320 0188 181C     		mov	r0, r3
 321 018a FFF7FEFF 		bl	pretty_lines
 322              	.L13:
  87:main.c        ****         }
  88:main.c        ****        
  89:main.c        ****     }
 323              		.loc 1 89 0
 324 018e B5E7     		b	.L14
 325              	.L16:
 326              		.align	2
 327              	.L15:
 328 0190 130D0000 		.word	3347
 329 0194 FF0F0000 		.word	4095
 330 0198 00000000 		.word	.LC0
 331 019c 04000000 		.word	.LC2
 332              		.cfi_endproc
 333              	.LFE35:
 334              		.size	main, .-main
 335              		.text
 336              	.Letext0:
 337              		.file 2 "Generated_Source\\PSoC4/cytypes.h"
 338              		.file 3 "Generated_Source\\PSoC4/GLCD.h"