ARM GAS  C:\Users\sur\AppData\Local\Temp\cc9NBdQH.s 			page 1


   1              		.syntax unified
   2              		.cpu cortex-m0
   3              		.fpu softvfp
   4              		.eabi_attribute 20, 1
   5              		.eabi_attribute 21, 1
   6              		.eabi_attribute 23, 3
   7              		.eabi_attribute 24, 1
   8              		.eabi_attribute 25, 1
   9              		.eabi_attribute 26, 1
  10              		.eabi_attribute 30, 1
  11              		.eabi_attribute 34, 0
  12              		.eabi_attribute 18, 4
  13              		.thumb
  14              		.syntax unified
  15              		.file	"cyfitter_cfg.c"
  16              		.text
  17              	.Ltext0:
  18              		.cfi_sections	.debug_frame
  19              		.section	.text.cfg_write_bytes32,"ax",%progbits
  20              		.align	2
  21              		.code	16
  22              		.thumb_func
  23              		.type	cfg_write_bytes32, %function
  24              	cfg_write_bytes32:
  25              	.LFB3:
  26              		.file 1 "Generated_Source\\PSoC4\\cyfitter_cfg.c"
   1:Generated_Source\PSoC4/cyfitter_cfg.c **** 
   2:Generated_Source\PSoC4/cyfitter_cfg.c **** /*******************************************************************************
   3:Generated_Source\PSoC4/cyfitter_cfg.c **** * File Name: cyfitter_cfg.c
   4:Generated_Source\PSoC4/cyfitter_cfg.c **** * 
   5:Generated_Source\PSoC4/cyfitter_cfg.c **** * PSoC Creator  4.2
   6:Generated_Source\PSoC4/cyfitter_cfg.c **** *
   7:Generated_Source\PSoC4/cyfitter_cfg.c **** * Description:
   8:Generated_Source\PSoC4/cyfitter_cfg.c **** * This file contains device initialization code.
   9:Generated_Source\PSoC4/cyfitter_cfg.c **** * Except for the user defined sections in CyClockStartupError(), this file should not be modified.
  10:Generated_Source\PSoC4/cyfitter_cfg.c **** * This file is automatically generated by PSoC Creator.
  11:Generated_Source\PSoC4/cyfitter_cfg.c **** *
  12:Generated_Source\PSoC4/cyfitter_cfg.c **** ********************************************************************************
  13:Generated_Source\PSoC4/cyfitter_cfg.c **** * Copyright (c) 2007-2018 Cypress Semiconductor.  All rights reserved.
  14:Generated_Source\PSoC4/cyfitter_cfg.c **** * You may use this file only in accordance with the license, terms, conditions, 
  15:Generated_Source\PSoC4/cyfitter_cfg.c **** * disclaimers, and limitations in the end user license agreement accompanying 
  16:Generated_Source\PSoC4/cyfitter_cfg.c **** * the software package with which this file was provided.
  17:Generated_Source\PSoC4/cyfitter_cfg.c **** ********************************************************************************/
  18:Generated_Source\PSoC4/cyfitter_cfg.c **** 
  19:Generated_Source\PSoC4/cyfitter_cfg.c **** #include <string.h>
  20:Generated_Source\PSoC4/cyfitter_cfg.c **** #include "cytypes.h"
  21:Generated_Source\PSoC4/cyfitter_cfg.c **** #include "cydevice_trm.h"
  22:Generated_Source\PSoC4/cyfitter_cfg.c **** #include "cyfitter.h"
  23:Generated_Source\PSoC4/cyfitter_cfg.c **** #include "CyLib.h"
  24:Generated_Source\PSoC4/cyfitter_cfg.c **** #include "CyLFClk.h"
  25:Generated_Source\PSoC4/cyfitter_cfg.c **** #include "cyfitter_cfg.h"
  26:Generated_Source\PSoC4/cyfitter_cfg.c **** #include "cyapicallbacks.h"
  27:Generated_Source\PSoC4/cyfitter_cfg.c **** 
  28:Generated_Source\PSoC4/cyfitter_cfg.c **** 
  29:Generated_Source\PSoC4/cyfitter_cfg.c **** #if defined(__GNUC__) || defined(__ARMCC_VERSION)
  30:Generated_Source\PSoC4/cyfitter_cfg.c ****     #define CYPACKED 
  31:Generated_Source\PSoC4/cyfitter_cfg.c ****     #define CYPACKED_ATTR __attribute__ ((packed))
ARM GAS  C:\Users\sur\AppData\Local\Temp\cc9NBdQH.s 			page 2


  32:Generated_Source\PSoC4/cyfitter_cfg.c ****     #define CYALIGNED __attribute__ ((aligned))
  33:Generated_Source\PSoC4/cyfitter_cfg.c ****     #define CY_CFG_UNUSED __attribute__ ((unused))
  34:Generated_Source\PSoC4/cyfitter_cfg.c ****     #ifndef CY_CFG_SECTION
  35:Generated_Source\PSoC4/cyfitter_cfg.c ****         #define CY_CFG_SECTION __attribute__ ((section(".psocinit")))
  36:Generated_Source\PSoC4/cyfitter_cfg.c ****     #endif
  37:Generated_Source\PSoC4/cyfitter_cfg.c ****     
  38:Generated_Source\PSoC4/cyfitter_cfg.c ****     #if defined(__ARMCC_VERSION)
  39:Generated_Source\PSoC4/cyfitter_cfg.c ****         #define CY_CFG_MEMORY_BARRIER() __memory_changed()
  40:Generated_Source\PSoC4/cyfitter_cfg.c ****     #else
  41:Generated_Source\PSoC4/cyfitter_cfg.c ****         #define CY_CFG_MEMORY_BARRIER() __sync_synchronize()
  42:Generated_Source\PSoC4/cyfitter_cfg.c ****     #endif
  43:Generated_Source\PSoC4/cyfitter_cfg.c ****     
  44:Generated_Source\PSoC4/cyfitter_cfg.c **** #elif defined(__ICCARM__)
  45:Generated_Source\PSoC4/cyfitter_cfg.c ****     #include <intrinsics.h>
  46:Generated_Source\PSoC4/cyfitter_cfg.c **** 
  47:Generated_Source\PSoC4/cyfitter_cfg.c ****     #define CYPACKED __packed
  48:Generated_Source\PSoC4/cyfitter_cfg.c ****     #define CYPACKED_ATTR 
  49:Generated_Source\PSoC4/cyfitter_cfg.c ****     #define CYALIGNED _Pragma("data_alignment=4")
  50:Generated_Source\PSoC4/cyfitter_cfg.c ****     #define CY_CFG_UNUSED _Pragma("diag_suppress=Pe177")
  51:Generated_Source\PSoC4/cyfitter_cfg.c ****     #define CY_CFG_SECTION _Pragma("location=\".psocinit\"")
  52:Generated_Source\PSoC4/cyfitter_cfg.c ****     
  53:Generated_Source\PSoC4/cyfitter_cfg.c ****     #define CY_CFG_MEMORY_BARRIER() __DMB()
  54:Generated_Source\PSoC4/cyfitter_cfg.c ****     
  55:Generated_Source\PSoC4/cyfitter_cfg.c **** #else
  56:Generated_Source\PSoC4/cyfitter_cfg.c ****     #error Unsupported toolchain
  57:Generated_Source\PSoC4/cyfitter_cfg.c **** #endif
  58:Generated_Source\PSoC4/cyfitter_cfg.c **** 
  59:Generated_Source\PSoC4/cyfitter_cfg.c **** #ifndef CYCODE
  60:Generated_Source\PSoC4/cyfitter_cfg.c ****     #define CYCODE
  61:Generated_Source\PSoC4/cyfitter_cfg.c **** #endif
  62:Generated_Source\PSoC4/cyfitter_cfg.c **** #ifndef CYDATA
  63:Generated_Source\PSoC4/cyfitter_cfg.c ****     #define CYDATA
  64:Generated_Source\PSoC4/cyfitter_cfg.c **** #endif
  65:Generated_Source\PSoC4/cyfitter_cfg.c **** #ifndef CYFAR
  66:Generated_Source\PSoC4/cyfitter_cfg.c ****     #define CYFAR
  67:Generated_Source\PSoC4/cyfitter_cfg.c **** #endif
  68:Generated_Source\PSoC4/cyfitter_cfg.c **** #ifndef CYXDATA
  69:Generated_Source\PSoC4/cyfitter_cfg.c ****     #define CYXDATA
  70:Generated_Source\PSoC4/cyfitter_cfg.c **** #endif
  71:Generated_Source\PSoC4/cyfitter_cfg.c **** 
  72:Generated_Source\PSoC4/cyfitter_cfg.c **** 
  73:Generated_Source\PSoC4/cyfitter_cfg.c **** CY_CFG_UNUSED
  74:Generated_Source\PSoC4/cyfitter_cfg.c **** static void CYMEMZERO(void *s, size_t n);
  75:Generated_Source\PSoC4/cyfitter_cfg.c **** CY_CFG_UNUSED
  76:Generated_Source\PSoC4/cyfitter_cfg.c **** static void CYMEMZERO(void *s, size_t n)
  77:Generated_Source\PSoC4/cyfitter_cfg.c **** {
  78:Generated_Source\PSoC4/cyfitter_cfg.c **** 	(void)memset(s, 0, n);
  79:Generated_Source\PSoC4/cyfitter_cfg.c **** }
  80:Generated_Source\PSoC4/cyfitter_cfg.c **** CY_CFG_UNUSED
  81:Generated_Source\PSoC4/cyfitter_cfg.c **** static void CYCONFIGCPY(void *dest, const void *src, size_t n);
  82:Generated_Source\PSoC4/cyfitter_cfg.c **** CY_CFG_UNUSED
  83:Generated_Source\PSoC4/cyfitter_cfg.c **** static void CYCONFIGCPY(void *dest, const void *src, size_t n)
  84:Generated_Source\PSoC4/cyfitter_cfg.c **** {
  85:Generated_Source\PSoC4/cyfitter_cfg.c **** 	(void)memcpy(dest, src, n);
  86:Generated_Source\PSoC4/cyfitter_cfg.c **** }
  87:Generated_Source\PSoC4/cyfitter_cfg.c **** CY_CFG_UNUSED
  88:Generated_Source\PSoC4/cyfitter_cfg.c **** static void CYCONFIGCPYCODE(void *dest, const void *src, size_t n);
ARM GAS  C:\Users\sur\AppData\Local\Temp\cc9NBdQH.s 			page 3


  89:Generated_Source\PSoC4/cyfitter_cfg.c **** CY_CFG_UNUSED
  90:Generated_Source\PSoC4/cyfitter_cfg.c **** static void CYCONFIGCPYCODE(void *dest, const void *src, size_t n)
  91:Generated_Source\PSoC4/cyfitter_cfg.c **** {
  92:Generated_Source\PSoC4/cyfitter_cfg.c **** 	(void)memcpy(dest, src, n);
  93:Generated_Source\PSoC4/cyfitter_cfg.c **** }
  94:Generated_Source\PSoC4/cyfitter_cfg.c **** 
  95:Generated_Source\PSoC4/cyfitter_cfg.c **** 
  96:Generated_Source\PSoC4/cyfitter_cfg.c **** 
  97:Generated_Source\PSoC4/cyfitter_cfg.c **** 
  98:Generated_Source\PSoC4/cyfitter_cfg.c **** /* Clock startup error codes                                                   */
  99:Generated_Source\PSoC4/cyfitter_cfg.c **** #define CYCLOCKSTART_NO_ERROR    0u
 100:Generated_Source\PSoC4/cyfitter_cfg.c **** #define CYCLOCKSTART_XTAL_ERROR  1u
 101:Generated_Source\PSoC4/cyfitter_cfg.c **** #define CYCLOCKSTART_32KHZ_ERROR 2u
 102:Generated_Source\PSoC4/cyfitter_cfg.c **** #define CYCLOCKSTART_PLL_ERROR   3u
 103:Generated_Source\PSoC4/cyfitter_cfg.c **** #define CYCLOCKSTART_FLL_ERROR   4u
 104:Generated_Source\PSoC4/cyfitter_cfg.c **** #define CYCLOCKSTART_WCO_ERROR   5u
 105:Generated_Source\PSoC4/cyfitter_cfg.c **** 
 106:Generated_Source\PSoC4/cyfitter_cfg.c **** 
 107:Generated_Source\PSoC4/cyfitter_cfg.c **** #ifdef CY_NEED_CYCLOCKSTARTUPERROR
 108:Generated_Source\PSoC4/cyfitter_cfg.c **** /*******************************************************************************
 109:Generated_Source\PSoC4/cyfitter_cfg.c **** * Function Name: CyClockStartupError
 110:Generated_Source\PSoC4/cyfitter_cfg.c **** ********************************************************************************
 111:Generated_Source\PSoC4/cyfitter_cfg.c **** * Summary:
 112:Generated_Source\PSoC4/cyfitter_cfg.c **** *  If an error is encountered during clock configuration (crystal startup error,
 113:Generated_Source\PSoC4/cyfitter_cfg.c **** *  PLL lock error, etc.), the system will end up here.  Unless reimplemented by
 114:Generated_Source\PSoC4/cyfitter_cfg.c **** *  the customer, this function will stop in an infinite loop.
 115:Generated_Source\PSoC4/cyfitter_cfg.c **** *
 116:Generated_Source\PSoC4/cyfitter_cfg.c **** * Parameters:
 117:Generated_Source\PSoC4/cyfitter_cfg.c **** *   void
 118:Generated_Source\PSoC4/cyfitter_cfg.c **** *
 119:Generated_Source\PSoC4/cyfitter_cfg.c **** * Return:
 120:Generated_Source\PSoC4/cyfitter_cfg.c **** *   void
 121:Generated_Source\PSoC4/cyfitter_cfg.c **** *
 122:Generated_Source\PSoC4/cyfitter_cfg.c **** *******************************************************************************/
 123:Generated_Source\PSoC4/cyfitter_cfg.c **** CY_CFG_UNUSED
 124:Generated_Source\PSoC4/cyfitter_cfg.c **** static void CyClockStartupError(uint8 errorCode);
 125:Generated_Source\PSoC4/cyfitter_cfg.c **** CY_CFG_UNUSED
 126:Generated_Source\PSoC4/cyfitter_cfg.c **** static void CyClockStartupError(uint8 errorCode)
 127:Generated_Source\PSoC4/cyfitter_cfg.c **** {
 128:Generated_Source\PSoC4/cyfitter_cfg.c ****     /* To remove the compiler warning if errorCode not used.                */
 129:Generated_Source\PSoC4/cyfitter_cfg.c ****     errorCode = errorCode;
 130:Generated_Source\PSoC4/cyfitter_cfg.c **** 
 131:Generated_Source\PSoC4/cyfitter_cfg.c ****     /* If we have a clock startup error (bad MHz crystal, PLL lock, etc.),  */
 132:Generated_Source\PSoC4/cyfitter_cfg.c ****     /* we will end up here to allow the customer to implement something to  */
 133:Generated_Source\PSoC4/cyfitter_cfg.c ****     /* deal with the clock condition.                                       */
 134:Generated_Source\PSoC4/cyfitter_cfg.c **** 
 135:Generated_Source\PSoC4/cyfitter_cfg.c **** #ifdef CY_CFG_CLOCK_STARTUP_ERROR_CALLBACK
 136:Generated_Source\PSoC4/cyfitter_cfg.c ****     CY_CFG_Clock_Startup_ErrorCallback();
 137:Generated_Source\PSoC4/cyfitter_cfg.c **** #else
 138:Generated_Source\PSoC4/cyfitter_cfg.c ****     /*  If not using CY_CFG_CLOCK_STARTUP_ERROR_CALLBACK, place your clock startup code here. */
 139:Generated_Source\PSoC4/cyfitter_cfg.c ****     /* `#START CyClockStartupError` */
 140:Generated_Source\PSoC4/cyfitter_cfg.c **** 
 141:Generated_Source\PSoC4/cyfitter_cfg.c **** 
 142:Generated_Source\PSoC4/cyfitter_cfg.c **** 
 143:Generated_Source\PSoC4/cyfitter_cfg.c ****     /* `#END` */
 144:Generated_Source\PSoC4/cyfitter_cfg.c **** 
 145:Generated_Source\PSoC4/cyfitter_cfg.c ****     while(1) {}
ARM GAS  C:\Users\sur\AppData\Local\Temp\cc9NBdQH.s 			page 4


 146:Generated_Source\PSoC4/cyfitter_cfg.c **** #endif /* CY_CFG_CLOCK_STARTUP_ERROR_CALLBACK */
 147:Generated_Source\PSoC4/cyfitter_cfg.c **** }
 148:Generated_Source\PSoC4/cyfitter_cfg.c **** #endif
 149:Generated_Source\PSoC4/cyfitter_cfg.c **** 
 150:Generated_Source\PSoC4/cyfitter_cfg.c **** #define CY_CFG_BASE_ADDR_COUNT 9u
 151:Generated_Source\PSoC4/cyfitter_cfg.c **** CYPACKED typedef struct
 152:Generated_Source\PSoC4/cyfitter_cfg.c **** {
 153:Generated_Source\PSoC4/cyfitter_cfg.c **** 	uint8 offset;
 154:Generated_Source\PSoC4/cyfitter_cfg.c **** 	uint8 value;
 155:Generated_Source\PSoC4/cyfitter_cfg.c **** } CYPACKED_ATTR cy_cfg_addrvalue_t;
 156:Generated_Source\PSoC4/cyfitter_cfg.c **** 
 157:Generated_Source\PSoC4/cyfitter_cfg.c **** 
 158:Generated_Source\PSoC4/cyfitter_cfg.c **** 
 159:Generated_Source\PSoC4/cyfitter_cfg.c **** /*******************************************************************************
 160:Generated_Source\PSoC4/cyfitter_cfg.c **** * Function Name: cfg_write_bytes32
 161:Generated_Source\PSoC4/cyfitter_cfg.c **** ********************************************************************************
 162:Generated_Source\PSoC4/cyfitter_cfg.c **** * Summary:
 163:Generated_Source\PSoC4/cyfitter_cfg.c **** *  This function is used for setting up the chip configuration areas that
 164:Generated_Source\PSoC4/cyfitter_cfg.c **** *  contain relatively sparse data.
 165:Generated_Source\PSoC4/cyfitter_cfg.c **** *
 166:Generated_Source\PSoC4/cyfitter_cfg.c **** * Parameters:
 167:Generated_Source\PSoC4/cyfitter_cfg.c **** *   void
 168:Generated_Source\PSoC4/cyfitter_cfg.c **** *
 169:Generated_Source\PSoC4/cyfitter_cfg.c **** * Return:
 170:Generated_Source\PSoC4/cyfitter_cfg.c **** *   void
 171:Generated_Source\PSoC4/cyfitter_cfg.c **** *
 172:Generated_Source\PSoC4/cyfitter_cfg.c **** *******************************************************************************/
 173:Generated_Source\PSoC4/cyfitter_cfg.c **** static void cfg_write_bytes32(const uint32 addr_table[], const cy_cfg_addrvalue_t data_table[]);
 174:Generated_Source\PSoC4/cyfitter_cfg.c **** static void cfg_write_bytes32(const uint32 addr_table[], const cy_cfg_addrvalue_t data_table[])
 175:Generated_Source\PSoC4/cyfitter_cfg.c **** {
  27              		.loc 1 175 0
  28              		.cfi_startproc
  29              		@ args = 0, pretend = 0, frame = 0
  30              		@ frame_needed = 0, uses_anonymous_args = 0
  31              	.LVL0:
  32 0000 F0B5     		push	{r4, r5, r6, r7, lr}
  33              		.cfi_def_cfa_offset 20
  34              		.cfi_offset 4, -20
  35              		.cfi_offset 5, -16
  36              		.cfi_offset 6, -12
  37              		.cfi_offset 7, -8
  38              		.cfi_offset 14, -4
  39              	.LVL1:
 176:Generated_Source\PSoC4/cyfitter_cfg.c **** 	/* For 32-bit little-endian architectures */
 177:Generated_Source\PSoC4/cyfitter_cfg.c **** 	uint32 i, j = 0u;
  40              		.loc 1 177 0
  41 0002 0025     		movs	r5, #0
 178:Generated_Source\PSoC4/cyfitter_cfg.c **** 	for (i = 0u; i < CY_CFG_BASE_ADDR_COUNT; i++)
  42              		.loc 1 178 0
  43 0004 0027     		movs	r7, #0
  44 0006 11E0     		b	.L2
  45              	.LVL2:
  46              	.L5:
  47              	.LBB2:
 179:Generated_Source\PSoC4/cyfitter_cfg.c **** 	{
 180:Generated_Source\PSoC4/cyfitter_cfg.c **** 		uint32 baseAddr = addr_table[i];
  48              		.loc 1 180 0
ARM GAS  C:\Users\sur\AppData\Local\Temp\cc9NBdQH.s 			page 5


  49 0008 BB00     		lsls	r3, r7, #2
  50 000a C658     		ldr	r6, [r0, r3]
  51              	.LVL3:
 181:Generated_Source\PSoC4/cyfitter_cfg.c **** 		uint8 count = (uint8)baseAddr;
  52              		.loc 1 181 0
  53 000c F3B2     		uxtb	r3, r6
  54              	.LVL4:
 182:Generated_Source\PSoC4/cyfitter_cfg.c **** 		baseAddr &= 0xFFFFFF00u;
  55              		.loc 1 182 0
  56 000e FF22     		movs	r2, #255
  57 0010 9643     		bics	r6, r2
  58              	.LVL5:
 183:Generated_Source\PSoC4/cyfitter_cfg.c **** 		while (count != 0u)
  59              		.loc 1 183 0
  60 0012 08E0     		b	.L3
  61              	.L4:
 184:Generated_Source\PSoC4/cyfitter_cfg.c **** 		{
 185:Generated_Source\PSoC4/cyfitter_cfg.c **** 			CY_SET_REG8((void *)(baseAddr + data_table[j].offset), data_table[j].value);
  62              		.loc 1 185 0
  63 0014 6A00     		lsls	r2, r5, #1
  64 0016 8A18     		adds	r2, r1, r2
  65 0018 1478     		ldrb	r4, [r2]
  66 001a A419     		adds	r4, r4, r6
  67 001c 5278     		ldrb	r2, [r2, #1]
  68 001e 2270     		strb	r2, [r4]
 186:Generated_Source\PSoC4/cyfitter_cfg.c **** 			j++;
  69              		.loc 1 186 0
  70 0020 0135     		adds	r5, r5, #1
  71              	.LVL6:
 187:Generated_Source\PSoC4/cyfitter_cfg.c **** 			count--;
  72              		.loc 1 187 0
  73 0022 013B     		subs	r3, r3, #1
  74              	.LVL7:
  75 0024 DBB2     		uxtb	r3, r3
  76              	.LVL8:
  77              	.L3:
 183:Generated_Source\PSoC4/cyfitter_cfg.c **** 		{
  78              		.loc 1 183 0
  79 0026 002B     		cmp	r3, #0
  80 0028 F4D1     		bne	.L4
  81              	.LBE2:
 178:Generated_Source\PSoC4/cyfitter_cfg.c **** 	{
  82              		.loc 1 178 0 discriminator 2
  83 002a 0137     		adds	r7, r7, #1
  84              	.LVL9:
  85              	.L2:
 178:Generated_Source\PSoC4/cyfitter_cfg.c **** 	{
  86              		.loc 1 178 0 is_stmt 0 discriminator 1
  87 002c 082F     		cmp	r7, #8
  88 002e EBD9     		bls	.L5
 188:Generated_Source\PSoC4/cyfitter_cfg.c **** 		}
 189:Generated_Source\PSoC4/cyfitter_cfg.c **** 	}
 190:Generated_Source\PSoC4/cyfitter_cfg.c **** }
  89              		.loc 1 190 0 is_stmt 1
  90              		@ sp needed
  91              	.LVL10:
  92              	.LVL11:
ARM GAS  C:\Users\sur\AppData\Local\Temp\cc9NBdQH.s 			page 6


  93 0030 F0BD     		pop	{r4, r5, r6, r7, pc}
  94              		.cfi_endproc
  95              	.LFE3:
  96              		.size	cfg_write_bytes32, .-cfg_write_bytes32
  97 0032 C046     		.section	.text.CYMEMZERO,"ax",%progbits
  98              		.align	2
  99              		.code	16
 100              		.thumb_func
 101              		.type	CYMEMZERO, %function
 102              	CYMEMZERO:
 103              	.LFB0:
  77:Generated_Source\PSoC4/cyfitter_cfg.c **** 	(void)memset(s, 0, n);
 104              		.loc 1 77 0
 105              		.cfi_startproc
 106              		@ args = 0, pretend = 0, frame = 0
 107              		@ frame_needed = 0, uses_anonymous_args = 0
 108              	.LVL12:
 109 0000 10B5     		push	{r4, lr}
 110              		.cfi_def_cfa_offset 8
 111              		.cfi_offset 4, -8
 112              		.cfi_offset 14, -4
 113 0002 0A00     		movs	r2, r1
  78:Generated_Source\PSoC4/cyfitter_cfg.c **** }
 114              		.loc 1 78 0
 115 0004 0021     		movs	r1, #0
 116              	.LVL13:
 117 0006 FFF7FEFF 		bl	memset
 118              	.LVL14:
  79:Generated_Source\PSoC4/cyfitter_cfg.c **** CY_CFG_UNUSED
 119              		.loc 1 79 0
 120              		@ sp needed
 121 000a 10BD     		pop	{r4, pc}
 122              		.cfi_endproc
 123              	.LFE0:
 124              		.size	CYMEMZERO, .-CYMEMZERO
 125              		.section	.text.CYCONFIGCPYCODE,"ax",%progbits
 126              		.align	2
 127              		.code	16
 128              		.thumb_func
 129              		.type	CYCONFIGCPYCODE, %function
 130              	CYCONFIGCPYCODE:
 131              	.LFB2:
  91:Generated_Source\PSoC4/cyfitter_cfg.c **** 	(void)memcpy(dest, src, n);
 132              		.loc 1 91 0
 133              		.cfi_startproc
 134              		@ args = 0, pretend = 0, frame = 0
 135              		@ frame_needed = 0, uses_anonymous_args = 0
 136              	.LVL15:
 137 0000 10B5     		push	{r4, lr}
 138              		.cfi_def_cfa_offset 8
 139              		.cfi_offset 4, -8
 140              		.cfi_offset 14, -4
  92:Generated_Source\PSoC4/cyfitter_cfg.c **** }
 141              		.loc 1 92 0
 142 0002 FFF7FEFF 		bl	memcpy
 143              	.LVL16:
  93:Generated_Source\PSoC4/cyfitter_cfg.c **** 
ARM GAS  C:\Users\sur\AppData\Local\Temp\cc9NBdQH.s 			page 7


 144              		.loc 1 93 0
 145              		@ sp needed
 146 0006 10BD     		pop	{r4, pc}
 147              		.cfi_endproc
 148              	.LFE2:
 149              		.size	CYCONFIGCPYCODE, .-CYCONFIGCPYCODE
 150              		.section	.psocinit,"ax",%progbits
 151              		.align	2
 152              		.code	16
 153              		.thumb_func
 154              		.type	ClockSetup, %function
 155              	ClockSetup:
 156              	.LFB4:
 191:Generated_Source\PSoC4/cyfitter_cfg.c **** 
 192:Generated_Source\PSoC4/cyfitter_cfg.c **** 
 193:Generated_Source\PSoC4/cyfitter_cfg.c **** /*******************************************************************************
 194:Generated_Source\PSoC4/cyfitter_cfg.c **** * Function Name: ClockSetup
 195:Generated_Source\PSoC4/cyfitter_cfg.c **** ********************************************************************************
 196:Generated_Source\PSoC4/cyfitter_cfg.c **** *
 197:Generated_Source\PSoC4/cyfitter_cfg.c **** * Summary:
 198:Generated_Source\PSoC4/cyfitter_cfg.c **** *   Performs the initialization of all of the clocks in the device based on the
 199:Generated_Source\PSoC4/cyfitter_cfg.c **** *   settings in the Clock tab of the DWR.  This includes enabling the requested
 200:Generated_Source\PSoC4/cyfitter_cfg.c **** *   clocks and setting the necessary dividers to produce the desired frequency. 
 201:Generated_Source\PSoC4/cyfitter_cfg.c **** *
 202:Generated_Source\PSoC4/cyfitter_cfg.c **** * Parameters:
 203:Generated_Source\PSoC4/cyfitter_cfg.c **** *   void
 204:Generated_Source\PSoC4/cyfitter_cfg.c **** *
 205:Generated_Source\PSoC4/cyfitter_cfg.c **** * Return:
 206:Generated_Source\PSoC4/cyfitter_cfg.c **** *   void
 207:Generated_Source\PSoC4/cyfitter_cfg.c **** *
 208:Generated_Source\PSoC4/cyfitter_cfg.c **** *******************************************************************************/
 209:Generated_Source\PSoC4/cyfitter_cfg.c **** static void ClockSetup(void);
 210:Generated_Source\PSoC4/cyfitter_cfg.c **** CY_CFG_SECTION
 211:Generated_Source\PSoC4/cyfitter_cfg.c **** static void ClockSetup(void)
 212:Generated_Source\PSoC4/cyfitter_cfg.c **** {
 157              		.loc 1 212 0
 158              		.cfi_startproc
 159              		@ args = 0, pretend = 0, frame = 0
 160              		@ frame_needed = 0, uses_anonymous_args = 0
 161 0000 70B5     		push	{r4, r5, r6, lr}
 162              		.cfi_def_cfa_offset 16
 163              		.cfi_offset 4, -16
 164              		.cfi_offset 5, -12
 165              		.cfi_offset 6, -8
 166              		.cfi_offset 14, -4
 213:Generated_Source\PSoC4/cyfitter_cfg.c **** 	/* Enable HALF_EN before trimming for the flash accelerator. */
 214:Generated_Source\PSoC4/cyfitter_cfg.c **** 	CY_SET_REG32((void CYXDATA *)(CYREG_CLK_SELECT), (CY_GET_REG32((void *)CYREG_CLK_SELECT) | 0x00040
 167              		.loc 1 214 0
 168 0002 134C     		ldr	r4, .L9
 169 0004 2368     		ldr	r3, [r4]
 170 0006 8022     		movs	r2, #128
 171 0008 D202     		lsls	r2, r2, #11
 172 000a 1343     		orrs	r3, r2
 173 000c 2360     		str	r3, [r4]
 215:Generated_Source\PSoC4/cyfitter_cfg.c **** 
 216:Generated_Source\PSoC4/cyfitter_cfg.c **** 	/* Setup and trim IMO based on desired frequency. */
 217:Generated_Source\PSoC4/cyfitter_cfg.c **** 	CySysClkWriteImoFreq(24u);
ARM GAS  C:\Users\sur\AppData\Local\Temp\cc9NBdQH.s 			page 8


 174              		.loc 1 217 0
 175 000e 1820     		movs	r0, #24
 176 0010 FFF7FEFF 		bl	CySysClkWriteImoFreq
 177              	.LVL17:
 218:Generated_Source\PSoC4/cyfitter_cfg.c **** 
 219:Generated_Source\PSoC4/cyfitter_cfg.c **** 	/* Disable HALF_EN since it is not required at this IMO frequency. */
 220:Generated_Source\PSoC4/cyfitter_cfg.c **** 	CY_SET_REG32((void CYXDATA *)(CYREG_CLK_SELECT), (CY_GET_REG32((void *)CYREG_CLK_SELECT) & 0xFFFBF
 178              		.loc 1 220 0
 179 0014 2268     		ldr	r2, [r4]
 180 0016 0F4B     		ldr	r3, .L9+4
 181 0018 1340     		ands	r3, r2
 182 001a 2360     		str	r3, [r4]
 221:Generated_Source\PSoC4/cyfitter_cfg.c **** 	/* CYDEV_CLK_ILO_CONFIG Starting address: CYDEV_CLK_ILO_CONFIG */
 222:Generated_Source\PSoC4/cyfitter_cfg.c **** 	CY_SET_REG32((void *)(CYREG_CLK_ILO_CONFIG), 0x80000006u);
 183              		.loc 1 222 0
 184 001c 0E4A     		ldr	r2, .L9+8
 185 001e 0F4B     		ldr	r3, .L9+12
 186 0020 1A60     		str	r2, [r3]
 223:Generated_Source\PSoC4/cyfitter_cfg.c **** 
 224:Generated_Source\PSoC4/cyfitter_cfg.c **** 
 225:Generated_Source\PSoC4/cyfitter_cfg.c **** 	/* CYDEV_CLK_SELECT00 Starting address: CYDEV_CLK_SELECT00 */
 226:Generated_Source\PSoC4/cyfitter_cfg.c **** 	CY_SET_REG32((void *)(CYREG_CLK_SELECT12), 0x00000010u);
 187              		.loc 1 226 0
 188 0022 1022     		movs	r2, #16
 189 0024 0E4B     		ldr	r3, .L9+16
 190 0026 1A60     		str	r2, [r3]
 227:Generated_Source\PSoC4/cyfitter_cfg.c **** 
 228:Generated_Source\PSoC4/cyfitter_cfg.c **** 	/* CYDEV_CLK_IMO_CONFIG Starting address: CYDEV_CLK_IMO_CONFIG */
 229:Generated_Source\PSoC4/cyfitter_cfg.c **** 	CY_SET_REG32((void *)(CYREG_CLK_IMO_CONFIG), 0x80000000u);
 191              		.loc 1 229 0
 192 0028 8022     		movs	r2, #128
 193 002a 1206     		lsls	r2, r2, #24
 194 002c 0D4B     		ldr	r3, .L9+20
 195 002e 1A60     		str	r2, [r3]
 230:Generated_Source\PSoC4/cyfitter_cfg.c **** 
 231:Generated_Source\PSoC4/cyfitter_cfg.c **** 	/* CYDEV_CLK_SELECT Starting address: CYDEV_CLK_SELECT */
 232:Generated_Source\PSoC4/cyfitter_cfg.c **** 	CY_SET_REG32((void *)(CYREG_CLK_SELECT), 0x00000000u);
 196              		.loc 1 232 0
 197 0030 0025     		movs	r5, #0
 198 0032 2560     		str	r5, [r4]
 233:Generated_Source\PSoC4/cyfitter_cfg.c **** 
 234:Generated_Source\PSoC4/cyfitter_cfg.c **** 	/* CYDEV_CLK_DIVIDER_A00 Starting address: CYDEV_CLK_DIVIDER_A00 */
 235:Generated_Source\PSoC4/cyfitter_cfg.c **** 	CY_SET_REG32((void *)(CYREG_CLK_DIVIDER_A00), 0x80000001u);
 199              		.loc 1 235 0
 200 0034 0C4A     		ldr	r2, .L9+24
 201 0036 0D4B     		ldr	r3, .L9+28
 202 0038 1A60     		str	r2, [r3]
 236:Generated_Source\PSoC4/cyfitter_cfg.c **** 
 237:Generated_Source\PSoC4/cyfitter_cfg.c **** 	(void)CyIntSetVector(9u, &CySysWdtIsr);
 203              		.loc 1 237 0
 204 003a 0D49     		ldr	r1, .L9+32
 205 003c 0920     		movs	r0, #9
 206 003e FFF7FEFF 		bl	CyIntSetVector
 207              	.LVL18:
 238:Generated_Source\PSoC4/cyfitter_cfg.c **** 	CyIntEnable(9u);
 208              		.loc 1 238 0
 209 0042 0920     		movs	r0, #9
ARM GAS  C:\Users\sur\AppData\Local\Temp\cc9NBdQH.s 			page 9


 210 0044 FFF7FEFF 		bl	CyIntEnable
 211              	.LVL19:
 239:Generated_Source\PSoC4/cyfitter_cfg.c **** 	CY_SET_REG32((void *)(CYREG_WDT_CONFIG), 0x00000000u);
 212              		.loc 1 239 0
 213 0048 0A4B     		ldr	r3, .L9+36
 214 004a 1D60     		str	r5, [r3]
 240:Generated_Source\PSoC4/cyfitter_cfg.c **** }
 215              		.loc 1 240 0
 216              		@ sp needed
 217 004c 70BD     		pop	{r4, r5, r6, pc}
 218              	.L10:
 219 004e C046     		.align	2
 220              	.L9:
 221 0050 00010B40 		.word	1074462976
 222 0054 FFFFFBFF 		.word	-262145
 223 0058 06000080 		.word	-2147483642
 224 005c 04010B40 		.word	1074462980
 225 0060 30020240 		.word	1073873456
 226 0064 08010B40 		.word	1074462984
 227 0068 01000080 		.word	-2147483647
 228 006c 00000240 		.word	1073872896
 229 0070 00000000 		.word	CySysWdtIsr
 230 0074 0C020B40 		.word	1074463244
 231              		.cfi_endproc
 232              	.LFE4:
 233              		.size	ClockSetup, .-ClockSetup
 234              		.align	2
 235              		.global	cyfitter_cfg
 236              		.code	16
 237              		.thumb_func
 238              		.type	cyfitter_cfg, %function
 239              	cyfitter_cfg:
 240              	.LFB6:
 241:Generated_Source\PSoC4/cyfitter_cfg.c **** 
 242:Generated_Source\PSoC4/cyfitter_cfg.c **** 
 243:Generated_Source\PSoC4/cyfitter_cfg.c **** /* Analog API Functions */
 244:Generated_Source\PSoC4/cyfitter_cfg.c **** 
 245:Generated_Source\PSoC4/cyfitter_cfg.c **** 
 246:Generated_Source\PSoC4/cyfitter_cfg.c **** /*******************************************************************************
 247:Generated_Source\PSoC4/cyfitter_cfg.c **** * Function Name: AnalogSetDefault
 248:Generated_Source\PSoC4/cyfitter_cfg.c **** ********************************************************************************
 249:Generated_Source\PSoC4/cyfitter_cfg.c **** *
 250:Generated_Source\PSoC4/cyfitter_cfg.c **** * Summary:
 251:Generated_Source\PSoC4/cyfitter_cfg.c **** *  Sets up the analog portions of the chip to default values based on chip
 252:Generated_Source\PSoC4/cyfitter_cfg.c **** *  configuration options from the project.
 253:Generated_Source\PSoC4/cyfitter_cfg.c **** *
 254:Generated_Source\PSoC4/cyfitter_cfg.c **** * Parameters:
 255:Generated_Source\PSoC4/cyfitter_cfg.c **** *  void
 256:Generated_Source\PSoC4/cyfitter_cfg.c **** *
 257:Generated_Source\PSoC4/cyfitter_cfg.c **** * Return:
 258:Generated_Source\PSoC4/cyfitter_cfg.c **** *  void
 259:Generated_Source\PSoC4/cyfitter_cfg.c **** *
 260:Generated_Source\PSoC4/cyfitter_cfg.c **** *******************************************************************************/
 261:Generated_Source\PSoC4/cyfitter_cfg.c **** static void AnalogSetDefault(void);
 262:Generated_Source\PSoC4/cyfitter_cfg.c **** static void AnalogSetDefault(void)
 263:Generated_Source\PSoC4/cyfitter_cfg.c **** {
 264:Generated_Source\PSoC4/cyfitter_cfg.c **** }
ARM GAS  C:\Users\sur\AppData\Local\Temp\cc9NBdQH.s 			page 10


 265:Generated_Source\PSoC4/cyfitter_cfg.c **** 
 266:Generated_Source\PSoC4/cyfitter_cfg.c **** 
 267:Generated_Source\PSoC4/cyfitter_cfg.c **** 
 268:Generated_Source\PSoC4/cyfitter_cfg.c **** 
 269:Generated_Source\PSoC4/cyfitter_cfg.c **** /*******************************************************************************
 270:Generated_Source\PSoC4/cyfitter_cfg.c **** * Function Name: cyfitter_cfg
 271:Generated_Source\PSoC4/cyfitter_cfg.c **** ********************************************************************************
 272:Generated_Source\PSoC4/cyfitter_cfg.c **** * Summary:
 273:Generated_Source\PSoC4/cyfitter_cfg.c **** *  This function is called by the start-up code for the selected device. It
 274:Generated_Source\PSoC4/cyfitter_cfg.c **** *  performs all of the necessary device configuration based on the design
 275:Generated_Source\PSoC4/cyfitter_cfg.c **** *  settings.  This includes settings from the Design Wide Resources (DWR) such
 276:Generated_Source\PSoC4/cyfitter_cfg.c **** *  as Clocks and Pins as well as any component configuration that is necessary.
 277:Generated_Source\PSoC4/cyfitter_cfg.c **** *
 278:Generated_Source\PSoC4/cyfitter_cfg.c **** * Parameters:
 279:Generated_Source\PSoC4/cyfitter_cfg.c **** *   void
 280:Generated_Source\PSoC4/cyfitter_cfg.c **** *
 281:Generated_Source\PSoC4/cyfitter_cfg.c **** * Return:
 282:Generated_Source\PSoC4/cyfitter_cfg.c **** *   void
 283:Generated_Source\PSoC4/cyfitter_cfg.c **** *
 284:Generated_Source\PSoC4/cyfitter_cfg.c **** *******************************************************************************/
 285:Generated_Source\PSoC4/cyfitter_cfg.c **** CY_CFG_SECTION
 286:Generated_Source\PSoC4/cyfitter_cfg.c **** void cyfitter_cfg(void)
 287:Generated_Source\PSoC4/cyfitter_cfg.c **** {
 241              		.loc 1 287 0
 242              		.cfi_startproc
 243              		@ args = 0, pretend = 0, frame = 0
 244              		@ frame_needed = 0, uses_anonymous_args = 0
 245 0078 70B5     		push	{r4, r5, r6, lr}
 246              		.cfi_def_cfa_offset 16
 247              		.cfi_offset 4, -16
 248              		.cfi_offset 5, -12
 249              		.cfi_offset 6, -8
 250              		.cfi_offset 14, -4
 288:Generated_Source\PSoC4/cyfitter_cfg.c **** 	/* Disable interrupts by default. Let user enable if/when they want. */
 289:Generated_Source\PSoC4/cyfitter_cfg.c **** 	CyGlobalIntDisable;
 251              		.loc 1 289 0
 252              		.syntax divided
 253              	@ 289 "Generated_Source\PSoC4\cyfitter_cfg.c" 1
 254 007a 72B6     		CPSID   i
 255              	@ 0 "" 2
 256              	.LVL20:
 257              		.thumb
 258              		.syntax unified
 259              	.LBB3:
 290:Generated_Source\PSoC4/cyfitter_cfg.c **** 
 291:Generated_Source\PSoC4/cyfitter_cfg.c **** 	{
 292:Generated_Source\PSoC4/cyfitter_cfg.c **** 		static const uint32 CYCODE cy_cfg_addr_table[] = {
 293:Generated_Source\PSoC4/cyfitter_cfg.c **** 			0x400F0001u, /* Base address: 0x400F0000 Count: 1 */
 294:Generated_Source\PSoC4/cyfitter_cfg.c **** 			0x400F303Fu, /* Base address: 0x400F3000 Count: 63 */
 295:Generated_Source\PSoC4/cyfitter_cfg.c **** 			0x400F3128u, /* Base address: 0x400F3100 Count: 40 */
 296:Generated_Source\PSoC4/cyfitter_cfg.c **** 			0x400F3220u, /* Base address: 0x400F3200 Count: 32 */
 297:Generated_Source\PSoC4/cyfitter_cfg.c **** 			0x400F3336u, /* Base address: 0x400F3300 Count: 54 */
 298:Generated_Source\PSoC4/cyfitter_cfg.c **** 			0x400F4003u, /* Base address: 0x400F4000 Count: 3 */
 299:Generated_Source\PSoC4/cyfitter_cfg.c **** 			0x400F4201u, /* Base address: 0x400F4200 Count: 1 */
 300:Generated_Source\PSoC4/cyfitter_cfg.c **** 			0x400F4306u, /* Base address: 0x400F4300 Count: 6 */
 301:Generated_Source\PSoC4/cyfitter_cfg.c **** 			0x400F6002u, /* Base address: 0x400F6000 Count: 2 */
 302:Generated_Source\PSoC4/cyfitter_cfg.c **** 		};
ARM GAS  C:\Users\sur\AppData\Local\Temp\cc9NBdQH.s 			page 11


 303:Generated_Source\PSoC4/cyfitter_cfg.c **** 
 304:Generated_Source\PSoC4/cyfitter_cfg.c **** 		static const cy_cfg_addrvalue_t CYCODE cy_cfg_data_table[] = {
 305:Generated_Source\PSoC4/cyfitter_cfg.c **** 			{0x81u, 0x11u},
 306:Generated_Source\PSoC4/cyfitter_cfg.c **** 			{0x04u, 0x05u},
 307:Generated_Source\PSoC4/cyfitter_cfg.c **** 			{0x06u, 0x0Au},
 308:Generated_Source\PSoC4/cyfitter_cfg.c **** 			{0x0Cu, 0x0Eu},
 309:Generated_Source\PSoC4/cyfitter_cfg.c **** 			{0x1Cu, 0x03u},
 310:Generated_Source\PSoC4/cyfitter_cfg.c **** 			{0x1Eu, 0x04u},
 311:Generated_Source\PSoC4/cyfitter_cfg.c **** 			{0x28u, 0x04u},
 312:Generated_Source\PSoC4/cyfitter_cfg.c **** 			{0x2Au, 0x09u},
 313:Generated_Source\PSoC4/cyfitter_cfg.c **** 			{0x36u, 0x0Fu},
 314:Generated_Source\PSoC4/cyfitter_cfg.c **** 			{0x38u, 0x80u},
 315:Generated_Source\PSoC4/cyfitter_cfg.c **** 			{0x54u, 0x40u},
 316:Generated_Source\PSoC4/cyfitter_cfg.c **** 			{0x58u, 0x04u},
 317:Generated_Source\PSoC4/cyfitter_cfg.c **** 			{0x5Bu, 0x04u},
 318:Generated_Source\PSoC4/cyfitter_cfg.c **** 			{0x5Fu, 0x01u},
 319:Generated_Source\PSoC4/cyfitter_cfg.c **** 			{0x81u, 0x07u},
 320:Generated_Source\PSoC4/cyfitter_cfg.c **** 			{0x82u, 0x01u},
 321:Generated_Source\PSoC4/cyfitter_cfg.c **** 			{0x83u, 0x38u},
 322:Generated_Source\PSoC4/cyfitter_cfg.c **** 			{0x84u, 0x2Eu},
 323:Generated_Source\PSoC4/cyfitter_cfg.c **** 			{0x85u, 0x04u},
 324:Generated_Source\PSoC4/cyfitter_cfg.c **** 			{0x86u, 0x80u},
 325:Generated_Source\PSoC4/cyfitter_cfg.c **** 			{0x88u, 0x22u},
 326:Generated_Source\PSoC4/cyfitter_cfg.c **** 			{0x89u, 0x80u},
 327:Generated_Source\PSoC4/cyfitter_cfg.c **** 			{0x8Au, 0x4Cu},
 328:Generated_Source\PSoC4/cyfitter_cfg.c **** 			{0x8Bu, 0x04u},
 329:Generated_Source\PSoC4/cyfitter_cfg.c **** 			{0x8Cu, 0x20u},
 330:Generated_Source\PSoC4/cyfitter_cfg.c **** 			{0x8Du, 0x04u},
 331:Generated_Source\PSoC4/cyfitter_cfg.c **** 			{0x8Eu, 0xD0u},
 332:Generated_Source\PSoC4/cyfitter_cfg.c **** 			{0x8Fu, 0x80u},
 333:Generated_Source\PSoC4/cyfitter_cfg.c **** 			{0x90u, 0xD8u},
 334:Generated_Source\PSoC4/cyfitter_cfg.c **** 			{0x91u, 0x84u},
 335:Generated_Source\PSoC4/cyfitter_cfg.c **** 			{0x92u, 0x01u},
 336:Generated_Source\PSoC4/cyfitter_cfg.c **** 			{0x94u, 0xD1u},
 337:Generated_Source\PSoC4/cyfitter_cfg.c **** 			{0x95u, 0x84u},
 338:Generated_Source\PSoC4/cyfitter_cfg.c **** 			{0x96u, 0x08u},
 339:Generated_Source\PSoC4/cyfitter_cfg.c **** 			{0x98u, 0x02u},
 340:Generated_Source\PSoC4/cyfitter_cfg.c **** 			{0x99u, 0x56u},
 341:Generated_Source\PSoC4/cyfitter_cfg.c **** 			{0x9Au, 0x0Cu},
 342:Generated_Source\PSoC4/cyfitter_cfg.c **** 			{0x9Bu, 0x09u},
 343:Generated_Source\PSoC4/cyfitter_cfg.c **** 			{0x9Cu, 0x10u},
 344:Generated_Source\PSoC4/cyfitter_cfg.c **** 			{0x9Du, 0x01u},
 345:Generated_Source\PSoC4/cyfitter_cfg.c **** 			{0x9Eu, 0x26u},
 346:Generated_Source\PSoC4/cyfitter_cfg.c **** 			{0xA0u, 0xD9u},
 347:Generated_Source\PSoC4/cyfitter_cfg.c **** 			{0xA1u, 0x84u},
 348:Generated_Source\PSoC4/cyfitter_cfg.c **** 			{0xA5u, 0x0Au},
 349:Generated_Source\PSoC4/cyfitter_cfg.c **** 			{0xA7u, 0x10u},
 350:Generated_Source\PSoC4/cyfitter_cfg.c **** 			{0xA8u, 0xD9u},
 351:Generated_Source\PSoC4/cyfitter_cfg.c **** 			{0xACu, 0xD9u},
 352:Generated_Source\PSoC4/cyfitter_cfg.c **** 			{0xADu, 0x60u},
 353:Generated_Source\PSoC4/cyfitter_cfg.c **** 			{0xB1u, 0x7Fu},
 354:Generated_Source\PSoC4/cyfitter_cfg.c **** 			{0xB2u, 0x01u},
 355:Generated_Source\PSoC4/cyfitter_cfg.c **** 			{0xB3u, 0x80u},
 356:Generated_Source\PSoC4/cyfitter_cfg.c **** 			{0xB4u, 0x0Eu},
 357:Generated_Source\PSoC4/cyfitter_cfg.c **** 			{0xB6u, 0xF0u},
 358:Generated_Source\PSoC4/cyfitter_cfg.c **** 			{0xB7u, 0x80u},
 359:Generated_Source\PSoC4/cyfitter_cfg.c **** 			{0xB9u, 0x02u},
ARM GAS  C:\Users\sur\AppData\Local\Temp\cc9NBdQH.s 			page 12


 360:Generated_Source\PSoC4/cyfitter_cfg.c **** 			{0xBAu, 0xA0u},
 361:Generated_Source\PSoC4/cyfitter_cfg.c **** 			{0xBEu, 0x04u},
 362:Generated_Source\PSoC4/cyfitter_cfg.c **** 			{0xBFu, 0x44u},
 363:Generated_Source\PSoC4/cyfitter_cfg.c **** 			{0xD6u, 0x02u},
 364:Generated_Source\PSoC4/cyfitter_cfg.c **** 			{0xD7u, 0x24u},
 365:Generated_Source\PSoC4/cyfitter_cfg.c **** 			{0xD8u, 0x04u},
 366:Generated_Source\PSoC4/cyfitter_cfg.c **** 			{0xD9u, 0x04u},
 367:Generated_Source\PSoC4/cyfitter_cfg.c **** 			{0xDBu, 0x04u},
 368:Generated_Source\PSoC4/cyfitter_cfg.c **** 			{0xDFu, 0x01u},
 369:Generated_Source\PSoC4/cyfitter_cfg.c **** 			{0x01u, 0x80u},
 370:Generated_Source\PSoC4/cyfitter_cfg.c **** 			{0x03u, 0x20u},
 371:Generated_Source\PSoC4/cyfitter_cfg.c **** 			{0x05u, 0x50u},
 372:Generated_Source\PSoC4/cyfitter_cfg.c **** 			{0x06u, 0xC0u},
 373:Generated_Source\PSoC4/cyfitter_cfg.c **** 			{0x07u, 0x20u},
 374:Generated_Source\PSoC4/cyfitter_cfg.c **** 			{0x0Au, 0x01u},
 375:Generated_Source\PSoC4/cyfitter_cfg.c **** 			{0x0Eu, 0x55u},
 376:Generated_Source\PSoC4/cyfitter_cfg.c **** 			{0x13u, 0x20u},
 377:Generated_Source\PSoC4/cyfitter_cfg.c **** 			{0x15u, 0x01u},
 378:Generated_Source\PSoC4/cyfitter_cfg.c **** 			{0x16u, 0x02u},
 379:Generated_Source\PSoC4/cyfitter_cfg.c **** 			{0x17u, 0x10u},
 380:Generated_Source\PSoC4/cyfitter_cfg.c **** 			{0x19u, 0x80u},
 381:Generated_Source\PSoC4/cyfitter_cfg.c **** 			{0x1Cu, 0x10u},
 382:Generated_Source\PSoC4/cyfitter_cfg.c **** 			{0x1Du, 0x40u},
 383:Generated_Source\PSoC4/cyfitter_cfg.c **** 			{0x1Eu, 0x04u},
 384:Generated_Source\PSoC4/cyfitter_cfg.c **** 			{0x26u, 0x08u},
 385:Generated_Source\PSoC4/cyfitter_cfg.c **** 			{0x27u, 0x82u},
 386:Generated_Source\PSoC4/cyfitter_cfg.c **** 			{0x2Eu, 0x02u},
 387:Generated_Source\PSoC4/cyfitter_cfg.c **** 			{0x2Fu, 0x21u},
 388:Generated_Source\PSoC4/cyfitter_cfg.c **** 			{0x36u, 0x05u},
 389:Generated_Source\PSoC4/cyfitter_cfg.c **** 			{0x37u, 0xA0u},
 390:Generated_Source\PSoC4/cyfitter_cfg.c **** 			{0x3Eu, 0x55u},
 391:Generated_Source\PSoC4/cyfitter_cfg.c **** 			{0x60u, 0x10u},
 392:Generated_Source\PSoC4/cyfitter_cfg.c **** 			{0x62u, 0x50u},
 393:Generated_Source\PSoC4/cyfitter_cfg.c **** 			{0x67u, 0x08u},
 394:Generated_Source\PSoC4/cyfitter_cfg.c **** 			{0x6Du, 0x01u},
 395:Generated_Source\PSoC4/cyfitter_cfg.c **** 			{0x6Eu, 0x5Au},
 396:Generated_Source\PSoC4/cyfitter_cfg.c **** 			{0x6Fu, 0x51u},
 397:Generated_Source\PSoC4/cyfitter_cfg.c **** 			{0x76u, 0x02u},
 398:Generated_Source\PSoC4/cyfitter_cfg.c **** 			{0x87u, 0x80u},
 399:Generated_Source\PSoC4/cyfitter_cfg.c **** 			{0x89u, 0x80u},
 400:Generated_Source\PSoC4/cyfitter_cfg.c **** 			{0xC0u, 0xF5u},
 401:Generated_Source\PSoC4/cyfitter_cfg.c **** 			{0xC2u, 0xF1u},
 402:Generated_Source\PSoC4/cyfitter_cfg.c **** 			{0xC4u, 0xD2u},
 403:Generated_Source\PSoC4/cyfitter_cfg.c **** 			{0xCAu, 0xD0u},
 404:Generated_Source\PSoC4/cyfitter_cfg.c **** 			{0xCCu, 0xF0u},
 405:Generated_Source\PSoC4/cyfitter_cfg.c **** 			{0xCEu, 0xF0u},
 406:Generated_Source\PSoC4/cyfitter_cfg.c **** 			{0xD8u, 0x2Eu},
 407:Generated_Source\PSoC4/cyfitter_cfg.c **** 			{0xE0u, 0x02u},
 408:Generated_Source\PSoC4/cyfitter_cfg.c **** 			{0xE6u, 0x80u},
 409:Generated_Source\PSoC4/cyfitter_cfg.c **** 			{0x86u, 0x02u},
 410:Generated_Source\PSoC4/cyfitter_cfg.c **** 			{0x96u, 0x03u},
 411:Generated_Source\PSoC4/cyfitter_cfg.c **** 			{0x9Au, 0x03u},
 412:Generated_Source\PSoC4/cyfitter_cfg.c **** 			{0x9Cu, 0x01u},
 413:Generated_Source\PSoC4/cyfitter_cfg.c **** 			{0xB4u, 0x03u},
 414:Generated_Source\PSoC4/cyfitter_cfg.c **** 			{0xC0u, 0x23u},
 415:Generated_Source\PSoC4/cyfitter_cfg.c **** 			{0xC1u, 0x01u},
 416:Generated_Source\PSoC4/cyfitter_cfg.c **** 			{0xC2u, 0x60u},
ARM GAS  C:\Users\sur\AppData\Local\Temp\cc9NBdQH.s 			page 13


 417:Generated_Source\PSoC4/cyfitter_cfg.c **** 			{0xC7u, 0xB0u},
 418:Generated_Source\PSoC4/cyfitter_cfg.c **** 			{0xC8u, 0x20u},
 419:Generated_Source\PSoC4/cyfitter_cfg.c **** 			{0xC9u, 0x01u},
 420:Generated_Source\PSoC4/cyfitter_cfg.c **** 			{0xCAu, 0xFFu},
 421:Generated_Source\PSoC4/cyfitter_cfg.c **** 			{0xCBu, 0xFFu},
 422:Generated_Source\PSoC4/cyfitter_cfg.c **** 			{0xCCu, 0x23u},
 423:Generated_Source\PSoC4/cyfitter_cfg.c **** 			{0xCEu, 0x80u},
 424:Generated_Source\PSoC4/cyfitter_cfg.c **** 			{0xCFu, 0x08u},
 425:Generated_Source\PSoC4/cyfitter_cfg.c **** 			{0xD0u, 0x04u},
 426:Generated_Source\PSoC4/cyfitter_cfg.c **** 			{0xD8u, 0x04u},
 427:Generated_Source\PSoC4/cyfitter_cfg.c **** 			{0xDAu, 0x04u},
 428:Generated_Source\PSoC4/cyfitter_cfg.c **** 			{0xDFu, 0x01u},
 429:Generated_Source\PSoC4/cyfitter_cfg.c **** 			{0xE2u, 0xC0u},
 430:Generated_Source\PSoC4/cyfitter_cfg.c **** 			{0xE4u, 0x40u},
 431:Generated_Source\PSoC4/cyfitter_cfg.c **** 			{0xE5u, 0x01u},
 432:Generated_Source\PSoC4/cyfitter_cfg.c **** 			{0xE6u, 0x10u},
 433:Generated_Source\PSoC4/cyfitter_cfg.c **** 			{0xE7u, 0x11u},
 434:Generated_Source\PSoC4/cyfitter_cfg.c **** 			{0xE8u, 0xC0u},
 435:Generated_Source\PSoC4/cyfitter_cfg.c **** 			{0xE9u, 0x01u},
 436:Generated_Source\PSoC4/cyfitter_cfg.c **** 			{0xEBu, 0x11u},
 437:Generated_Source\PSoC4/cyfitter_cfg.c **** 			{0xECu, 0x40u},
 438:Generated_Source\PSoC4/cyfitter_cfg.c **** 			{0xEDu, 0x01u},
 439:Generated_Source\PSoC4/cyfitter_cfg.c **** 			{0xEEu, 0x40u},
 440:Generated_Source\PSoC4/cyfitter_cfg.c **** 			{0xEFu, 0x01u},
 441:Generated_Source\PSoC4/cyfitter_cfg.c **** 			{0x00u, 0x04u},
 442:Generated_Source\PSoC4/cyfitter_cfg.c **** 			{0x05u, 0x12u},
 443:Generated_Source\PSoC4/cyfitter_cfg.c **** 			{0x06u, 0x02u},
 444:Generated_Source\PSoC4/cyfitter_cfg.c **** 			{0x07u, 0x20u},
 445:Generated_Source\PSoC4/cyfitter_cfg.c **** 			{0x09u, 0xA8u},
 446:Generated_Source\PSoC4/cyfitter_cfg.c **** 			{0x0Eu, 0x16u},
 447:Generated_Source\PSoC4/cyfitter_cfg.c **** 			{0x17u, 0x51u},
 448:Generated_Source\PSoC4/cyfitter_cfg.c **** 			{0x18u, 0x04u},
 449:Generated_Source\PSoC4/cyfitter_cfg.c **** 			{0x1Du, 0xB0u},
 450:Generated_Source\PSoC4/cyfitter_cfg.c **** 			{0x1Eu, 0x43u},
 451:Generated_Source\PSoC4/cyfitter_cfg.c **** 			{0x1Fu, 0x20u},
 452:Generated_Source\PSoC4/cyfitter_cfg.c **** 			{0x24u, 0x08u},
 453:Generated_Source\PSoC4/cyfitter_cfg.c **** 			{0x25u, 0x48u},
 454:Generated_Source\PSoC4/cyfitter_cfg.c **** 			{0x27u, 0x28u},
 455:Generated_Source\PSoC4/cyfitter_cfg.c **** 			{0x2Fu, 0x20u},
 456:Generated_Source\PSoC4/cyfitter_cfg.c **** 			{0x35u, 0x02u},
 457:Generated_Source\PSoC4/cyfitter_cfg.c **** 			{0x37u, 0x28u},
 458:Generated_Source\PSoC4/cyfitter_cfg.c **** 			{0x38u, 0x08u},
 459:Generated_Source\PSoC4/cyfitter_cfg.c **** 			{0x3Bu, 0x08u},
 460:Generated_Source\PSoC4/cyfitter_cfg.c **** 			{0x3Eu, 0x01u},
 461:Generated_Source\PSoC4/cyfitter_cfg.c **** 			{0x41u, 0xA8u},
 462:Generated_Source\PSoC4/cyfitter_cfg.c **** 			{0x45u, 0xA8u},
 463:Generated_Source\PSoC4/cyfitter_cfg.c **** 			{0x4Au, 0x08u},
 464:Generated_Source\PSoC4/cyfitter_cfg.c **** 			{0x4Du, 0x0Au},
 465:Generated_Source\PSoC4/cyfitter_cfg.c **** 			{0x4Eu, 0x08u},
 466:Generated_Source\PSoC4/cyfitter_cfg.c **** 			{0x53u, 0x01u},
 467:Generated_Source\PSoC4/cyfitter_cfg.c **** 			{0x56u, 0x90u},
 468:Generated_Source\PSoC4/cyfitter_cfg.c **** 			{0x5Du, 0x18u},
 469:Generated_Source\PSoC4/cyfitter_cfg.c **** 			{0x5Eu, 0x40u},
 470:Generated_Source\PSoC4/cyfitter_cfg.c **** 			{0x5Fu, 0x02u},
 471:Generated_Source\PSoC4/cyfitter_cfg.c **** 			{0x64u, 0x01u},
 472:Generated_Source\PSoC4/cyfitter_cfg.c **** 			{0x88u, 0x01u},
 473:Generated_Source\PSoC4/cyfitter_cfg.c **** 			{0x89u, 0x52u},
ARM GAS  C:\Users\sur\AppData\Local\Temp\cc9NBdQH.s 			page 14


 474:Generated_Source\PSoC4/cyfitter_cfg.c **** 			{0x8Cu, 0x04u},
 475:Generated_Source\PSoC4/cyfitter_cfg.c **** 			{0x92u, 0x14u},
 476:Generated_Source\PSoC4/cyfitter_cfg.c **** 			{0x96u, 0x01u},
 477:Generated_Source\PSoC4/cyfitter_cfg.c **** 			{0x97u, 0x0Au},
 478:Generated_Source\PSoC4/cyfitter_cfg.c **** 			{0x9Au, 0x02u},
 479:Generated_Source\PSoC4/cyfitter_cfg.c **** 			{0x9Bu, 0x53u},
 480:Generated_Source\PSoC4/cyfitter_cfg.c **** 			{0x9Du, 0x10u},
 481:Generated_Source\PSoC4/cyfitter_cfg.c **** 			{0x9Eu, 0x90u},
 482:Generated_Source\PSoC4/cyfitter_cfg.c **** 			{0x9Fu, 0x20u},
 483:Generated_Source\PSoC4/cyfitter_cfg.c **** 			{0xA2u, 0x08u},
 484:Generated_Source\PSoC4/cyfitter_cfg.c **** 			{0xA7u, 0x20u},
 485:Generated_Source\PSoC4/cyfitter_cfg.c **** 			{0xC0u, 0xF4u},
 486:Generated_Source\PSoC4/cyfitter_cfg.c **** 			{0xC2u, 0xE7u},
 487:Generated_Source\PSoC4/cyfitter_cfg.c **** 			{0xC4u, 0xD0u},
 488:Generated_Source\PSoC4/cyfitter_cfg.c **** 			{0xCAu, 0x40u},
 489:Generated_Source\PSoC4/cyfitter_cfg.c **** 			{0xCCu, 0xE0u},
 490:Generated_Source\PSoC4/cyfitter_cfg.c **** 			{0xCEu, 0x80u},
 491:Generated_Source\PSoC4/cyfitter_cfg.c **** 			{0xD0u, 0x7Eu},
 492:Generated_Source\PSoC4/cyfitter_cfg.c **** 			{0xD2u, 0x24u},
 493:Generated_Source\PSoC4/cyfitter_cfg.c **** 			{0xD6u, 0xF0u},
 494:Generated_Source\PSoC4/cyfitter_cfg.c **** 			{0xD8u, 0x10u},
 495:Generated_Source\PSoC4/cyfitter_cfg.c **** 			{0x61u, 0x20u},
 496:Generated_Source\PSoC4/cyfitter_cfg.c **** 			{0x89u, 0x20u},
 497:Generated_Source\PSoC4/cyfitter_cfg.c **** 			{0xD8u, 0x40u},
 498:Generated_Source\PSoC4/cyfitter_cfg.c **** 			{0x87u, 0x01u},
 499:Generated_Source\PSoC4/cyfitter_cfg.c **** 			{0x5Bu, 0x01u},
 500:Generated_Source\PSoC4/cyfitter_cfg.c **** 			{0x5Fu, 0x08u},
 501:Generated_Source\PSoC4/cyfitter_cfg.c **** 			{0x8Fu, 0x08u},
 502:Generated_Source\PSoC4/cyfitter_cfg.c **** 			{0x9Bu, 0x01u},
 503:Generated_Source\PSoC4/cyfitter_cfg.c **** 			{0xD6u, 0x03u},
 504:Generated_Source\PSoC4/cyfitter_cfg.c **** 			{0xE4u, 0x02u},
 505:Generated_Source\PSoC4/cyfitter_cfg.c **** 			{0x01u, 0x01u},
 506:Generated_Source\PSoC4/cyfitter_cfg.c **** 			{0x10u, 0x01u},
 507:Generated_Source\PSoC4/cyfitter_cfg.c **** 		};
 508:Generated_Source\PSoC4/cyfitter_cfg.c **** 
 509:Generated_Source\PSoC4/cyfitter_cfg.c **** 
 510:Generated_Source\PSoC4/cyfitter_cfg.c **** 
 511:Generated_Source\PSoC4/cyfitter_cfg.c **** 		CYPACKED typedef struct {
 512:Generated_Source\PSoC4/cyfitter_cfg.c **** 			void CYFAR *address;
 513:Generated_Source\PSoC4/cyfitter_cfg.c **** 			uint16 size;
 514:Generated_Source\PSoC4/cyfitter_cfg.c **** 		} CYPACKED_ATTR cfg_memset_t;
 515:Generated_Source\PSoC4/cyfitter_cfg.c **** 
 516:Generated_Source\PSoC4/cyfitter_cfg.c **** 
 517:Generated_Source\PSoC4/cyfitter_cfg.c **** 		CYPACKED typedef struct {
 518:Generated_Source\PSoC4/cyfitter_cfg.c **** 			void CYFAR *dest;
 519:Generated_Source\PSoC4/cyfitter_cfg.c **** 			const void CYCODE *src;
 520:Generated_Source\PSoC4/cyfitter_cfg.c **** 			uint16 size;
 521:Generated_Source\PSoC4/cyfitter_cfg.c **** 		} CYPACKED_ATTR cfg_memcpy_t;
 522:Generated_Source\PSoC4/cyfitter_cfg.c **** 
 523:Generated_Source\PSoC4/cyfitter_cfg.c **** 		static const cfg_memset_t CYCODE cfg_memset_list[] = {
 524:Generated_Source\PSoC4/cyfitter_cfg.c **** 			/* address, size */
 525:Generated_Source\PSoC4/cyfitter_cfg.c **** 			{(void CYFAR *)(CYDEV_UDB_P0_U0_BASE), 512u},
 526:Generated_Source\PSoC4/cyfitter_cfg.c **** 			{(void CYFAR *)(CYDEV_UDB_P1_U1_BASE), 384u},
 527:Generated_Source\PSoC4/cyfitter_cfg.c **** 			{(void CYFAR *)(CYDEV_UDB_DSI0_BASE), 1024u},
 528:Generated_Source\PSoC4/cyfitter_cfg.c **** 		};
 529:Generated_Source\PSoC4/cyfitter_cfg.c **** 
 530:Generated_Source\PSoC4/cyfitter_cfg.c **** 		/* UDB_0_0_1_CONFIG Address: CYDEV_UDB_P1_U0_BASE Size (bytes): 128 */
ARM GAS  C:\Users\sur\AppData\Local\Temp\cc9NBdQH.s 			page 15


 531:Generated_Source\PSoC4/cyfitter_cfg.c **** 		static const uint8 CYCODE BS_UDB_0_0_1_CONFIG_VAL[] = {
 532:Generated_Source\PSoC4/cyfitter_cfg.c **** 			0x02u, 0x99u, 0x00u, 0x62u, 0x1Cu, 0x00u, 0x23u, 0x00u, 0x21u, 0x00u, 0x18u, 0x00u, 0x1Au, 0x00u
 533:Generated_Source\PSoC4/cyfitter_cfg.c **** 			0x00u, 0x04u, 0x00u, 0x00u, 0x02u, 0x10u, 0x18u, 0x68u, 0x18u, 0xCCu, 0x00u, 0x30u, 0x13u, 0x00u
 534:Generated_Source\PSoC4/cyfitter_cfg.c **** 			0x18u, 0x00u, 0x02u, 0x00u, 0x00u, 0xAEu, 0x00u, 0x51u, 0x18u, 0x00u, 0x02u, 0x00u, 0x1Au, 0x00u
 535:Generated_Source\PSoC4/cyfitter_cfg.c **** 			0x20u, 0x00u, 0x00u, 0x07u, 0x0Fu, 0x78u, 0x13u, 0x80u, 0x00u, 0x00u, 0x20u, 0x28u, 0x00u, 0x00u
 536:Generated_Source\PSoC4/cyfitter_cfg.c **** 			0x23u, 0x01u, 0x60u, 0x00u, 0x00u, 0xCEu, 0xFDu, 0x00u, 0x0Fu, 0xFFu, 0xFFu, 0xFFu, 0x02u, 0x00u
 537:Generated_Source\PSoC4/cyfitter_cfg.c **** 			0x04u, 0x00u, 0x00u, 0x00u, 0x09u, 0x00u, 0x00u, 0x00u, 0x04u, 0x04u, 0x04u, 0x04u, 0x00u, 0x00u
 538:Generated_Source\PSoC4/cyfitter_cfg.c **** 			0x00u, 0x00u, 0xC0u, 0x00u, 0x40u, 0x01u, 0x10u, 0x11u, 0xC0u, 0x01u, 0x00u, 0x11u, 0x40u, 0x01u
 539:Generated_Source\PSoC4/cyfitter_cfg.c **** 			0x00u, 0x00u, 0x00u, 0x00u, 0x00u, 0x00u, 0x00u, 0x00u, 0x00u, 0x00u, 0x00u, 0x00u, 0x00u, 0x00u
 540:Generated_Source\PSoC4/cyfitter_cfg.c **** 
 541:Generated_Source\PSoC4/cyfitter_cfg.c **** 		static const cfg_memcpy_t CYCODE cfg_memcpy_list [] = {
 542:Generated_Source\PSoC4/cyfitter_cfg.c **** 			/* dest, src, size */
 543:Generated_Source\PSoC4/cyfitter_cfg.c **** 			{(void CYFAR *)(CYDEV_UDB_P1_U0_BASE), BS_UDB_0_0_1_CONFIG_VAL, 128u},
 544:Generated_Source\PSoC4/cyfitter_cfg.c **** 		};
 545:Generated_Source\PSoC4/cyfitter_cfg.c **** 
 546:Generated_Source\PSoC4/cyfitter_cfg.c **** 		uint8 CYDATA i;
 547:Generated_Source\PSoC4/cyfitter_cfg.c **** 
 548:Generated_Source\PSoC4/cyfitter_cfg.c **** 		/* Zero out critical memory blocks before beginning configuration */
 549:Generated_Source\PSoC4/cyfitter_cfg.c **** 		for (i = 0u; i < (sizeof(cfg_memset_list)/sizeof(cfg_memset_list[0])); i++)
 260              		.loc 1 549 0
 261 007c 0024     		movs	r4, #0
 262 007e 0FE0     		b	.L12
 263              	.LVL21:
 264              	.L13:
 265              	.LBB4:
 550:Generated_Source\PSoC4/cyfitter_cfg.c **** 		{
 551:Generated_Source\PSoC4/cyfitter_cfg.c **** 			const cfg_memset_t CYCODE * CYDATA ms = &cfg_memset_list[i];
 552:Generated_Source\PSoC4/cyfitter_cfg.c **** 			CYMEMZERO(ms->address, (size_t)(uint32)(ms->size));
 266              		.loc 1 552 0 discriminator 3
 267 0080 3548     		ldr	r0, .L16
 268 0082 6200     		lsls	r2, r4, #1
 269 0084 1319     		adds	r3, r2, r4
 270 0086 5900     		lsls	r1, r3, #1
 271 0088 0B00     		movs	r3, r1
 272 008a 4118     		adds	r1, r0, r1
 273 008c 8988     		ldrh	r1, [r1, #4]
 274 008e 1A5A     		ldrh	r2, [r3, r0]
 275 0090 C318     		adds	r3, r0, r3
 276 0092 5888     		ldrh	r0, [r3, #2]
 277 0094 0004     		lsls	r0, r0, #16
 278 0096 1043     		orrs	r0, r2
 279 0098 FFF7FEFF 		bl	CYMEMZERO
 280              	.LVL22:
 281              	.LBE4:
 549:Generated_Source\PSoC4/cyfitter_cfg.c **** 		{
 282              		.loc 1 549 0 discriminator 3
 283 009c 0134     		adds	r4, r4, #1
 284              	.LVL23:
 285 009e E4B2     		uxtb	r4, r4
 286              	.LVL24:
 287              	.L12:
 549:Generated_Source\PSoC4/cyfitter_cfg.c **** 		{
 288              		.loc 1 549 0 is_stmt 0 discriminator 1
 289 00a0 022C     		cmp	r4, #2
 290 00a2 EDD9     		bls	.L13
 291 00a4 0024     		movs	r4, #0
 292              	.LVL25:
ARM GAS  C:\Users\sur\AppData\Local\Temp\cc9NBdQH.s 			page 16


 293 00a6 11E0     		b	.L14
 294              	.LVL26:
 295              	.L15:
 296              	.LBB5:
 553:Generated_Source\PSoC4/cyfitter_cfg.c **** 		}
 554:Generated_Source\PSoC4/cyfitter_cfg.c **** 
 555:Generated_Source\PSoC4/cyfitter_cfg.c **** 		/* Copy device configuration data into registers */
 556:Generated_Source\PSoC4/cyfitter_cfg.c **** 		for (i = 0u; i < (sizeof(cfg_memcpy_list)/sizeof(cfg_memcpy_list[0])); i++)
 557:Generated_Source\PSoC4/cyfitter_cfg.c **** 		{
 558:Generated_Source\PSoC4/cyfitter_cfg.c **** 			const cfg_memcpy_t CYCODE * CYDATA mc = &cfg_memcpy_list[i];
 559:Generated_Source\PSoC4/cyfitter_cfg.c **** 			void * CYDATA destPtr = mc->dest;
 297              		.loc 1 559 0 is_stmt 1 discriminator 3
 298 00a8 2B4E     		ldr	r6, .L16
 299 00aa A200     		lsls	r2, r4, #2
 300 00ac 1319     		adds	r3, r2, r4
 301 00ae 5900     		lsls	r1, r3, #1
 302 00b0 7118     		adds	r1, r6, r1
 303 00b2 8D8A     		ldrh	r5, [r1, #20]
 304 00b4 C88A     		ldrh	r0, [r1, #22]
 305 00b6 0004     		lsls	r0, r0, #16
 306 00b8 2843     		orrs	r0, r5
 307              	.LVL27:
 560:Generated_Source\PSoC4/cyfitter_cfg.c **** 			const void CYCODE * CYDATA srcPtr = mc->src;
 308              		.loc 1 560 0 discriminator 3
 309 00ba 0A8B     		ldrh	r2, [r1, #24]
 310 00bc 498B     		ldrh	r1, [r1, #26]
 311 00be 0904     		lsls	r1, r1, #16
 312 00c0 1143     		orrs	r1, r2
 313              	.LVL28:
 561:Generated_Source\PSoC4/cyfitter_cfg.c **** 			uint16 CYDATA numBytes = mc->size;
 562:Generated_Source\PSoC4/cyfitter_cfg.c **** 			CYCONFIGCPYCODE(destPtr, srcPtr, numBytes);
 314              		.loc 1 562 0 discriminator 3
 315 00c2 8022     		movs	r2, #128
 316 00c4 FFF7FEFF 		bl	CYCONFIGCPYCODE
 317              	.LVL29:
 318              	.LBE5:
 556:Generated_Source\PSoC4/cyfitter_cfg.c **** 		{
 319              		.loc 1 556 0 discriminator 3
 320 00c8 0134     		adds	r4, r4, #1
 321              	.LVL30:
 322 00ca E4B2     		uxtb	r4, r4
 323              	.LVL31:
 324              	.L14:
 556:Generated_Source\PSoC4/cyfitter_cfg.c **** 		{
 325              		.loc 1 556 0 is_stmt 0 discriminator 1
 326 00cc 002C     		cmp	r4, #0
 327 00ce EBD0     		beq	.L15
 563:Generated_Source\PSoC4/cyfitter_cfg.c **** 		}
 564:Generated_Source\PSoC4/cyfitter_cfg.c **** 
 565:Generated_Source\PSoC4/cyfitter_cfg.c **** 		cfg_write_bytes32(cy_cfg_addr_table, cy_cfg_data_table);
 328              		.loc 1 565 0 is_stmt 1
 329 00d0 2149     		ldr	r1, .L16
 330 00d2 2031     		adds	r1, r1, #32
 331 00d4 2148     		ldr	r0, .L16+4
 332 00d6 3430     		adds	r0, r0, #52
 333 00d8 FFF7FEFF 		bl	cfg_write_bytes32
 334              	.LVL32:
ARM GAS  C:\Users\sur\AppData\Local\Temp\cc9NBdQH.s 			page 17


 566:Generated_Source\PSoC4/cyfitter_cfg.c **** 
 567:Generated_Source\PSoC4/cyfitter_cfg.c **** 		/* HSIOM Starting address: CYDEV_HSIOM_BASE */
 568:Generated_Source\PSoC4/cyfitter_cfg.c **** 		CY_SET_REG32((void *)(CYDEV_HSIOM_BASE), 0x03000000u);
 335              		.loc 1 568 0
 336 00dc C022     		movs	r2, #192
 337 00de 9204     		lsls	r2, r2, #18
 338 00e0 1F4B     		ldr	r3, .L16+8
 339 00e2 1A60     		str	r2, [r3]
 569:Generated_Source\PSoC4/cyfitter_cfg.c **** 		CY_SET_REG32((void *)(CYREG_HSIOM_PORT_SEL3), 0x0303EE00u);
 340              		.loc 1 569 0
 341 00e4 1F4A     		ldr	r2, .L16+12
 342 00e6 204B     		ldr	r3, .L16+16
 343 00e8 1A60     		str	r2, [r3]
 570:Generated_Source\PSoC4/cyfitter_cfg.c **** 
 571:Generated_Source\PSoC4/cyfitter_cfg.c **** 		/* UDB_PA_0 Starting address: CYDEV_UDB_PA0_BASE */
 572:Generated_Source\PSoC4/cyfitter_cfg.c **** 		CY_SET_REG32((void *)(CYDEV_UDB_PA0_BASE), 0x00990000u);
 344              		.loc 1 572 0
 345 00ea 9923     		movs	r3, #153
 346 00ec 1B04     		lsls	r3, r3, #16
 347 00ee 1F4A     		ldr	r2, .L16+20
 348 00f0 1360     		str	r3, [r2]
 573:Generated_Source\PSoC4/cyfitter_cfg.c **** 		CY_SET_REG32((void *)(CYREG_UDB_PA0_CFG8), 0x20000000u);
 349              		.loc 1 573 0
 350 00f2 8021     		movs	r1, #128
 351 00f4 8905     		lsls	r1, r1, #22
 352 00f6 1E4A     		ldr	r2, .L16+24
 353 00f8 1160     		str	r1, [r2]
 574:Generated_Source\PSoC4/cyfitter_cfg.c **** 
 575:Generated_Source\PSoC4/cyfitter_cfg.c **** 		/* UDB_PA_1 Starting address: CYDEV_UDB_PA1_BASE */
 576:Generated_Source\PSoC4/cyfitter_cfg.c **** 		CY_SET_REG32((void *)(CYDEV_UDB_PA1_BASE), 0x00990000u);
 354              		.loc 1 576 0
 355 00fa 1E4A     		ldr	r2, .L16+28
 356 00fc 1360     		str	r3, [r2]
 577:Generated_Source\PSoC4/cyfitter_cfg.c **** 
 578:Generated_Source\PSoC4/cyfitter_cfg.c **** 		/* UDB_PA_2 Starting address: CYDEV_UDB_PA2_BASE */
 579:Generated_Source\PSoC4/cyfitter_cfg.c **** 		CY_SET_REG32((void *)(CYDEV_UDB_PA2_BASE), 0x00990000u);
 357              		.loc 1 579 0
 358 00fe 1E4A     		ldr	r2, .L16+32
 359 0100 1360     		str	r3, [r2]
 580:Generated_Source\PSoC4/cyfitter_cfg.c **** 
 581:Generated_Source\PSoC4/cyfitter_cfg.c **** 		/* UDB_PA_3 Starting address: CYDEV_UDB_PA3_BASE */
 582:Generated_Source\PSoC4/cyfitter_cfg.c **** 		CY_SET_REG32((void *)(CYDEV_UDB_PA3_BASE), 0x00990000u);
 360              		.loc 1 582 0
 361 0102 1E4A     		ldr	r2, .L16+36
 362 0104 1360     		str	r3, [r2]
 583:Generated_Source\PSoC4/cyfitter_cfg.c **** 		CY_SET_REG32((void *)(CYREG_UDB_PA3_CFG8), 0x98000000u);
 363              		.loc 1 583 0
 364 0106 9822     		movs	r2, #152
 365 0108 1206     		lsls	r2, r2, #24
 366 010a 1D4B     		ldr	r3, .L16+40
 367 010c 1A60     		str	r2, [r3]
 584:Generated_Source\PSoC4/cyfitter_cfg.c **** 
 585:Generated_Source\PSoC4/cyfitter_cfg.c **** 		/* Enable UDB array and digital routing */
 586:Generated_Source\PSoC4/cyfitter_cfg.c **** 		CY_SET_XTND_REG8((void *)CYREG_UDB_UDBIF_WAIT_CFG, (uint8)((CY_GET_XTND_REG8((void *)CYREG_UDB_UD
 368              		.loc 1 586 0
 369 010e 1D49     		ldr	r1, .L16+44
 370 0110 0B78     		ldrb	r3, [r1]
ARM GAS  C:\Users\sur\AppData\Local\Temp\cc9NBdQH.s 			page 18


 371 0112 3C22     		movs	r2, #60
 372 0114 9343     		bics	r3, r2
 373 0116 1422     		movs	r2, #20
 374 0118 1343     		orrs	r3, r2
 375 011a DBB2     		uxtb	r3, r3
 376 011c 0B70     		strb	r3, [r1]
 587:Generated_Source\PSoC4/cyfitter_cfg.c **** 		CY_SET_XTND_REG8((void *)CYREG_UDB_UDBIF_BANK_CTL, (uint8)(CY_GET_XTND_REG8((void *)CYREG_UDB_UDB
 377              		.loc 1 587 0
 378 011e 1A4A     		ldr	r2, .L16+48
 379 0120 1178     		ldrb	r1, [r2]
 380 0122 1623     		movs	r3, #22
 381 0124 0B43     		orrs	r3, r1
 382 0126 DBB2     		uxtb	r3, r3
 383 0128 1370     		strb	r3, [r2]
 384              	.LBE3:
 588:Generated_Source\PSoC4/cyfitter_cfg.c **** 	}
 589:Generated_Source\PSoC4/cyfitter_cfg.c **** 
 590:Generated_Source\PSoC4/cyfitter_cfg.c **** 	/* Perform second pass device configuration. These items must be configured in specific order afte
 591:Generated_Source\PSoC4/cyfitter_cfg.c **** 	/* IOPINS0_0 Starting address: CYDEV_PRT0_BASE */
 592:Generated_Source\PSoC4/cyfitter_cfg.c **** 	CY_SET_REG32((void *)(CYDEV_PRT0_BASE), 0x00000040u);
 385              		.loc 1 592 0
 386 012a 4022     		movs	r2, #64
 387 012c 174B     		ldr	r3, .L16+52
 388 012e 1A60     		str	r2, [r3]
 593:Generated_Source\PSoC4/cyfitter_cfg.c **** 	CY_SET_REG32((void *)(CYREG_PRT0_PC), 0x00380D81u);
 389              		.loc 1 593 0
 390 0130 174A     		ldr	r2, .L16+56
 391 0132 184B     		ldr	r3, .L16+60
 392 0134 1A60     		str	r2, [r3]
 594:Generated_Source\PSoC4/cyfitter_cfg.c **** 
 595:Generated_Source\PSoC4/cyfitter_cfg.c **** 	/* IOPINS0_1 Starting address: CYDEV_PRT1_BASE */
 596:Generated_Source\PSoC4/cyfitter_cfg.c **** 	CY_SET_REG32((void *)(CYREG_PRT1_PC), 0x00180000u);
 393              		.loc 1 596 0
 394 0136 C022     		movs	r2, #192
 395 0138 5203     		lsls	r2, r2, #13
 396 013a 174B     		ldr	r3, .L16+64
 397 013c 1A60     		str	r2, [r3]
 597:Generated_Source\PSoC4/cyfitter_cfg.c **** 
 598:Generated_Source\PSoC4/cyfitter_cfg.c **** 	/* IOPINS0_2 Starting address: CYDEV_PRT2_BASE */
 599:Generated_Source\PSoC4/cyfitter_cfg.c **** 	CY_SET_REG32((void *)(CYREG_PRT2_PC), 0x00040000u);
 398              		.loc 1 599 0
 399 013e 8022     		movs	r2, #128
 400 0140 D202     		lsls	r2, r2, #11
 401 0142 164B     		ldr	r3, .L16+68
 402 0144 1A60     		str	r2, [r3]
 600:Generated_Source\PSoC4/cyfitter_cfg.c **** 
 601:Generated_Source\PSoC4/cyfitter_cfg.c **** 	/* IOPINS0_3 Starting address: CYDEV_PRT3_BASE */
 602:Generated_Source\PSoC4/cyfitter_cfg.c **** 	CY_SET_REG32((void *)(CYDEV_PRT3_BASE), 0x00000050u);
 403              		.loc 1 602 0
 404 0146 5022     		movs	r2, #80
 405 0148 154B     		ldr	r3, .L16+72
 406 014a 1A60     		str	r2, [r3]
 603:Generated_Source\PSoC4/cyfitter_cfg.c **** 	CY_SET_REG32((void *)(CYREG_PRT3_PC), 0x0038EDB6u);
 407              		.loc 1 603 0
 408 014c 154A     		ldr	r2, .L16+76
 409 014e 164B     		ldr	r3, .L16+80
 410 0150 1A60     		str	r2, [r3]
ARM GAS  C:\Users\sur\AppData\Local\Temp\cc9NBdQH.s 			page 19


 604:Generated_Source\PSoC4/cyfitter_cfg.c **** 
 605:Generated_Source\PSoC4/cyfitter_cfg.c **** 
 606:Generated_Source\PSoC4/cyfitter_cfg.c **** 	/* Setup clocks based on selections from Clock DWR */
 607:Generated_Source\PSoC4/cyfitter_cfg.c **** 	ClockSetup();
 411              		.loc 1 607 0
 412 0152 FFF755FF 		bl	ClockSetup
 413              	.LVL33:
 608:Generated_Source\PSoC4/cyfitter_cfg.c **** 
 609:Generated_Source\PSoC4/cyfitter_cfg.c **** 	/* Perform basic analog initialization to defaults */
 610:Generated_Source\PSoC4/cyfitter_cfg.c **** 	AnalogSetDefault();
 611:Generated_Source\PSoC4/cyfitter_cfg.c **** 
 612:Generated_Source\PSoC4/cyfitter_cfg.c **** }
 414              		.loc 1 612 0
 415              		@ sp needed
 416              	.LVL34:
 417 0156 70BD     		pop	{r4, r5, r6, pc}
 418              	.L17:
 419              		.align	2
 420              	.L16:
 421 0158 00000000 		.word	.LANCHOR0
 422 015c 80010000 		.word	.LANCHOR1
 423 0160 00000140 		.word	1073807360
 424 0164 00EE0303 		.word	50589184
 425 0168 0C000140 		.word	1073807372
 426 016c 00500F40 		.word	1074745344
 427 0170 08500F40 		.word	1074745352
 428 0174 10500F40 		.word	1074745360
 429 0178 20500F40 		.word	1074745376
 430 017c 30500F40 		.word	1074745392
 431 0180 38500F40 		.word	1074745400
 432 0184 01700F40 		.word	1074753537
 433 0188 00700F40 		.word	1074753536
 434 018c 00000440 		.word	1074003968
 435 0190 810D3800 		.word	3673473
 436 0194 08000440 		.word	1074003976
 437 0198 08010440 		.word	1074004232
 438 019c 08020440 		.word	1074004488
 439 01a0 00030440 		.word	1074004736
 440 01a4 B6ED3800 		.word	3730870
 441 01a8 08030440 		.word	1074004744
 442              		.cfi_endproc
 443              	.LFE6:
 444              		.size	cyfitter_cfg, .-cyfitter_cfg
 445              		.section	.rodata
 446              		.align	2
 447              		.set	.LANCHOR0,. + 0
 448              		.set	.LANCHOR1,. + 384
 449              		.type	cfg_memset_list.4875, %object
 450              		.size	cfg_memset_list.4875, 18
 451              	cfg_memset_list.4875:
 452 0000 00300F40 		.word	1074737152
 453 0004 0002     		.short	512
 454 0006 80320F40 		.4byte	1074737792
 455 000a 8001     		.short	384
 456 000c 00400F40 		.word	1074741248
 457 0010 0004     		.short	1024
 458 0012 0000     		.space	2
ARM GAS  C:\Users\sur\AppData\Local\Temp\cc9NBdQH.s 			page 20


 459              		.type	cfg_memcpy_list.4877, %object
 460              		.size	cfg_memcpy_list.4877, 10
 461              	cfg_memcpy_list.4877:
 462 0014 00320F40 		.word	1074737664
 463 0018 D8010000 		.word	BS_UDB_0_0_1_CONFIG_VAL.4876
 464 001c 8000     		.short	128
 465 001e 0000     		.space	2
 466              		.type	cy_cfg_data_table.4865, %object
 467              		.size	cy_cfg_data_table.4865, 404
 468              	cy_cfg_data_table.4865:
 469 0020 81       		.byte	-127
 470 0021 11       		.byte	17
 471 0022 04       		.byte	4
 472 0023 05       		.byte	5
 473 0024 06       		.byte	6
 474 0025 0A       		.byte	10
 475 0026 0C       		.byte	12
 476 0027 0E       		.byte	14
 477 0028 1C       		.byte	28
 478 0029 03       		.byte	3
 479 002a 1E       		.byte	30
 480 002b 04       		.byte	4
 481 002c 28       		.byte	40
 482 002d 04       		.byte	4
 483 002e 2A       		.byte	42
 484 002f 09       		.byte	9
 485 0030 36       		.byte	54
 486 0031 0F       		.byte	15
 487 0032 38       		.byte	56
 488 0033 80       		.byte	-128
 489 0034 54       		.byte	84
 490 0035 40       		.byte	64
 491 0036 58       		.byte	88
 492 0037 04       		.byte	4
 493 0038 5B       		.byte	91
 494 0039 04       		.byte	4
 495 003a 5F       		.byte	95
 496 003b 01       		.byte	1
 497 003c 81       		.byte	-127
 498 003d 07       		.byte	7
 499 003e 82       		.byte	-126
 500 003f 01       		.byte	1
 501 0040 83       		.byte	-125
 502 0041 38       		.byte	56
 503 0042 84       		.byte	-124
 504 0043 2E       		.byte	46
 505 0044 85       		.byte	-123
 506 0045 04       		.byte	4
 507 0046 86       		.byte	-122
 508 0047 80       		.byte	-128
 509 0048 88       		.byte	-120
 510 0049 22       		.byte	34
 511 004a 89       		.byte	-119
 512 004b 80       		.byte	-128
 513 004c 8A       		.byte	-118
 514 004d 4C       		.byte	76
 515 004e 8B       		.byte	-117
ARM GAS  C:\Users\sur\AppData\Local\Temp\cc9NBdQH.s 			page 21


 516 004f 04       		.byte	4
 517 0050 8C       		.byte	-116
 518 0051 20       		.byte	32
 519 0052 8D       		.byte	-115
 520 0053 04       		.byte	4
 521 0054 8E       		.byte	-114
 522 0055 D0       		.byte	-48
 523 0056 8F       		.byte	-113
 524 0057 80       		.byte	-128
 525 0058 90       		.byte	-112
 526 0059 D8       		.byte	-40
 527 005a 91       		.byte	-111
 528 005b 84       		.byte	-124
 529 005c 92       		.byte	-110
 530 005d 01       		.byte	1
 531 005e 94       		.byte	-108
 532 005f D1       		.byte	-47
 533 0060 95       		.byte	-107
 534 0061 84       		.byte	-124
 535 0062 96       		.byte	-106
 536 0063 08       		.byte	8
 537 0064 98       		.byte	-104
 538 0065 02       		.byte	2
 539 0066 99       		.byte	-103
 540 0067 56       		.byte	86
 541 0068 9A       		.byte	-102
 542 0069 0C       		.byte	12
 543 006a 9B       		.byte	-101
 544 006b 09       		.byte	9
 545 006c 9C       		.byte	-100
 546 006d 10       		.byte	16
 547 006e 9D       		.byte	-99
 548 006f 01       		.byte	1
 549 0070 9E       		.byte	-98
 550 0071 26       		.byte	38
 551 0072 A0       		.byte	-96
 552 0073 D9       		.byte	-39
 553 0074 A1       		.byte	-95
 554 0075 84       		.byte	-124
 555 0076 A5       		.byte	-91
 556 0077 0A       		.byte	10
 557 0078 A7       		.byte	-89
 558 0079 10       		.byte	16
 559 007a A8       		.byte	-88
 560 007b D9       		.byte	-39
 561 007c AC       		.byte	-84
 562 007d D9       		.byte	-39
 563 007e AD       		.byte	-83
 564 007f 60       		.byte	96
 565 0080 B1       		.byte	-79
 566 0081 7F       		.byte	127
 567 0082 B2       		.byte	-78
 568 0083 01       		.byte	1
 569 0084 B3       		.byte	-77
 570 0085 80       		.byte	-128
 571 0086 B4       		.byte	-76
 572 0087 0E       		.byte	14
ARM GAS  C:\Users\sur\AppData\Local\Temp\cc9NBdQH.s 			page 22


 573 0088 B6       		.byte	-74
 574 0089 F0       		.byte	-16
 575 008a B7       		.byte	-73
 576 008b 80       		.byte	-128
 577 008c B9       		.byte	-71
 578 008d 02       		.byte	2
 579 008e BA       		.byte	-70
 580 008f A0       		.byte	-96
 581 0090 BE       		.byte	-66
 582 0091 04       		.byte	4
 583 0092 BF       		.byte	-65
 584 0093 44       		.byte	68
 585 0094 D6       		.byte	-42
 586 0095 02       		.byte	2
 587 0096 D7       		.byte	-41
 588 0097 24       		.byte	36
 589 0098 D8       		.byte	-40
 590 0099 04       		.byte	4
 591 009a D9       		.byte	-39
 592 009b 04       		.byte	4
 593 009c DB       		.byte	-37
 594 009d 04       		.byte	4
 595 009e DF       		.byte	-33
 596 009f 01       		.byte	1
 597 00a0 01       		.byte	1
 598 00a1 80       		.byte	-128
 599 00a2 03       		.byte	3
 600 00a3 20       		.byte	32
 601 00a4 05       		.byte	5
 602 00a5 50       		.byte	80
 603 00a6 06       		.byte	6
 604 00a7 C0       		.byte	-64
 605 00a8 07       		.byte	7
 606 00a9 20       		.byte	32
 607 00aa 0A       		.byte	10
 608 00ab 01       		.byte	1
 609 00ac 0E       		.byte	14
 610 00ad 55       		.byte	85
 611 00ae 13       		.byte	19
 612 00af 20       		.byte	32
 613 00b0 15       		.byte	21
 614 00b1 01       		.byte	1
 615 00b2 16       		.byte	22
 616 00b3 02       		.byte	2
 617 00b4 17       		.byte	23
 618 00b5 10       		.byte	16
 619 00b6 19       		.byte	25
 620 00b7 80       		.byte	-128
 621 00b8 1C       		.byte	28
 622 00b9 10       		.byte	16
 623 00ba 1D       		.byte	29
 624 00bb 40       		.byte	64
 625 00bc 1E       		.byte	30
 626 00bd 04       		.byte	4
 627 00be 26       		.byte	38
 628 00bf 08       		.byte	8
 629 00c0 27       		.byte	39
ARM GAS  C:\Users\sur\AppData\Local\Temp\cc9NBdQH.s 			page 23


 630 00c1 82       		.byte	-126
 631 00c2 2E       		.byte	46
 632 00c3 02       		.byte	2
 633 00c4 2F       		.byte	47
 634 00c5 21       		.byte	33
 635 00c6 36       		.byte	54
 636 00c7 05       		.byte	5
 637 00c8 37       		.byte	55
 638 00c9 A0       		.byte	-96
 639 00ca 3E       		.byte	62
 640 00cb 55       		.byte	85
 641 00cc 60       		.byte	96
 642 00cd 10       		.byte	16
 643 00ce 62       		.byte	98
 644 00cf 50       		.byte	80
 645 00d0 67       		.byte	103
 646 00d1 08       		.byte	8
 647 00d2 6D       		.byte	109
 648 00d3 01       		.byte	1
 649 00d4 6E       		.byte	110
 650 00d5 5A       		.byte	90
 651 00d6 6F       		.byte	111
 652 00d7 51       		.byte	81
 653 00d8 76       		.byte	118
 654 00d9 02       		.byte	2
 655 00da 87       		.byte	-121
 656 00db 80       		.byte	-128
 657 00dc 89       		.byte	-119
 658 00dd 80       		.byte	-128
 659 00de C0       		.byte	-64
 660 00df F5       		.byte	-11
 661 00e0 C2       		.byte	-62
 662 00e1 F1       		.byte	-15
 663 00e2 C4       		.byte	-60
 664 00e3 D2       		.byte	-46
 665 00e4 CA       		.byte	-54
 666 00e5 D0       		.byte	-48
 667 00e6 CC       		.byte	-52
 668 00e7 F0       		.byte	-16
 669 00e8 CE       		.byte	-50
 670 00e9 F0       		.byte	-16
 671 00ea D8       		.byte	-40
 672 00eb 2E       		.byte	46
 673 00ec E0       		.byte	-32
 674 00ed 02       		.byte	2
 675 00ee E6       		.byte	-26
 676 00ef 80       		.byte	-128
 677 00f0 86       		.byte	-122
 678 00f1 02       		.byte	2
 679 00f2 96       		.byte	-106
 680 00f3 03       		.byte	3
 681 00f4 9A       		.byte	-102
 682 00f5 03       		.byte	3
 683 00f6 9C       		.byte	-100
 684 00f7 01       		.byte	1
 685 00f8 B4       		.byte	-76
 686 00f9 03       		.byte	3
ARM GAS  C:\Users\sur\AppData\Local\Temp\cc9NBdQH.s 			page 24


 687 00fa C0       		.byte	-64
 688 00fb 23       		.byte	35
 689 00fc C1       		.byte	-63
 690 00fd 01       		.byte	1
 691 00fe C2       		.byte	-62
 692 00ff 60       		.byte	96
 693 0100 C7       		.byte	-57
 694 0101 B0       		.byte	-80
 695 0102 C8       		.byte	-56
 696 0103 20       		.byte	32
 697 0104 C9       		.byte	-55
 698 0105 01       		.byte	1
 699 0106 CA       		.byte	-54
 700 0107 FF       		.byte	-1
 701 0108 CB       		.byte	-53
 702 0109 FF       		.byte	-1
 703 010a CC       		.byte	-52
 704 010b 23       		.byte	35
 705 010c CE       		.byte	-50
 706 010d 80       		.byte	-128
 707 010e CF       		.byte	-49
 708 010f 08       		.byte	8
 709 0110 D0       		.byte	-48
 710 0111 04       		.byte	4
 711 0112 D8       		.byte	-40
 712 0113 04       		.byte	4
 713 0114 DA       		.byte	-38
 714 0115 04       		.byte	4
 715 0116 DF       		.byte	-33
 716 0117 01       		.byte	1
 717 0118 E2       		.byte	-30
 718 0119 C0       		.byte	-64
 719 011a E4       		.byte	-28
 720 011b 40       		.byte	64
 721 011c E5       		.byte	-27
 722 011d 01       		.byte	1
 723 011e E6       		.byte	-26
 724 011f 10       		.byte	16
 725 0120 E7       		.byte	-25
 726 0121 11       		.byte	17
 727 0122 E8       		.byte	-24
 728 0123 C0       		.byte	-64
 729 0124 E9       		.byte	-23
 730 0125 01       		.byte	1
 731 0126 EB       		.byte	-21
 732 0127 11       		.byte	17
 733 0128 EC       		.byte	-20
 734 0129 40       		.byte	64
 735 012a ED       		.byte	-19
 736 012b 01       		.byte	1
 737 012c EE       		.byte	-18
 738 012d 40       		.byte	64
 739 012e EF       		.byte	-17
 740 012f 01       		.byte	1
 741 0130 00       		.byte	0
 742 0131 04       		.byte	4
 743 0132 05       		.byte	5
ARM GAS  C:\Users\sur\AppData\Local\Temp\cc9NBdQH.s 			page 25


 744 0133 12       		.byte	18
 745 0134 06       		.byte	6
 746 0135 02       		.byte	2
 747 0136 07       		.byte	7
 748 0137 20       		.byte	32
 749 0138 09       		.byte	9
 750 0139 A8       		.byte	-88
 751 013a 0E       		.byte	14
 752 013b 16       		.byte	22
 753 013c 17       		.byte	23
 754 013d 51       		.byte	81
 755 013e 18       		.byte	24
 756 013f 04       		.byte	4
 757 0140 1D       		.byte	29
 758 0141 B0       		.byte	-80
 759 0142 1E       		.byte	30
 760 0143 43       		.byte	67
 761 0144 1F       		.byte	31
 762 0145 20       		.byte	32
 763 0146 24       		.byte	36
 764 0147 08       		.byte	8
 765 0148 25       		.byte	37
 766 0149 48       		.byte	72
 767 014a 27       		.byte	39
 768 014b 28       		.byte	40
 769 014c 2F       		.byte	47
 770 014d 20       		.byte	32
 771 014e 35       		.byte	53
 772 014f 02       		.byte	2
 773 0150 37       		.byte	55
 774 0151 28       		.byte	40
 775 0152 38       		.byte	56
 776 0153 08       		.byte	8
 777 0154 3B       		.byte	59
 778 0155 08       		.byte	8
 779 0156 3E       		.byte	62
 780 0157 01       		.byte	1
 781 0158 41       		.byte	65
 782 0159 A8       		.byte	-88
 783 015a 45       		.byte	69
 784 015b A8       		.byte	-88
 785 015c 4A       		.byte	74
 786 015d 08       		.byte	8
 787 015e 4D       		.byte	77
 788 015f 0A       		.byte	10
 789 0160 4E       		.byte	78
 790 0161 08       		.byte	8
 791 0162 53       		.byte	83
 792 0163 01       		.byte	1
 793 0164 56       		.byte	86
 794 0165 90       		.byte	-112
 795 0166 5D       		.byte	93
 796 0167 18       		.byte	24
 797 0168 5E       		.byte	94
 798 0169 40       		.byte	64
 799 016a 5F       		.byte	95
 800 016b 02       		.byte	2
ARM GAS  C:\Users\sur\AppData\Local\Temp\cc9NBdQH.s 			page 26


 801 016c 64       		.byte	100
 802 016d 01       		.byte	1
 803 016e 88       		.byte	-120
 804 016f 01       		.byte	1
 805 0170 89       		.byte	-119
 806 0171 52       		.byte	82
 807 0172 8C       		.byte	-116
 808 0173 04       		.byte	4
 809 0174 92       		.byte	-110
 810 0175 14       		.byte	20
 811 0176 96       		.byte	-106
 812 0177 01       		.byte	1
 813 0178 97       		.byte	-105
 814 0179 0A       		.byte	10
 815 017a 9A       		.byte	-102
 816 017b 02       		.byte	2
 817 017c 9B       		.byte	-101
 818 017d 53       		.byte	83
 819 017e 9D       		.byte	-99
 820 017f 10       		.byte	16
 821 0180 9E       		.byte	-98
 822 0181 90       		.byte	-112
 823 0182 9F       		.byte	-97
 824 0183 20       		.byte	32
 825 0184 A2       		.byte	-94
 826 0185 08       		.byte	8
 827 0186 A7       		.byte	-89
 828 0187 20       		.byte	32
 829 0188 C0       		.byte	-64
 830 0189 F4       		.byte	-12
 831 018a C2       		.byte	-62
 832 018b E7       		.byte	-25
 833 018c C4       		.byte	-60
 834 018d D0       		.byte	-48
 835 018e CA       		.byte	-54
 836 018f 40       		.byte	64
 837 0190 CC       		.byte	-52
 838 0191 E0       		.byte	-32
 839 0192 CE       		.byte	-50
 840 0193 80       		.byte	-128
 841 0194 D0       		.byte	-48
 842 0195 7E       		.byte	126
 843 0196 D2       		.byte	-46
 844 0197 24       		.byte	36
 845 0198 D6       		.byte	-42
 846 0199 F0       		.byte	-16
 847 019a D8       		.byte	-40
 848 019b 10       		.byte	16
 849 019c 61       		.byte	97
 850 019d 20       		.byte	32
 851 019e 89       		.byte	-119
 852 019f 20       		.byte	32
 853 01a0 D8       		.byte	-40
 854 01a1 40       		.byte	64
 855 01a2 87       		.byte	-121
 856 01a3 01       		.byte	1
 857 01a4 5B       		.byte	91
ARM GAS  C:\Users\sur\AppData\Local\Temp\cc9NBdQH.s 			page 27


 858 01a5 01       		.byte	1
 859 01a6 5F       		.byte	95
 860 01a7 08       		.byte	8
 861 01a8 8F       		.byte	-113
 862 01a9 08       		.byte	8
 863 01aa 9B       		.byte	-101
 864 01ab 01       		.byte	1
 865 01ac D6       		.byte	-42
 866 01ad 03       		.byte	3
 867 01ae E4       		.byte	-28
 868 01af 02       		.byte	2
 869 01b0 01       		.byte	1
 870 01b1 01       		.byte	1
 871 01b2 10       		.byte	16
 872 01b3 01       		.byte	1
 873              		.type	cy_cfg_addr_table.4864, %object
 874              		.size	cy_cfg_addr_table.4864, 36
 875              	cy_cfg_addr_table.4864:
 876 01b4 01000F40 		.word	1074724865
 877 01b8 3F300F40 		.word	1074737215
 878 01bc 28310F40 		.word	1074737448
 879 01c0 20320F40 		.word	1074737696
 880 01c4 36330F40 		.word	1074737974
 881 01c8 03400F40 		.word	1074741251
 882 01cc 01420F40 		.word	1074741761
 883 01d0 06430F40 		.word	1074742022
 884 01d4 02600F40 		.word	1074749442
 885              		.type	BS_UDB_0_0_1_CONFIG_VAL.4876, %object
 886              		.size	BS_UDB_0_0_1_CONFIG_VAL.4876, 128
 887              	BS_UDB_0_0_1_CONFIG_VAL.4876:
 888 01d8 02       		.byte	2
 889 01d9 99       		.byte	-103
 890 01da 00       		.byte	0
 891 01db 62       		.byte	98
 892 01dc 1C       		.byte	28
 893 01dd 00       		.byte	0
 894 01de 23       		.byte	35
 895 01df 00       		.byte	0
 896 01e0 21       		.byte	33
 897 01e1 00       		.byte	0
 898 01e2 18       		.byte	24
 899 01e3 00       		.byte	0
 900 01e4 1A       		.byte	26
 901 01e5 00       		.byte	0
 902 01e6 00       		.byte	0
 903 01e7 00       		.byte	0
 904 01e8 00       		.byte	0
 905 01e9 04       		.byte	4
 906 01ea 00       		.byte	0
 907 01eb 00       		.byte	0
 908 01ec 02       		.byte	2
 909 01ed 10       		.byte	16
 910 01ee 18       		.byte	24
 911 01ef 68       		.byte	104
 912 01f0 18       		.byte	24
 913 01f1 CC       		.byte	-52
 914 01f2 00       		.byte	0
ARM GAS  C:\Users\sur\AppData\Local\Temp\cc9NBdQH.s 			page 28


 915 01f3 30       		.byte	48
 916 01f4 13       		.byte	19
 917 01f5 00       		.byte	0
 918 01f6 24       		.byte	36
 919 01f7 00       		.byte	0
 920 01f8 18       		.byte	24
 921 01f9 00       		.byte	0
 922 01fa 02       		.byte	2
 923 01fb 00       		.byte	0
 924 01fc 00       		.byte	0
 925 01fd AE       		.byte	-82
 926 01fe 00       		.byte	0
 927 01ff 51       		.byte	81
 928 0200 18       		.byte	24
 929 0201 00       		.byte	0
 930 0202 02       		.byte	2
 931 0203 00       		.byte	0
 932 0204 1A       		.byte	26
 933 0205 00       		.byte	0
 934 0206 00       		.byte	0
 935 0207 00       		.byte	0
 936 0208 20       		.byte	32
 937 0209 00       		.byte	0
 938 020a 00       		.byte	0
 939 020b 07       		.byte	7
 940 020c 0F       		.byte	15
 941 020d 78       		.byte	120
 942 020e 13       		.byte	19
 943 020f 80       		.byte	-128
 944 0210 00       		.byte	0
 945 0211 00       		.byte	0
 946 0212 20       		.byte	32
 947 0213 28       		.byte	40
 948 0214 00       		.byte	0
 949 0215 00       		.byte	0
 950 0216 01       		.byte	1
 951 0217 40       		.byte	64
 952 0218 23       		.byte	35
 953 0219 01       		.byte	1
 954 021a 60       		.byte	96
 955 021b 00       		.byte	0
 956 021c 00       		.byte	0
 957 021d CE       		.byte	-50
 958 021e FD       		.byte	-3
 959 021f 00       		.byte	0
 960 0220 0F       		.byte	15
 961 0221 FF       		.byte	-1
 962 0222 FF       		.byte	-1
 963 0223 FF       		.byte	-1
 964 0224 02       		.byte	2
 965 0225 00       		.byte	0
 966 0226 70       		.byte	112
 967 0227 08       		.byte	8
 968 0228 04       		.byte	4
 969 0229 00       		.byte	0
 970 022a 00       		.byte	0
 971 022b 00       		.byte	0
ARM GAS  C:\Users\sur\AppData\Local\Temp\cc9NBdQH.s 			page 29


 972 022c 09       		.byte	9
 973 022d 00       		.byte	0
 974 022e 00       		.byte	0
 975 022f 00       		.byte	0
 976 0230 04       		.byte	4
 977 0231 04       		.byte	4
 978 0232 04       		.byte	4
 979 0233 04       		.byte	4
 980 0234 00       		.byte	0
 981 0235 00       		.byte	0
 982 0236 00       		.byte	0
 983 0237 01       		.byte	1
 984 0238 00       		.byte	0
 985 0239 00       		.byte	0
 986 023a C0       		.byte	-64
 987 023b 00       		.byte	0
 988 023c 40       		.byte	64
 989 023d 01       		.byte	1
 990 023e 10       		.byte	16
 991 023f 11       		.byte	17
 992 0240 C0       		.byte	-64
 993 0241 01       		.byte	1
 994 0242 00       		.byte	0
 995 0243 11       		.byte	17
 996 0244 40       		.byte	64
 997 0245 01       		.byte	1
 998 0246 40       		.byte	64
 999 0247 01       		.byte	1
 1000 0248 00       		.byte	0
 1001 0249 00       		.byte	0
 1002 024a 00       		.byte	0
 1003 024b 00       		.byte	0
 1004 024c 00       		.byte	0
 1005 024d 00       		.byte	0
 1006 024e 00       		.byte	0
 1007 024f 00       		.byte	0
 1008 0250 00       		.byte	0
 1009 0251 00       		.byte	0
 1010 0252 00       		.byte	0
 1011 0253 00       		.byte	0
 1012 0254 00       		.byte	0
 1013 0255 00       		.byte	0
 1014 0256 00       		.byte	0
 1015 0257 00       		.byte	0
 1016              		.text
 1017              	.Letext0:
 1018              		.file 2 "c:\\program files (x86)\\cypress\\psoc creator\\4.2\\psoc creator\\import\\gnu\\arm\\5.4.
 1019              		.file 3 "Generated_Source\\PSoC4\\cytypes.h"
 1020              		.file 4 "Generated_Source\\PSoC4\\CyLib.h"