ARM GAS  C:\Users\sur\AppData\Local\Temp\ccADm5l6.s 			page 1


   1              		.syntax unified
   2              		.cpu cortex-m0
   3              		.fpu softvfp
   4              		.eabi_attribute 20, 1
   5              		.eabi_attribute 21, 1
   6              		.eabi_attribute 23, 3
   7              		.eabi_attribute 24, 1
   8              		.eabi_attribute 25, 1
   9              		.eabi_attribute 26, 1
  10              		.eabi_attribute 30, 1
  11              		.eabi_attribute 34, 0
  12              		.eabi_attribute 18, 4
  13              		.thumb
  14              		.syntax unified
  15              		.file	"GLCD_1.c"
  16              		.text
  17              	.Ltext0:
  18              		.cfi_sections	.debug_frame
  19              		.section	.text.GLCD_1_Command,"ax",%progbits
  20              		.align	2
  21              		.global	GLCD_1_Command
  22              		.code	16
  23              		.thumb_func
  24              		.type	GLCD_1_Command, %function
  25              	GLCD_1_Command:
  26              	.LFB0:
  27              		.file 1 "Generated_Source\\PSoC4\\GLCD_1.c"
   1:Generated_Source\PSoC4/GLCD_1.c **** /*******************************************************************************
   2:Generated_Source\PSoC4/GLCD_1.c **** * File Name: GLCD_1.c  
   3:Generated_Source\PSoC4/GLCD_1.c **** * Version 0.3
   4:Generated_Source\PSoC4/GLCD_1.c **** *
   5:Generated_Source\PSoC4/GLCD_1.c **** *  Description:
   6:Generated_Source\PSoC4/GLCD_1.c **** *    This file contains all the API for the SparkFun Color Graphics
   7:Generated_Source\PSoC4/GLCD_1.c **** *    Arduino Shield board which uses a Nokia 6100 LCD.
   8:Generated_Source\PSoC4/GLCD_1.c **** *
   9:Generated_Source\PSoC4/GLCD_1.c **** * Note:  This code has been tested with the Philips PCF8833 controller, but not
  10:Generated_Source\PSoC4/GLCD_1.c **** *        the EPSON S115D10 controller as of release 0.3.
  11:Generated_Source\PSoC4/GLCD_1.c **** *
  12:Generated_Source\PSoC4/GLCD_1.c **** *        Code has been optimized for a 32-bit processor such as the Cortex
  13:Generated_Source\PSoC4/GLCD_1.c **** *        M0 or M3.
  14:Generated_Source\PSoC4/GLCD_1.c **** *******************************************************************************
  15:Generated_Source\PSoC4/GLCD_1.c **** * The following firmware was developed by Cypress Semiconductor
  16:Generated_Source\PSoC4/GLCD_1.c **** * This work is licensed under a Creative Commons Attribution 3.0 Unported License.
  17:Generated_Source\PSoC4/GLCD_1.c **** *
  18:Generated_Source\PSoC4/GLCD_1.c **** * http://creativecommons.org/licenses/by/3.0/deed.en_US
  19:Generated_Source\PSoC4/GLCD_1.c **** * 
  20:Generated_Source\PSoC4/GLCD_1.c **** * You are free to:
  21:Generated_Source\PSoC4/GLCD_1.c **** * -To Share — to copy, distribute and transmit the work 
  22:Generated_Source\PSoC4/GLCD_1.c **** * -To Remix — to adapt the work 
  23:Generated_Source\PSoC4/GLCD_1.c **** * -To make commercial use of the work
  24:Generated_Source\PSoC4/GLCD_1.c **** *
  25:Generated_Source\PSoC4/GLCD_1.c **** * Much of this code was ported from the LCD_driver code by Mark Sproul
  26:Generated_Source\PSoC4/GLCD_1.c **** * and Peter DavenPort.  Also the tutorial by James P. Lynch
  27:Generated_Source\PSoC4/GLCD_1.c **** * on how the controller works was invaluable.
  28:Generated_Source\PSoC4/GLCD_1.c **** ********************************************************************************/
  29:Generated_Source\PSoC4/GLCD_1.c **** #include "cytypes.h"
  30:Generated_Source\PSoC4/GLCD_1.c **** #include "GLCD_1.h"
ARM GAS  C:\Users\sur\AppData\Local\Temp\ccADm5l6.s 			page 2


  31:Generated_Source\PSoC4/GLCD_1.c **** #include "GLCD_1_SPIM_UDB.h"
  32:Generated_Source\PSoC4/GLCD_1.c **** #include "GLCD_1_Reset.h"
  33:Generated_Source\PSoC4/GLCD_1.c **** #include "cyfitter.h"
  34:Generated_Source\PSoC4/GLCD_1.c **** 
  35:Generated_Source\PSoC4/GLCD_1.c **** #if (GLCD_1_SPIM_TYPE == GLCD_1_SPIM_SCB_TYPE)
  36:Generated_Source\PSoC4/GLCD_1.c **** #include "GLCD_1_SPIM_UDB_SPI_UART.h"
  37:Generated_Source\PSoC4/GLCD_1.c **** #endif
  38:Generated_Source\PSoC4/GLCD_1.c **** 
  39:Generated_Source\PSoC4/GLCD_1.c **** uint8 GLCD_1_driver;
  40:Generated_Source\PSoC4/GLCD_1.c **** 				
  41:Generated_Source\PSoC4/GLCD_1.c **** static int32 GLCD_1_x_offset = 0;
  42:Generated_Source\PSoC4/GLCD_1.c **** static int32 GLCD_1_y_offset = 0;
  43:Generated_Source\PSoC4/GLCD_1.c **** 
  44:Generated_Source\PSoC4/GLCD_1.c **** /*******************************************************************************
  45:Generated_Source\PSoC4/GLCD_1.c **** * Function Name: GLCD_1_Command
  46:Generated_Source\PSoC4/GLCD_1.c **** ********************************************************************************
  47:Generated_Source\PSoC4/GLCD_1.c **** *
  48:Generated_Source\PSoC4/GLCD_1.c **** * Summary:
  49:Generated_Source\PSoC4/GLCD_1.c **** *  This function sends a command to the LCD controller.  
  50:Generated_Source\PSoC4/GLCD_1.c **** *
  51:Generated_Source\PSoC4/GLCD_1.c **** * Parameters:  
  52:Generated_Source\PSoC4/GLCD_1.c **** *  cmdData:  This is the command to be sent to the LCD controller  
  53:Generated_Source\PSoC4/GLCD_1.c **** *
  54:Generated_Source\PSoC4/GLCD_1.c **** * Return: 
  55:Generated_Source\PSoC4/GLCD_1.c **** *  None 
  56:Generated_Source\PSoC4/GLCD_1.c **** *  
  57:Generated_Source\PSoC4/GLCD_1.c **** *******************************************************************************/
  58:Generated_Source\PSoC4/GLCD_1.c **** void GLCD_1_Command(uint32 cmdData)
  59:Generated_Source\PSoC4/GLCD_1.c **** {
  28              		.loc 1 59 0
  29              		.cfi_startproc
  30              		@ args = 0, pretend = 0, frame = 0
  31              		@ frame_needed = 0, uses_anonymous_args = 0
  32              	.LVL0:
  33 0000 10B5     		push	{r4, lr}
  34              		.cfi_def_cfa_offset 8
  35              		.cfi_offset 4, -8
  36              		.cfi_offset 14, -4
  37 0002 0400     		movs	r4, r0
  38              	.LVL1:
  39              	.L2:
  60:Generated_Source\PSoC4/GLCD_1.c **** #if (GLCD_1_SPIM_TYPE == GLCD_1_SPIM_UDB_TYPE)
  61:Generated_Source\PSoC4/GLCD_1.c ****   while((GLCD_1_SPIM_UDB_ReadTxStatus() & (GLCD_1_SPIM_UDB_STS_SPI_DONE | GLCD_1_SPIM_UDB_STS_SPI_I
  40              		.loc 1 61 0 discriminator 1
  41 0004 FFF7FEFF 		bl	GLCD_1_SPIM_UDB_ReadTxStatus
  42              	.LVL2:
  43 0008 1123     		movs	r3, #17
  44 000a 0342     		tst	r3, r0
  45 000c FAD0     		beq	.L2
  62:Generated_Source\PSoC4/GLCD_1.c ****   GLCD_1_SPIM_UDB_WriteTxData((uint16)cmdData);
  46              		.loc 1 62 0
  47 000e A0B2     		uxth	r0, r4
  48 0010 FFF7FEFF 		bl	GLCD_1_SPIM_UDB_WriteTxData
  49              	.LVL3:
  63:Generated_Source\PSoC4/GLCD_1.c **** #endif
  64:Generated_Source\PSoC4/GLCD_1.c **** 
  65:Generated_Source\PSoC4/GLCD_1.c **** #if (GLCD_1_SPIM_TYPE == GLCD_1_SPIM_SCB_TYPE)
ARM GAS  C:\Users\sur\AppData\Local\Temp\ccADm5l6.s 			page 3


  66:Generated_Source\PSoC4/GLCD_1.c ****     GLCD_1_SPIM_UDB_SpiUartWriteTxData(cmdData);
  67:Generated_Source\PSoC4/GLCD_1.c **** #endif
  68:Generated_Source\PSoC4/GLCD_1.c **** }
  50              		.loc 1 68 0
  51              		@ sp needed
  52              	.LVL4:
  53 0014 10BD     		pop	{r4, pc}
  54              		.cfi_endproc
  55              	.LFE0:
  56              		.size	GLCD_1_Command, .-GLCD_1_Command
  57 0016 C046     		.section	.text.GLCD_1_Data,"ax",%progbits
  58              		.align	2
  59              		.global	GLCD_1_Data
  60              		.code	16
  61              		.thumb_func
  62              		.type	GLCD_1_Data, %function
  63              	GLCD_1_Data:
  64              	.LFB1:
  69:Generated_Source\PSoC4/GLCD_1.c **** 
  70:Generated_Source\PSoC4/GLCD_1.c **** /*******************************************************************************
  71:Generated_Source\PSoC4/GLCD_1.c **** * Function Name: GLCD_1_Data
  72:Generated_Source\PSoC4/GLCD_1.c **** ********************************************************************************
  73:Generated_Source\PSoC4/GLCD_1.c **** *
  74:Generated_Source\PSoC4/GLCD_1.c **** * Summary:
  75:Generated_Source\PSoC4/GLCD_1.c **** *  This function sends raw data to the controller.  The 9th bit is set to signal
  76:Generated_Source\PSoC4/GLCD_1.c **** *  the controller that it information is data and not a command.
  77:Generated_Source\PSoC4/GLCD_1.c **** *
  78:Generated_Source\PSoC4/GLCD_1.c **** * Parameters:  
  79:Generated_Source\PSoC4/GLCD_1.c **** *  rawData:  The data to be sent to the controller. 
  80:Generated_Source\PSoC4/GLCD_1.c **** *
  81:Generated_Source\PSoC4/GLCD_1.c **** * Return: 
  82:Generated_Source\PSoC4/GLCD_1.c **** *  None 
  83:Generated_Source\PSoC4/GLCD_1.c **** *  
  84:Generated_Source\PSoC4/GLCD_1.c **** *******************************************************************************/
  85:Generated_Source\PSoC4/GLCD_1.c **** void GLCD_1_Data(uint32 rawData)
  86:Generated_Source\PSoC4/GLCD_1.c **** {	
  65              		.loc 1 86 0
  66              		.cfi_startproc
  67              		@ args = 0, pretend = 0, frame = 0
  68              		@ frame_needed = 0, uses_anonymous_args = 0
  69              	.LVL5:
  70 0000 10B5     		push	{r4, lr}
  71              		.cfi_def_cfa_offset 8
  72              		.cfi_offset 4, -8
  73              		.cfi_offset 14, -4
  87:Generated_Source\PSoC4/GLCD_1.c **** #if (GLCD_1_SPIM_TYPE == GLCD_1_SPIM_UDB_TYPE)
  88:Generated_Source\PSoC4/GLCD_1.c ****     uint16 data16;
  89:Generated_Source\PSoC4/GLCD_1.c ****     data16 = (uint16)rawData | 0x0100;
  74              		.loc 1 89 0
  75 0002 8024     		movs	r4, #128
  76 0004 6400     		lsls	r4, r4, #1
  77 0006 2043     		orrs	r0, r4
  78              	.LVL6:
  79 0008 84B2     		uxth	r4, r0
  80              	.LVL7:
  81              	.L4:
  90:Generated_Source\PSoC4/GLCD_1.c **** 	
ARM GAS  C:\Users\sur\AppData\Local\Temp\ccADm5l6.s 			page 4


  91:Generated_Source\PSoC4/GLCD_1.c ****     while((GLCD_1_SPIM_UDB_ReadTxStatus() & (GLCD_1_SPIM_UDB_STS_SPI_DONE | GLCD_1_SPIM_UDB_STS_SPI
  82              		.loc 1 91 0 discriminator 1
  83 000a FFF7FEFF 		bl	GLCD_1_SPIM_UDB_ReadTxStatus
  84              	.LVL8:
  85 000e 1123     		movs	r3, #17
  86 0010 0342     		tst	r3, r0
  87 0012 FAD0     		beq	.L4
  92:Generated_Source\PSoC4/GLCD_1.c ****     GLCD_1_SPIM_UDB_WriteTxData(data16);
  88              		.loc 1 92 0
  89 0014 2000     		movs	r0, r4
  90 0016 FFF7FEFF 		bl	GLCD_1_SPIM_UDB_WriteTxData
  91              	.LVL9:
  93:Generated_Source\PSoC4/GLCD_1.c **** #endif
  94:Generated_Source\PSoC4/GLCD_1.c **** 
  95:Generated_Source\PSoC4/GLCD_1.c **** #if (GLCD_1_SPIM_TYPE == GLCD_1_SPIM_SCB_TYPE)
  96:Generated_Source\PSoC4/GLCD_1.c **** 
  97:Generated_Source\PSoC4/GLCD_1.c ****     rawData = rawData | 0x00000100;
  98:Generated_Source\PSoC4/GLCD_1.c ****     GLCD_1_SPIM_UDB_SpiUartWriteTxData(rawData);
  99:Generated_Source\PSoC4/GLCD_1.c **** #endif
 100:Generated_Source\PSoC4/GLCD_1.c **** 
 101:Generated_Source\PSoC4/GLCD_1.c **** }
  92              		.loc 1 101 0
  93              		@ sp needed
  94              	.LVL10:
  95 001a 10BD     		pop	{r4, pc}
  96              		.cfi_endproc
  97              	.LFE1:
  98              		.size	GLCD_1_Data, .-GLCD_1_Data
  99              		.section	.text.GLCD_1_Clear,"ax",%progbits
 100              		.align	2
 101              		.global	GLCD_1_Clear
 102              		.code	16
 103              		.thumb_func
 104              		.type	GLCD_1_Clear, %function
 105              	GLCD_1_Clear:
 106              	.LFB4:
 102:Generated_Source\PSoC4/GLCD_1.c **** 
 103:Generated_Source\PSoC4/GLCD_1.c **** /*******************************************************************************
 104:Generated_Source\PSoC4/GLCD_1.c **** * Function Name: GLCD_1_Start
 105:Generated_Source\PSoC4/GLCD_1.c **** ********************************************************************************
 106:Generated_Source\PSoC4/GLCD_1.c **** *
 107:Generated_Source\PSoC4/GLCD_1.c **** * Summary:
 108:Generated_Source\PSoC4/GLCD_1.c **** *  This function initializes the SPI interface and the LCD controller.  
 109:Generated_Source\PSoC4/GLCD_1.c **** *
 110:Generated_Source\PSoC4/GLCD_1.c **** * Parameters:  
 111:Generated_Source\PSoC4/GLCD_1.c **** *  None:   
 112:Generated_Source\PSoC4/GLCD_1.c **** *
 113:Generated_Source\PSoC4/GLCD_1.c **** * Return: 
 114:Generated_Source\PSoC4/GLCD_1.c **** *  None 
 115:Generated_Source\PSoC4/GLCD_1.c **** *  
 116:Generated_Source\PSoC4/GLCD_1.c **** *******************************************************************************/
 117:Generated_Source\PSoC4/GLCD_1.c **** void GLCD_1_Start(void)
 118:Generated_Source\PSoC4/GLCD_1.c **** {
 119:Generated_Source\PSoC4/GLCD_1.c **** 	
 120:Generated_Source\PSoC4/GLCD_1.c **** 	GLCD_1_SPIM_UDB_Start();
 121:Generated_Source\PSoC4/GLCD_1.c **** #if (GLCD_1_SPIM_TYPE == GLCD_1_SPIM_SCB_TYPE)
 122:Generated_Source\PSoC4/GLCD_1.c ****     GLCD_1_SPIM_UDB_SpiSetActiveSlaveSelect(3u);
ARM GAS  C:\Users\sur\AppData\Local\Temp\ccADm5l6.s 			page 5


 123:Generated_Source\PSoC4/GLCD_1.c **** #endif
 124:Generated_Source\PSoC4/GLCD_1.c **** 
 125:Generated_Source\PSoC4/GLCD_1.c **** 	CyDelayUs(20);			            /* 20us delay    */
 126:Generated_Source\PSoC4/GLCD_1.c **** 	GLCD_1_Reset_Write(0x00);	/* Display Reset */
 127:Generated_Source\PSoC4/GLCD_1.c **** 	CyDelay(200);			            /* 200ms delay   */
 128:Generated_Source\PSoC4/GLCD_1.c **** 	GLCD_1_Reset_Write(0xFF);	/* Release Reset */
 129:Generated_Source\PSoC4/GLCD_1.c **** 	CyDelay(200);			            /* 200ms delay   */
 130:Generated_Source\PSoC4/GLCD_1.c **** 	
 131:Generated_Source\PSoC4/GLCD_1.c **** #if(GLCD_1_Controller == GLCD_1_EPSON)
 132:Generated_Source\PSoC4/GLCD_1.c **** 	GLCD_1_Command(GLCD_1_DISCTL);	/*  Display control (0xCA)         */
 133:Generated_Source\PSoC4/GLCD_1.c **** 	GLCD_1_Data(0x0C);		/* 12 = 1100 - CL dividing ratio [don't divide] switching period 8H (default) 
 134:Generated_Source\PSoC4/GLCD_1.c **** 	GLCD_1_Data(0x20);		/* nlines/4 - 1 = 132/4 - 1 = 32 duty              */
 135:Generated_Source\PSoC4/GLCD_1.c **** 	GLCD_1_Data(0x00);		/* No inversely highlighted lines                  */
 136:Generated_Source\PSoC4/GLCD_1.c **** 	
 137:Generated_Source\PSoC4/GLCD_1.c **** 	GLCD_1_Command(GLCD_1_COMSCN);	  /* common scanning direction     */
 138:Generated_Source\PSoC4/GLCD_1.c **** 	GLCD_1_Data(0x01);		                  /* 1->68, 132<-69 scan direction */
 139:Generated_Source\PSoC4/GLCD_1.c **** 	
 140:Generated_Source\PSoC4/GLCD_1.c **** 	GLCD_1_Command(GLCD_1_OSCON);	  /* internal oscialltor ON        */
 141:Generated_Source\PSoC4/GLCD_1.c **** 	GLCD_1_Command(GLCD_1_SLEEPOUT);  /* sleep out                     */    
 142:Generated_Source\PSoC4/GLCD_1.c **** 	
 143:Generated_Source\PSoC4/GLCD_1.c **** 	GLCD_1_Command(GLCD_1_PWRCTR);	  /* Power ctrl                    */
 144:Generated_Source\PSoC4/GLCD_1.c **** 	GLCD_1_Data(0x0F);	                      /* everything on, no external reference  resistors  */
 145:Generated_Source\PSoC4/GLCD_1.c **** 	
 146:Generated_Source\PSoC4/GLCD_1.c **** 	GLCD_1_Command(GLCD_1_DINVON);	  /* invert display mode           */
 147:Generated_Source\PSoC4/GLCD_1.c **** 	
 148:Generated_Source\PSoC4/GLCD_1.c **** 	GLCD_1_Command(GLCD_1_DATCTL);	  /* data control                  */
 149:Generated_Source\PSoC4/GLCD_1.c **** 	GLCD_1_Data(0x03);		/* Inverse page address, reverse rotation column address, column scan-directio
 150:Generated_Source\PSoC4/GLCD_1.c **** 	GLCD_1_Data(0x00);		                  /* normal RGB arrangement                 */
 151:Generated_Source\PSoC4/GLCD_1.c **** 	GLCD_1_Data(0x02);		                  /* 16-bit Grayscale Type A (12-bit color) */
 152:Generated_Source\PSoC4/GLCD_1.c **** 	
 153:Generated_Source\PSoC4/GLCD_1.c **** 	GLCD_1_Command(GLCD_1_SETCONST);	/* Electronic volume, this is the contrast/brightness        */
 154:Generated_Source\PSoC4/GLCD_1.c **** 	GLCD_1_Data(GLCD_1_CONST_DEFAULT);  /* Volume (contrast) setting - fine tuning, original (0-63)  *
 155:Generated_Source\PSoC4/GLCD_1.c **** 	GLCD_1_Data(3);			                    /* Internal resistor ratio - coarse adjustment (0-7)        
 156:Generated_Source\PSoC4/GLCD_1.c **** 	
 157:Generated_Source\PSoC4/GLCD_1.c **** 	GLCD_1_Command(GLCD_1_NOP);	        /* nop */
 158:Generated_Source\PSoC4/GLCD_1.c **** 
 159:Generated_Source\PSoC4/GLCD_1.c **** 	CyDelay(100);
 160:Generated_Source\PSoC4/GLCD_1.c **** 
 161:Generated_Source\PSoC4/GLCD_1.c **** 	GLCD_1_Command(GLCD_1_DISPON);	     /*  Display on */
 162:Generated_Source\PSoC4/GLCD_1.c **** #endif
 163:Generated_Source\PSoC4/GLCD_1.c **** 
 164:Generated_Source\PSoC4/GLCD_1.c **** #if(GLCD_1_Controller == GLCD_1_PHILIPS) /* Driver is Philips */
 165:Generated_Source\PSoC4/GLCD_1.c **** 
 166:Generated_Source\PSoC4/GLCD_1.c **** 	GLCD_1_Command(GLCD_1_SLEEPOUT);	 /* Sleep Out          */
 167:Generated_Source\PSoC4/GLCD_1.c **** 	GLCD_1_Command(GLCD_1_BSTRON);       /* Booster voltage on */
 168:Generated_Source\PSoC4/GLCD_1.c **** 	GLCD_1_Command(GLCD_1_DISPON);		 /* Display on         */
 169:Generated_Source\PSoC4/GLCD_1.c **** 	
 170:Generated_Source\PSoC4/GLCD_1.c **** 	/* 12-bit color pixel format:  */
 171:Generated_Source\PSoC4/GLCD_1.c **** 	GLCD_1_Command(GLCD_1_COLMOD);		 /* Color interface format     */
 172:Generated_Source\PSoC4/GLCD_1.c **** 	GLCD_1_Data(0x03);			                 /* 0b011 is 12-bit/pixel mode */
 173:Generated_Source\PSoC4/GLCD_1.c **** 	
 174:Generated_Source\PSoC4/GLCD_1.c **** 	GLCD_1_Command(GLCD_1_MADCTL);		 /* Memory Access Control      */
 175:Generated_Source\PSoC4/GLCD_1.c **** 	GLCD_1_Command(GLCD_1_SETCONST);     /* Set Contrast               */          
 176:Generated_Source\PSoC4/GLCD_1.c **** 	GLCD_1_Data(GLCD_1_CONST_DEFAULT);
 177:Generated_Source\PSoC4/GLCD_1.c **** 	
 178:Generated_Source\PSoC4/GLCD_1.c **** 	GLCD_1_Command(GLCD_1_NOP);	
 179:Generated_Source\PSoC4/GLCD_1.c **** #endif
ARM GAS  C:\Users\sur\AppData\Local\Temp\ccADm5l6.s 			page 6


 180:Generated_Source\PSoC4/GLCD_1.c **** 
 181:Generated_Source\PSoC4/GLCD_1.c ****   	GLCD_1_Contrast(60);                           /* Set default contrast  */
 182:Generated_Source\PSoC4/GLCD_1.c ****   	GLCD_1_Clear(GLCD_1_BLACK);          /* Clear screen to black */
 183:Generated_Source\PSoC4/GLCD_1.c **** }
 184:Generated_Source\PSoC4/GLCD_1.c **** 
 185:Generated_Source\PSoC4/GLCD_1.c **** /*******************************************************************************
 186:Generated_Source\PSoC4/GLCD_1.c **** * Function Name: GLCD_1_Stop
 187:Generated_Source\PSoC4/GLCD_1.c **** ********************************************************************************
 188:Generated_Source\PSoC4/GLCD_1.c **** *
 189:Generated_Source\PSoC4/GLCD_1.c **** * Summary:
 190:Generated_Source\PSoC4/GLCD_1.c **** *  This function clears the LCD to black and turns off the display.  
 191:Generated_Source\PSoC4/GLCD_1.c **** *
 192:Generated_Source\PSoC4/GLCD_1.c **** * Parameters:  
 193:Generated_Source\PSoC4/GLCD_1.c **** *   None:   
 194:Generated_Source\PSoC4/GLCD_1.c **** *
 195:Generated_Source\PSoC4/GLCD_1.c **** * Return: 
 196:Generated_Source\PSoC4/GLCD_1.c **** *  None 
 197:Generated_Source\PSoC4/GLCD_1.c **** *  
 198:Generated_Source\PSoC4/GLCD_1.c **** *******************************************************************************/
 199:Generated_Source\PSoC4/GLCD_1.c **** void GLCD_1_Stop(void)
 200:Generated_Source\PSoC4/GLCD_1.c **** {
 201:Generated_Source\PSoC4/GLCD_1.c ****    GLCD_1_Clear(GLCD_1_BLACK);
 202:Generated_Source\PSoC4/GLCD_1.c ****    GLCD_1_Command(GLCD_1_DISPOFF);
 203:Generated_Source\PSoC4/GLCD_1.c **** }
 204:Generated_Source\PSoC4/GLCD_1.c **** 
 205:Generated_Source\PSoC4/GLCD_1.c **** /*******************************************************************************
 206:Generated_Source\PSoC4/GLCD_1.c **** * Function Name: GLCD_1_Clear
 207:Generated_Source\PSoC4/GLCD_1.c **** ********************************************************************************
 208:Generated_Source\PSoC4/GLCD_1.c **** *
 209:Generated_Source\PSoC4/GLCD_1.c **** * Summary:
 210:Generated_Source\PSoC4/GLCD_1.c **** *  Clear the display.  
 211:Generated_Source\PSoC4/GLCD_1.c **** *
 212:Generated_Source\PSoC4/GLCD_1.c **** * Parameters:  
 213:Generated_Source\PSoC4/GLCD_1.c **** *  color: Color to clear display with. 
 214:Generated_Source\PSoC4/GLCD_1.c **** *
 215:Generated_Source\PSoC4/GLCD_1.c **** * Return: 
 216:Generated_Source\PSoC4/GLCD_1.c **** *  None 
 217:Generated_Source\PSoC4/GLCD_1.c **** *  
 218:Generated_Source\PSoC4/GLCD_1.c **** *******************************************************************************/
 219:Generated_Source\PSoC4/GLCD_1.c **** void GLCD_1_Clear(int32 color)
 220:Generated_Source\PSoC4/GLCD_1.c **** {
 107              		.loc 1 220 0
 108              		.cfi_startproc
 109              		@ args = 0, pretend = 0, frame = 0
 110              		@ frame_needed = 0, uses_anonymous_args = 0
 111              	.LVL11:
 112 0000 70B5     		push	{r4, r5, r6, lr}
 113              		.cfi_def_cfa_offset 16
 114              		.cfi_offset 4, -16
 115              		.cfi_offset 5, -12
 116              		.cfi_offset 6, -8
 117              		.cfi_offset 14, -4
 118 0002 0500     		movs	r5, r0
 221:Generated_Source\PSoC4/GLCD_1.c ****     int32 i;
 222:Generated_Source\PSoC4/GLCD_1.c **** 
 223:Generated_Source\PSoC4/GLCD_1.c **** 	GLCD_1_Command(GLCD_1_PAGEADDR);
 119              		.loc 1 223 0
ARM GAS  C:\Users\sur\AppData\Local\Temp\ccADm5l6.s 			page 7


 120 0004 2B20     		movs	r0, #43
 121              	.LVL12:
 122 0006 FFF7FEFF 		bl	GLCD_1_Command
 123              	.LVL13:
 224:Generated_Source\PSoC4/GLCD_1.c **** 	GLCD_1_Data(GLCD_1_MINX);
 124              		.loc 1 224 0
 125 000a 0020     		movs	r0, #0
 126 000c FFF7FEFF 		bl	GLCD_1_Data
 127              	.LVL14:
 225:Generated_Source\PSoC4/GLCD_1.c **** 	GLCD_1_Data(GLCD_1_MAXX);
 128              		.loc 1 225 0
 129 0010 8320     		movs	r0, #131
 130 0012 FFF7FEFF 		bl	GLCD_1_Data
 131              	.LVL15:
 226:Generated_Source\PSoC4/GLCD_1.c **** 
 227:Generated_Source\PSoC4/GLCD_1.c **** 	GLCD_1_Command(GLCD_1_COLADDR);
 132              		.loc 1 227 0
 133 0016 2A20     		movs	r0, #42
 134 0018 FFF7FEFF 		bl	GLCD_1_Command
 135              	.LVL16:
 228:Generated_Source\PSoC4/GLCD_1.c **** 	GLCD_1_Data(GLCD_1_MINY);
 136              		.loc 1 228 0
 137 001c 0020     		movs	r0, #0
 138 001e FFF7FEFF 		bl	GLCD_1_Data
 139              	.LVL17:
 229:Generated_Source\PSoC4/GLCD_1.c **** 	GLCD_1_Data(GLCD_1_MAXY);
 140              		.loc 1 229 0
 141 0022 8320     		movs	r0, #131
 142 0024 FFF7FEFF 		bl	GLCD_1_Data
 143              	.LVL18:
 230:Generated_Source\PSoC4/GLCD_1.c **** 
 231:Generated_Source\PSoC4/GLCD_1.c **** 	GLCD_1_Command(GLCD_1_RAMWR);
 144              		.loc 1 231 0
 145 0028 2C20     		movs	r0, #44
 146 002a FFF7FEFF 		bl	GLCD_1_Command
 147              	.LVL19:
 232:Generated_Source\PSoC4/GLCD_1.c **** 
 233:Generated_Source\PSoC4/GLCD_1.c **** 
 234:Generated_Source\PSoC4/GLCD_1.c **** 	for( i=0; i < (GLCD_1_MAXX*GLCD_1_MAXY)/2; i++)
 148              		.loc 1 234 0
 149 002e 0026     		movs	r6, #0
 150 0030 0FE0     		b	.L6
 151              	.LVL20:
 152              	.L7:
 235:Generated_Source\PSoC4/GLCD_1.c **** 	{
 236:Generated_Source\PSoC4/GLCD_1.c **** 		GLCD_1_Data((color>>4)&0x00FF);
 153              		.loc 1 236 0 discriminator 3
 154 0032 2811     		asrs	r0, r5, #4
 155 0034 FF24     		movs	r4, #255
 156 0036 2040     		ands	r0, r4
 157 0038 FFF7FEFF 		bl	GLCD_1_Data
 158              	.LVL21:
 237:Generated_Source\PSoC4/GLCD_1.c **** 		GLCD_1_Data(((color&0x0F)<<4)|(color>>8));
 159              		.loc 1 237 0 discriminator 3
 160 003c 2801     		lsls	r0, r5, #4
 161 003e 2040     		ands	r0, r4
 162 0040 2B12     		asrs	r3, r5, #8
ARM GAS  C:\Users\sur\AppData\Local\Temp\ccADm5l6.s 			page 8


 163 0042 1843     		orrs	r0, r3
 164 0044 FFF7FEFF 		bl	GLCD_1_Data
 165              	.LVL22:
 238:Generated_Source\PSoC4/GLCD_1.c **** 		GLCD_1_Data(color&0x0FF);
 166              		.loc 1 238 0 discriminator 3
 167 0048 2000     		movs	r0, r4
 168 004a 2840     		ands	r0, r5
 169 004c FFF7FEFF 		bl	GLCD_1_Data
 170              	.LVL23:
 234:Generated_Source\PSoC4/GLCD_1.c **** 	{
 171              		.loc 1 234 0 discriminator 3
 172 0050 0136     		adds	r6, r6, #1
 173              	.LVL24:
 174              	.L6:
 234:Generated_Source\PSoC4/GLCD_1.c **** 	{
 175              		.loc 1 234 0 is_stmt 0 discriminator 1
 176 0052 024B     		ldr	r3, .L8
 177 0054 9E42     		cmp	r6, r3
 178 0056 ECD9     		bls	.L7
 239:Generated_Source\PSoC4/GLCD_1.c **** 	}
 240:Generated_Source\PSoC4/GLCD_1.c **** 
 241:Generated_Source\PSoC4/GLCD_1.c **** 	GLCD_1_x_offset = 0;
 242:Generated_Source\PSoC4/GLCD_1.c **** 	GLCD_1_y_offset = 0;
 243:Generated_Source\PSoC4/GLCD_1.c **** }
 179              		.loc 1 243 0 is_stmt 1
 180              		@ sp needed
 181              	.LVL25:
 182              	.LVL26:
 183 0058 70BD     		pop	{r4, r5, r6, pc}
 184              	.L9:
 185 005a C046     		.align	2
 186              	.L8:
 187 005c 83210000 		.word	8579
 188              		.cfi_endproc
 189              	.LFE4:
 190              		.size	GLCD_1_Clear, .-GLCD_1_Clear
 191              		.section	.text.GLCD_1_Stop,"ax",%progbits
 192              		.align	2
 193              		.global	GLCD_1_Stop
 194              		.code	16
 195              		.thumb_func
 196              		.type	GLCD_1_Stop, %function
 197              	GLCD_1_Stop:
 198              	.LFB3:
 200:Generated_Source\PSoC4/GLCD_1.c ****    GLCD_1_Clear(GLCD_1_BLACK);
 199              		.loc 1 200 0
 200              		.cfi_startproc
 201              		@ args = 0, pretend = 0, frame = 0
 202              		@ frame_needed = 0, uses_anonymous_args = 0
 203 0000 10B5     		push	{r4, lr}
 204              		.cfi_def_cfa_offset 8
 205              		.cfi_offset 4, -8
 206              		.cfi_offset 14, -4
 201:Generated_Source\PSoC4/GLCD_1.c ****    GLCD_1_Command(GLCD_1_DISPOFF);
 207              		.loc 1 201 0
 208 0002 0020     		movs	r0, #0
 209 0004 FFF7FEFF 		bl	GLCD_1_Clear
ARM GAS  C:\Users\sur\AppData\Local\Temp\ccADm5l6.s 			page 9


 210              	.LVL27:
 202:Generated_Source\PSoC4/GLCD_1.c **** }
 211              		.loc 1 202 0
 212 0008 2820     		movs	r0, #40
 213 000a FFF7FEFF 		bl	GLCD_1_Command
 214              	.LVL28:
 203:Generated_Source\PSoC4/GLCD_1.c **** 
 215              		.loc 1 203 0
 216              		@ sp needed
 217 000e 10BD     		pop	{r4, pc}
 218              		.cfi_endproc
 219              	.LFE3:
 220              		.size	GLCD_1_Stop, .-GLCD_1_Stop
 221              		.section	.text.GLCD_1_Contrast,"ax",%progbits
 222              		.align	2
 223              		.global	GLCD_1_Contrast
 224              		.code	16
 225              		.thumb_func
 226              		.type	GLCD_1_Contrast, %function
 227              	GLCD_1_Contrast:
 228              	.LFB5:
 244:Generated_Source\PSoC4/GLCD_1.c **** 
 245:Generated_Source\PSoC4/GLCD_1.c **** 
 246:Generated_Source\PSoC4/GLCD_1.c **** /*******************************************************************************
 247:Generated_Source\PSoC4/GLCD_1.c **** * Function Name: GLCD_1_Contrast
 248:Generated_Source\PSoC4/GLCD_1.c **** ********************************************************************************
 249:Generated_Source\PSoC4/GLCD_1.c **** *
 250:Generated_Source\PSoC4/GLCD_1.c **** * Summary:
 251:Generated_Source\PSoC4/GLCD_1.c **** *  Set color contrast  
 252:Generated_Source\PSoC4/GLCD_1.c **** *
 253:Generated_Source\PSoC4/GLCD_1.c **** * Parameters:  
 254:Generated_Source\PSoC4/GLCD_1.c **** *  setting: Contrast value.  
 255:Generated_Source\PSoC4/GLCD_1.c **** *
 256:Generated_Source\PSoC4/GLCD_1.c **** * Return: 
 257:Generated_Source\PSoC4/GLCD_1.c **** *  None 
 258:Generated_Source\PSoC4/GLCD_1.c **** *  
 259:Generated_Source\PSoC4/GLCD_1.c **** *******************************************************************************/
 260:Generated_Source\PSoC4/GLCD_1.c **** void GLCD_1_Contrast(int32 setting)
 261:Generated_Source\PSoC4/GLCD_1.c **** {
 229              		.loc 1 261 0
 230              		.cfi_startproc
 231              		@ args = 0, pretend = 0, frame = 0
 232              		@ frame_needed = 0, uses_anonymous_args = 0
 233              	.LVL29:
 234 0000 10B5     		push	{r4, lr}
 235              		.cfi_def_cfa_offset 8
 236              		.cfi_offset 4, -8
 237              		.cfi_offset 14, -4
 262:Generated_Source\PSoC4/GLCD_1.c ****     setting &= GLCD_1_CONST_MASK;	                /* Mask off contrast value */
 238              		.loc 1 262 0
 239 0002 7F24     		movs	r4, #127
 240 0004 0440     		ands	r4, r0
 241              	.LVL30:
 263:Generated_Source\PSoC4/GLCD_1.c ****     GLCD_1_Command(GLCD_1_SETCONST);	/* Set Contrast            */
 242              		.loc 1 263 0
 243 0006 2520     		movs	r0, #37
 244 0008 FFF7FEFF 		bl	GLCD_1_Command
ARM GAS  C:\Users\sur\AppData\Local\Temp\ccADm5l6.s 			page 10


 245              	.LVL31:
 264:Generated_Source\PSoC4/GLCD_1.c ****     GLCD_1_Data(setting);	                    
 246              		.loc 1 264 0
 247 000c 2000     		movs	r0, r4
 248 000e FFF7FEFF 		bl	GLCD_1_Data
 249              	.LVL32:
 265:Generated_Source\PSoC4/GLCD_1.c **** 
 266:Generated_Source\PSoC4/GLCD_1.c **** #if(GLCD_1_Controller == GLCD_1_EPSON)  /* Only required for Epson */
 267:Generated_Source\PSoC4/GLCD_1.c ****     GLCD_1_Data(3);			
 268:Generated_Source\PSoC4/GLCD_1.c **** #endif
 269:Generated_Source\PSoC4/GLCD_1.c **** 
 270:Generated_Source\PSoC4/GLCD_1.c **** }
 250              		.loc 1 270 0
 251              		@ sp needed
 252              	.LVL33:
 253 0012 10BD     		pop	{r4, pc}
 254              		.cfi_endproc
 255              	.LFE5:
 256              		.size	GLCD_1_Contrast, .-GLCD_1_Contrast
 257              		.section	.text.GLCD_1_Start,"ax",%progbits
 258              		.align	2
 259              		.global	GLCD_1_Start
 260              		.code	16
 261              		.thumb_func
 262              		.type	GLCD_1_Start, %function
 263              	GLCD_1_Start:
 264              	.LFB2:
 118:Generated_Source\PSoC4/GLCD_1.c **** 	
 265              		.loc 1 118 0
 266              		.cfi_startproc
 267              		@ args = 0, pretend = 0, frame = 0
 268              		@ frame_needed = 0, uses_anonymous_args = 0
 269 0000 10B5     		push	{r4, lr}
 270              		.cfi_def_cfa_offset 8
 271              		.cfi_offset 4, -8
 272              		.cfi_offset 14, -4
 120:Generated_Source\PSoC4/GLCD_1.c **** #if (GLCD_1_SPIM_TYPE == GLCD_1_SPIM_SCB_TYPE)
 273              		.loc 1 120 0
 274 0002 FFF7FEFF 		bl	GLCD_1_SPIM_UDB_Start
 275              	.LVL34:
 125:Generated_Source\PSoC4/GLCD_1.c **** 	GLCD_1_Reset_Write(0x00);	/* Display Reset */
 276              		.loc 1 125 0
 277 0006 1420     		movs	r0, #20
 278 0008 FFF7FEFF 		bl	CyDelayUs
 279              	.LVL35:
 126:Generated_Source\PSoC4/GLCD_1.c **** 	CyDelay(200);			            /* 200ms delay   */
 280              		.loc 1 126 0
 281 000c 0020     		movs	r0, #0
 282 000e FFF7FEFF 		bl	GLCD_1_Reset_Write
 283              	.LVL36:
 127:Generated_Source\PSoC4/GLCD_1.c **** 	GLCD_1_Reset_Write(0xFF);	/* Release Reset */
 284              		.loc 1 127 0
 285 0012 C820     		movs	r0, #200
 286 0014 FFF7FEFF 		bl	CyDelay
 287              	.LVL37:
 128:Generated_Source\PSoC4/GLCD_1.c **** 	CyDelay(200);			            /* 200ms delay   */
 288              		.loc 1 128 0
ARM GAS  C:\Users\sur\AppData\Local\Temp\ccADm5l6.s 			page 11


 289 0018 FF20     		movs	r0, #255
 290 001a FFF7FEFF 		bl	GLCD_1_Reset_Write
 291              	.LVL38:
 129:Generated_Source\PSoC4/GLCD_1.c **** 	
 292              		.loc 1 129 0
 293 001e C820     		movs	r0, #200
 294 0020 FFF7FEFF 		bl	CyDelay
 295              	.LVL39:
 166:Generated_Source\PSoC4/GLCD_1.c **** 	GLCD_1_Command(GLCD_1_BSTRON);       /* Booster voltage on */
 296              		.loc 1 166 0
 297 0024 1120     		movs	r0, #17
 298 0026 FFF7FEFF 		bl	GLCD_1_Command
 299              	.LVL40:
 167:Generated_Source\PSoC4/GLCD_1.c **** 	GLCD_1_Command(GLCD_1_DISPON);		 /* Display on         */
 300              		.loc 1 167 0
 301 002a 0320     		movs	r0, #3
 302 002c FFF7FEFF 		bl	GLCD_1_Command
 303              	.LVL41:
 168:Generated_Source\PSoC4/GLCD_1.c **** 	
 304              		.loc 1 168 0
 305 0030 2920     		movs	r0, #41
 306 0032 FFF7FEFF 		bl	GLCD_1_Command
 307              	.LVL42:
 171:Generated_Source\PSoC4/GLCD_1.c **** 	GLCD_1_Data(0x03);			                 /* 0b011 is 12-bit/pixel mode */
 308              		.loc 1 171 0
 309 0036 3A20     		movs	r0, #58
 310 0038 FFF7FEFF 		bl	GLCD_1_Command
 311              	.LVL43:
 172:Generated_Source\PSoC4/GLCD_1.c **** 	
 312              		.loc 1 172 0
 313 003c 0320     		movs	r0, #3
 314 003e FFF7FEFF 		bl	GLCD_1_Data
 315              	.LVL44:
 174:Generated_Source\PSoC4/GLCD_1.c **** 	GLCD_1_Command(GLCD_1_SETCONST);     /* Set Contrast               */          
 316              		.loc 1 174 0
 317 0042 3620     		movs	r0, #54
 318 0044 FFF7FEFF 		bl	GLCD_1_Command
 319              	.LVL45:
 175:Generated_Source\PSoC4/GLCD_1.c **** 	GLCD_1_Data(GLCD_1_CONST_DEFAULT);
 320              		.loc 1 175 0
 321 0048 2520     		movs	r0, #37
 322 004a FFF7FEFF 		bl	GLCD_1_Command
 323              	.LVL46:
 176:Generated_Source\PSoC4/GLCD_1.c **** 	
 324              		.loc 1 176 0
 325 004e 3020     		movs	r0, #48
 326 0050 FFF7FEFF 		bl	GLCD_1_Data
 327              	.LVL47:
 178:Generated_Source\PSoC4/GLCD_1.c **** #endif
 328              		.loc 1 178 0
 329 0054 0020     		movs	r0, #0
 330 0056 FFF7FEFF 		bl	GLCD_1_Command
 331              	.LVL48:
 181:Generated_Source\PSoC4/GLCD_1.c ****   	GLCD_1_Clear(GLCD_1_BLACK);          /* Clear screen to black */
 332              		.loc 1 181 0
 333 005a 3C20     		movs	r0, #60
 334 005c FFF7FEFF 		bl	GLCD_1_Contrast
ARM GAS  C:\Users\sur\AppData\Local\Temp\ccADm5l6.s 			page 12


 335              	.LVL49:
 182:Generated_Source\PSoC4/GLCD_1.c **** }
 336              		.loc 1 182 0
 337 0060 0020     		movs	r0, #0
 338 0062 FFF7FEFF 		bl	GLCD_1_Clear
 339              	.LVL50:
 183:Generated_Source\PSoC4/GLCD_1.c **** 
 340              		.loc 1 183 0
 341              		@ sp needed
 342 0066 10BD     		pop	{r4, pc}
 343              		.cfi_endproc
 344              	.LFE2:
 345              		.size	GLCD_1_Start, .-GLCD_1_Start
 346              		.section	.text.GLCD_1_SwapColors,"ax",%progbits
 347              		.align	2
 348              		.global	GLCD_1_SwapColors
 349              		.code	16
 350              		.thumb_func
 351              		.type	GLCD_1_SwapColors, %function
 352              	GLCD_1_SwapColors:
 353              	.LFB6:
 271:Generated_Source\PSoC4/GLCD_1.c **** 
 272:Generated_Source\PSoC4/GLCD_1.c **** /*******************************************************************************
 273:Generated_Source\PSoC4/GLCD_1.c **** * Function Name: GLCD_1_SwapColors
 274:Generated_Source\PSoC4/GLCD_1.c **** ********************************************************************************
 275:Generated_Source\PSoC4/GLCD_1.c **** *
 276:Generated_Source\PSoC4/GLCD_1.c **** * Summary:
 277:Generated_Source\PSoC4/GLCD_1.c **** *   Swaps colors between Epson and Philips mode.  
 278:Generated_Source\PSoC4/GLCD_1.c **** *
 279:Generated_Source\PSoC4/GLCD_1.c **** * Parameters:  
 280:Generated_Source\PSoC4/GLCD_1.c **** *  prtValue:  The value  
 281:Generated_Source\PSoC4/GLCD_1.c **** *
 282:Generated_Source\PSoC4/GLCD_1.c **** * Return: 
 283:Generated_Source\PSoC4/GLCD_1.c **** *  None 
 284:Generated_Source\PSoC4/GLCD_1.c **** *  Added by Steve Sparks @ Big Nerd Ranch.
 285:Generated_Source\PSoC4/GLCD_1.c **** *  This swaps the Epson RGB order into the Philips RGB order. (Or, vice versa, I suppose.)
 286:Generated_Source\PSoC4/GLCD_1.c **** *******************************************************************************/
 287:Generated_Source\PSoC4/GLCD_1.c **** int32 GLCD_1_SwapColors(int32 in)
 288:Generated_Source\PSoC4/GLCD_1.c **** {
 354              		.loc 1 288 0
 355              		.cfi_startproc
 356              		@ args = 0, pretend = 0, frame = 0
 357              		@ frame_needed = 0, uses_anonymous_args = 0
 358              		@ link register save eliminated.
 359              	.LVL51:
 289:Generated_Source\PSoC4/GLCD_1.c ****     return ((in & 0x000F)<<8)|(in & 0x00F0)|((in & 0x0F00)>>8);
 360              		.loc 1 289 0
 361 0000 0202     		lsls	r2, r0, #8
 362 0002 F023     		movs	r3, #240
 363 0004 1B01     		lsls	r3, r3, #4
 364 0006 1A40     		ands	r2, r3
 365 0008 F023     		movs	r3, #240
 366 000a 0340     		ands	r3, r0
 367 000c 1A43     		orrs	r2, r3
 368 000e 0312     		asrs	r3, r0, #8
 369 0010 0F20     		movs	r0, #15
 370              	.LVL52:
ARM GAS  C:\Users\sur\AppData\Local\Temp\ccADm5l6.s 			page 13


 371 0012 1840     		ands	r0, r3
 372 0014 1043     		orrs	r0, r2
 290:Generated_Source\PSoC4/GLCD_1.c **** }
 373              		.loc 1 290 0
 374              		@ sp needed
 375 0016 7047     		bx	lr
 376              		.cfi_endproc
 377              	.LFE6:
 378              		.size	GLCD_1_SwapColors, .-GLCD_1_SwapColors
 379              		.section	.text.GLCD_1_Pixel,"ax",%progbits
 380              		.align	2
 381              		.global	GLCD_1_Pixel
 382              		.code	16
 383              		.thumb_func
 384              		.type	GLCD_1_Pixel, %function
 385              	GLCD_1_Pixel:
 386              	.LFB7:
 291:Generated_Source\PSoC4/GLCD_1.c **** /*******************************************************************************
 292:Generated_Source\PSoC4/GLCD_1.c **** * Function Name: GLCD_1_Pixel
 293:Generated_Source\PSoC4/GLCD_1.c **** ********************************************************************************
 294:Generated_Source\PSoC4/GLCD_1.c **** *
 295:Generated_Source\PSoC4/GLCD_1.c **** * Summary:
 296:Generated_Source\PSoC4/GLCD_1.c **** *  Draw Pixel  
 297:Generated_Source\PSoC4/GLCD_1.c **** *
 298:Generated_Source\PSoC4/GLCD_1.c **** * Parameters:  
 299:Generated_Source\PSoC4/GLCD_1.c **** *  x,y:    Location to draw the pixel
 300:Generated_Source\PSoC4/GLCD_1.c **** *  color:  Color of the pixel
 301:Generated_Source\PSoC4/GLCD_1.c **** *
 302:Generated_Source\PSoC4/GLCD_1.c **** * Return: 
 303:Generated_Source\PSoC4/GLCD_1.c **** *  None 
 304:Generated_Source\PSoC4/GLCD_1.c **** *******************************************************************************/
 305:Generated_Source\PSoC4/GLCD_1.c **** void GLCD_1_Pixel(int32 x, int32 y, int32 color)
 306:Generated_Source\PSoC4/GLCD_1.c **** {
 387              		.loc 1 306 0
 388              		.cfi_startproc
 389              		@ args = 0, pretend = 0, frame = 0
 390              		@ frame_needed = 0, uses_anonymous_args = 0
 391              	.LVL53:
 392 0000 F8B5     		push	{r3, r4, r5, r6, r7, lr}
 393              		.cfi_def_cfa_offset 24
 394              		.cfi_offset 3, -24
 395              		.cfi_offset 4, -20
 396              		.cfi_offset 5, -16
 397              		.cfi_offset 6, -12
 398              		.cfi_offset 7, -8
 399              		.cfi_offset 14, -4
 400 0002 1500     		movs	r5, r2
 307:Generated_Source\PSoC4/GLCD_1.c ****     y =	(GLCD_1_COL_HEIGHT - 1) - y;
 401              		.loc 1 307 0
 402 0004 8323     		movs	r3, #131
 403 0006 5E1A     		subs	r6, r3, r1
 404              	.LVL54:
 308:Generated_Source\PSoC4/GLCD_1.c ****     x = (GLCD_1_ROW_LENGTH - 1) - x;
 405              		.loc 1 308 0
 406 0008 1C1A     		subs	r4, r3, r0
 407              	.LVL55:
 309:Generated_Source\PSoC4/GLCD_1.c **** 
ARM GAS  C:\Users\sur\AppData\Local\Temp\ccADm5l6.s 			page 14


 310:Generated_Source\PSoC4/GLCD_1.c **** #if (GLCD_1_Controller == GLCD_1_EPSON) /* EPSON     */
 311:Generated_Source\PSoC4/GLCD_1.c **** 	GLCD_1_Command(GLCD_1_PAGEADDR);    /* Set page  */
 312:Generated_Source\PSoC4/GLCD_1.c **** 	GLCD_1_Data(x);
 313:Generated_Source\PSoC4/GLCD_1.c **** 	GLCD_1_Data(GLCD_1_ENDPAGE);
 314:Generated_Source\PSoC4/GLCD_1.c **** 
 315:Generated_Source\PSoC4/GLCD_1.c **** 	GLCD_1_Command(GLCD_1_COLADDR);     /* Set column */
 316:Generated_Source\PSoC4/GLCD_1.c **** 	GLCD_1_Data(y);
 317:Generated_Source\PSoC4/GLCD_1.c **** 	GLCD_1_Data(GLCD_1_ENDCOL);
 318:Generated_Source\PSoC4/GLCD_1.c **** 
 319:Generated_Source\PSoC4/GLCD_1.c **** 	GLCD_1_Command(GLCD_1_RAMWR);       /* Write color data */
 320:Generated_Source\PSoC4/GLCD_1.c **** 	GLCD_1_Data((color>>4)&0x00FF);
 321:Generated_Source\PSoC4/GLCD_1.c **** 	GLCD_1_Data(((color&0x0F)<<4)|(color>>8));
 322:Generated_Source\PSoC4/GLCD_1.c **** 	GLCD_1_Data(color&0x0FF);
 323:Generated_Source\PSoC4/GLCD_1.c **** #endif
 324:Generated_Source\PSoC4/GLCD_1.c **** 
 325:Generated_Source\PSoC4/GLCD_1.c **** #if (GLCD_1_Controller == GLCD_1_PHILIPS) /* PHILIPS   */
 326:Generated_Source\PSoC4/GLCD_1.c **** 	GLCD_1_Command(GLCD_1_PAGEADDR);      /* Set page  */
 408              		.loc 1 326 0
 409 000a 2B20     		movs	r0, #43
 410 000c FFF7FEFF 		bl	GLCD_1_Command
 411              	.LVL56:
 327:Generated_Source\PSoC4/GLCD_1.c **** 	GLCD_1_Data((uint8)x);
 412              		.loc 1 327 0
 413 0010 FF27     		movs	r7, #255
 414 0012 3C40     		ands	r4, r7
 415              	.LVL57:
 416 0014 2000     		movs	r0, r4
 417 0016 FFF7FEFF 		bl	GLCD_1_Data
 418              	.LVL58:
 328:Generated_Source\PSoC4/GLCD_1.c **** 	GLCD_1_Data((uint8)x);
 419              		.loc 1 328 0
 420 001a 2000     		movs	r0, r4
 421 001c FFF7FEFF 		bl	GLCD_1_Data
 422              	.LVL59:
 329:Generated_Source\PSoC4/GLCD_1.c **** 
 330:Generated_Source\PSoC4/GLCD_1.c **** 	GLCD_1_Command(GLCD_1_COLADDR);       /* Set column */
 423              		.loc 1 330 0
 424 0020 2A20     		movs	r0, #42
 425 0022 FFF7FEFF 		bl	GLCD_1_Command
 426              	.LVL60:
 331:Generated_Source\PSoC4/GLCD_1.c **** 	GLCD_1_Data((uint8)y);
 427              		.loc 1 331 0
 428 0026 3400     		movs	r4, r6
 429 0028 3C40     		ands	r4, r7
 430 002a 2000     		movs	r0, r4
 431 002c FFF7FEFF 		bl	GLCD_1_Data
 432              	.LVL61:
 332:Generated_Source\PSoC4/GLCD_1.c **** 	GLCD_1_Data((uint8)y);
 433              		.loc 1 332 0
 434 0030 2000     		movs	r0, r4
 435 0032 FFF7FEFF 		bl	GLCD_1_Data
 436              	.LVL62:
 333:Generated_Source\PSoC4/GLCD_1.c **** 
 334:Generated_Source\PSoC4/GLCD_1.c **** 	GLCD_1_Command(GLCD_1_RAMWR);         /* Write color data */
 437              		.loc 1 334 0
 438 0036 2C20     		movs	r0, #44
 439 0038 FFF7FEFF 		bl	GLCD_1_Command
ARM GAS  C:\Users\sur\AppData\Local\Temp\ccADm5l6.s 			page 15


 440              	.LVL63:
 335:Generated_Source\PSoC4/GLCD_1.c **** 	GLCD_1_Data((uint8)((color>>4)&0x00FF));
 441              		.loc 1 335 0
 442 003c 2811     		asrs	r0, r5, #4
 443 003e 3840     		ands	r0, r7
 444 0040 FFF7FEFF 		bl	GLCD_1_Data
 445              	.LVL64:
 336:Generated_Source\PSoC4/GLCD_1.c **** 	GLCD_1_Data((uint8)(((color&0x0F)<<4)|0x00));
 446              		.loc 1 336 0
 447 0044 2801     		lsls	r0, r5, #4
 448 0046 3840     		ands	r0, r7
 449 0048 FFF7FEFF 		bl	GLCD_1_Data
 450              	.LVL65:
 337:Generated_Source\PSoC4/GLCD_1.c **** #endif
 338:Generated_Source\PSoC4/GLCD_1.c **** }
 451              		.loc 1 338 0
 452              		@ sp needed
 453              	.LVL66:
 454              	.LVL67:
 455 004c F8BD     		pop	{r3, r4, r5, r6, r7, pc}
 456              		.cfi_endproc
 457              	.LFE7:
 458              		.size	GLCD_1_Pixel, .-GLCD_1_Pixel
 459 004e C046     		.section	.text.GLCD_1_DrawCircle,"ax",%progbits
 460              		.align	2
 461              		.global	GLCD_1_DrawCircle
 462              		.code	16
 463              		.thumb_func
 464              		.type	GLCD_1_DrawCircle, %function
 465              	GLCD_1_DrawCircle:
 466              	.LFB8:
 339:Generated_Source\PSoC4/GLCD_1.c **** 
 340:Generated_Source\PSoC4/GLCD_1.c **** /*******************************************************************************
 341:Generated_Source\PSoC4/GLCD_1.c **** * Function Name: GLCD_1_DrawCircle
 342:Generated_Source\PSoC4/GLCD_1.c **** ********************************************************************************
 343:Generated_Source\PSoC4/GLCD_1.c **** *
 344:Generated_Source\PSoC4/GLCD_1.c **** * Summary:
 345:Generated_Source\PSoC4/GLCD_1.c **** *  Draw a circle on the display given a start point and radius.  
 346:Generated_Source\PSoC4/GLCD_1.c **** *
 347:Generated_Source\PSoC4/GLCD_1.c **** *  This code uses Bresenham's Circle Algorithm. 
 348:Generated_Source\PSoC4/GLCD_1.c **** *
 349:Generated_Source\PSoC4/GLCD_1.c **** * Parameters:  
 350:Generated_Source\PSoC4/GLCD_1.c **** *  x0, y0: Center of circle
 351:Generated_Source\PSoC4/GLCD_1.c **** *  radius: Radius of circle
 352:Generated_Source\PSoC4/GLCD_1.c **** *  color:  Color of circle
 353:Generated_Source\PSoC4/GLCD_1.c **** *
 354:Generated_Source\PSoC4/GLCD_1.c **** * Return: 
 355:Generated_Source\PSoC4/GLCD_1.c **** *  None 
 356:Generated_Source\PSoC4/GLCD_1.c **** *  
 357:Generated_Source\PSoC4/GLCD_1.c **** *******************************************************************************/
 358:Generated_Source\PSoC4/GLCD_1.c **** void GLCD_1_DrawCircle (int32 x0, int32 y0, int32 radius, int32 color)
 359:Generated_Source\PSoC4/GLCD_1.c **** {
 467              		.loc 1 359 0
 468              		.cfi_startproc
 469              		@ args = 0, pretend = 0, frame = 16
 470              		@ frame_needed = 0, uses_anonymous_args = 0
 471              	.LVL68:
ARM GAS  C:\Users\sur\AppData\Local\Temp\ccADm5l6.s 			page 16


 472 0000 F0B5     		push	{r4, r5, r6, r7, lr}
 473              		.cfi_def_cfa_offset 20
 474              		.cfi_offset 4, -20
 475              		.cfi_offset 5, -16
 476              		.cfi_offset 6, -12
 477              		.cfi_offset 7, -8
 478              		.cfi_offset 14, -4
 479 0002 5F46     		mov	r7, fp
 480 0004 5646     		mov	r6, r10
 481 0006 4D46     		mov	r5, r9
 482 0008 4446     		mov	r4, r8
 483 000a F0B4     		push	{r4, r5, r6, r7}
 484              		.cfi_def_cfa_offset 36
 485              		.cfi_offset 8, -36
 486              		.cfi_offset 9, -32
 487              		.cfi_offset 10, -28
 488              		.cfi_offset 11, -24
 489 000c 85B0     		sub	sp, sp, #20
 490              		.cfi_def_cfa_offset 56
 491 000e 8346     		mov	fp, r0
 492 0010 8846     		mov	r8, r1
 493 0012 1400     		movs	r4, r2
 494 0014 1D00     		movs	r5, r3
 495 0016 0193     		str	r3, [sp, #4]
 360:Generated_Source\PSoC4/GLCD_1.c **** 	int32 f = 1 - radius;
 496              		.loc 1 360 0
 497 0018 0123     		movs	r3, #1
 498              	.LVL69:
 499 001a 9B1A     		subs	r3, r3, r2
 500 001c 9946     		mov	r9, r3
 501              	.LVL70:
 361:Generated_Source\PSoC4/GLCD_1.c **** 	int32 ddF_x = 0;
 362:Generated_Source\PSoC4/GLCD_1.c **** 	int32 ddF_y = -2 * radius;
 502              		.loc 1 362 0
 503 001e D307     		lsls	r3, r2, #31
 504              	.LVL71:
 505 0020 9B1A     		subs	r3, r3, r2
 506 0022 5A00     		lsls	r2, r3, #1
 507              	.LVL72:
 508 0024 9246     		mov	r10, r2
 509              	.LVL73:
 363:Generated_Source\PSoC4/GLCD_1.c **** 	int32 x = 0;
 364:Generated_Source\PSoC4/GLCD_1.c **** 	int32 y = radius;
 365:Generated_Source\PSoC4/GLCD_1.c **** 
 366:Generated_Source\PSoC4/GLCD_1.c **** 	GLCD_1_Pixel(x0, y0 + radius, color);
 510              		.loc 1 366 0
 511 0026 6118     		adds	r1, r4, r1
 512              	.LVL74:
 513 0028 2A00     		movs	r2, r5
 514              	.LVL75:
 515 002a FFF7FEFF 		bl	GLCD_1_Pixel
 516              	.LVL76:
 367:Generated_Source\PSoC4/GLCD_1.c **** 	GLCD_1_Pixel(x0, y0 - radius, color);
 517              		.loc 1 367 0
 518 002e 4346     		mov	r3, r8
 519 0030 191B     		subs	r1, r3, r4
 520 0032 2A00     		movs	r2, r5
ARM GAS  C:\Users\sur\AppData\Local\Temp\ccADm5l6.s 			page 17


 521 0034 5846     		mov	r0, fp
 522 0036 FFF7FEFF 		bl	GLCD_1_Pixel
 523              	.LVL77:
 368:Generated_Source\PSoC4/GLCD_1.c **** 	GLCD_1_Pixel( x0 + radius, y0, color);
 524              		.loc 1 368 0
 525 003a 5B46     		mov	r3, fp
 526 003c E018     		adds	r0, r4, r3
 527 003e 2A00     		movs	r2, r5
 528 0040 4146     		mov	r1, r8
 529 0042 FFF7FEFF 		bl	GLCD_1_Pixel
 530              	.LVL78:
 369:Generated_Source\PSoC4/GLCD_1.c **** 	GLCD_1_Pixel( x0 - radius, y0, color);
 531              		.loc 1 369 0
 532 0046 5B46     		mov	r3, fp
 533 0048 181B     		subs	r0, r3, r4
 534 004a 2A00     		movs	r2, r5
 535 004c 4146     		mov	r1, r8
 536 004e FFF7FEFF 		bl	GLCD_1_Pixel
 537              	.LVL79:
 363:Generated_Source\PSoC4/GLCD_1.c **** 	int32 y = radius;
 538              		.loc 1 363 0
 539 0052 0026     		movs	r6, #0
 361:Generated_Source\PSoC4/GLCD_1.c **** 	int32 ddF_y = -2 * radius;
 540              		.loc 1 361 0
 541 0054 0023     		movs	r3, #0
 370:Generated_Source\PSoC4/GLCD_1.c **** 
 371:Generated_Source\PSoC4/GLCD_1.c **** 	while(x < y)
 542              		.loc 1 371 0
 543 0056 48E0     		b	.L16
 544              	.LVL80:
 545              	.L18:
 372:Generated_Source\PSoC4/GLCD_1.c **** 	{
 373:Generated_Source\PSoC4/GLCD_1.c **** 		if(f >= 0)
 546              		.loc 1 373 0
 547 0058 4A46     		mov	r2, r9
 548 005a 002A     		cmp	r2, #0
 549 005c 04DB     		blt	.L17
 550              	.LVL81:
 374:Generated_Source\PSoC4/GLCD_1.c **** 		{
 375:Generated_Source\PSoC4/GLCD_1.c **** 			y--;
 551              		.loc 1 375 0
 552 005e 013C     		subs	r4, r4, #1
 553              	.LVL82:
 376:Generated_Source\PSoC4/GLCD_1.c **** 			ddF_y += 2;
 554              		.loc 1 376 0
 555 0060 0222     		movs	r2, #2
 556              	.LVL83:
 557 0062 9446     		mov	ip, r2
 558 0064 E244     		add	r10, r10, ip
 559              	.LVL84:
 377:Generated_Source\PSoC4/GLCD_1.c **** 			f += ddF_y;
 560              		.loc 1 377 0
 561 0066 D144     		add	r9, r9, r10
 562              	.LVL85:
 563              	.L17:
 378:Generated_Source\PSoC4/GLCD_1.c **** 		}
 379:Generated_Source\PSoC4/GLCD_1.c **** 		x++;
ARM GAS  C:\Users\sur\AppData\Local\Temp\ccADm5l6.s 			page 18


 564              		.loc 1 379 0
 565 0068 0136     		adds	r6, r6, #1
 566              	.LVL86:
 380:Generated_Source\PSoC4/GLCD_1.c **** 		ddF_x += 2;
 567              		.loc 1 380 0
 568 006a 9A1C     		adds	r2, r3, #2
 569 006c 0292     		str	r2, [sp, #8]
 570              	.LVL87:
 381:Generated_Source\PSoC4/GLCD_1.c **** 		f += ddF_x + 1;
 571              		.loc 1 381 0
 572 006e 0333     		adds	r3, r3, #3
 573 0070 9944     		add	r9, r9, r3
 574              	.LVL88:
 382:Generated_Source\PSoC4/GLCD_1.c **** 
 383:Generated_Source\PSoC4/GLCD_1.c **** 		GLCD_1_Pixel(x0 + x, y0 + y, color);
 575              		.loc 1 383 0
 576 0072 5946     		mov	r1, fp
 577 0074 8F19     		adds	r7, r1, r6
 578 0076 4146     		mov	r1, r8
 579 0078 6318     		adds	r3, r4, r1
 580 007a 019A     		ldr	r2, [sp, #4]
 581              	.LVL89:
 582 007c 0393     		str	r3, [sp, #12]
 583 007e 1900     		movs	r1, r3
 584 0080 3800     		movs	r0, r7
 585 0082 FFF7FEFF 		bl	GLCD_1_Pixel
 586              	.LVL90:
 384:Generated_Source\PSoC4/GLCD_1.c **** 		GLCD_1_Pixel(x0 - x, y0 + y, color);
 587              		.loc 1 384 0
 588 0086 5846     		mov	r0, fp
 589 0088 851B     		subs	r5, r0, r6
 590 008a 019A     		ldr	r2, [sp, #4]
 591 008c 0399     		ldr	r1, [sp, #12]
 592 008e 2800     		movs	r0, r5
 593 0090 FFF7FEFF 		bl	GLCD_1_Pixel
 594              	.LVL91:
 385:Generated_Source\PSoC4/GLCD_1.c **** 		GLCD_1_Pixel( x0 + x, y0 - y, color);
 595              		.loc 1 385 0
 596 0094 4146     		mov	r1, r8
 597 0096 0B1B     		subs	r3, r1, r4
 598 0098 019A     		ldr	r2, [sp, #4]
 599 009a 0393     		str	r3, [sp, #12]
 600 009c 1900     		movs	r1, r3
 601 009e 3800     		movs	r0, r7
 602 00a0 FFF7FEFF 		bl	GLCD_1_Pixel
 603              	.LVL92:
 386:Generated_Source\PSoC4/GLCD_1.c **** 		GLCD_1_Pixel( x0 - x, y0 - y, color);
 604              		.loc 1 386 0
 605 00a4 019A     		ldr	r2, [sp, #4]
 606 00a6 0399     		ldr	r1, [sp, #12]
 607 00a8 2800     		movs	r0, r5
 608 00aa FFF7FEFF 		bl	GLCD_1_Pixel
 609              	.LVL93:
 387:Generated_Source\PSoC4/GLCD_1.c **** 		GLCD_1_Pixel( x0 + y, y0 + x, color);
 610              		.loc 1 387 0
 611 00ae 5946     		mov	r1, fp
 612 00b0 6718     		adds	r7, r4, r1
ARM GAS  C:\Users\sur\AppData\Local\Temp\ccADm5l6.s 			page 19


 613 00b2 4146     		mov	r1, r8
 614 00b4 8D19     		adds	r5, r1, r6
 615 00b6 019A     		ldr	r2, [sp, #4]
 616 00b8 2900     		movs	r1, r5
 617 00ba 3800     		movs	r0, r7
 618 00bc FFF7FEFF 		bl	GLCD_1_Pixel
 619              	.LVL94:
 388:Generated_Source\PSoC4/GLCD_1.c **** 		GLCD_1_Pixel( x0 - y, y0 + x, color);
 620              		.loc 1 388 0
 621 00c0 5946     		mov	r1, fp
 622 00c2 0B1B     		subs	r3, r1, r4
 623 00c4 019A     		ldr	r2, [sp, #4]
 624 00c6 2900     		movs	r1, r5
 625 00c8 0393     		str	r3, [sp, #12]
 626 00ca 1800     		movs	r0, r3
 627 00cc FFF7FEFF 		bl	GLCD_1_Pixel
 628              	.LVL95:
 389:Generated_Source\PSoC4/GLCD_1.c **** 		GLCD_1_Pixel( x0 + y, y0 - x, color);
 629              		.loc 1 389 0
 630 00d0 4146     		mov	r1, r8
 631 00d2 8D1B     		subs	r5, r1, r6
 632 00d4 019A     		ldr	r2, [sp, #4]
 633 00d6 2900     		movs	r1, r5
 634 00d8 3800     		movs	r0, r7
 635 00da FFF7FEFF 		bl	GLCD_1_Pixel
 636              	.LVL96:
 390:Generated_Source\PSoC4/GLCD_1.c **** 		GLCD_1_Pixel( x0 - y, y0 - x, color);
 637              		.loc 1 390 0
 638 00de 019A     		ldr	r2, [sp, #4]
 639 00e0 2900     		movs	r1, r5
 640 00e2 0398     		ldr	r0, [sp, #12]
 641 00e4 FFF7FEFF 		bl	GLCD_1_Pixel
 642              	.LVL97:
 380:Generated_Source\PSoC4/GLCD_1.c **** 		f += ddF_x + 1;
 643              		.loc 1 380 0
 644 00e8 029B     		ldr	r3, [sp, #8]
 645              	.LVL98:
 646              	.L16:
 371:Generated_Source\PSoC4/GLCD_1.c **** 	{
 647              		.loc 1 371 0
 648 00ea A642     		cmp	r6, r4
 649 00ec B4DB     		blt	.L18
 391:Generated_Source\PSoC4/GLCD_1.c **** 	}
 392:Generated_Source\PSoC4/GLCD_1.c **** }
 650              		.loc 1 392 0
 651 00ee 05B0     		add	sp, sp, #20
 652              		@ sp needed
 653              	.LVL99:
 654              	.LVL100:
 655              	.LVL101:
 656              	.LVL102:
 657              	.LVL103:
 658              	.LVL104:
 659 00f0 3CBC     		pop	{r2, r3, r4, r5}
 660 00f2 9046     		mov	r8, r2
 661 00f4 9946     		mov	r9, r3
 662 00f6 A246     		mov	r10, r4
ARM GAS  C:\Users\sur\AppData\Local\Temp\ccADm5l6.s 			page 20


 663 00f8 AB46     		mov	fp, r5
 664 00fa F0BD     		pop	{r4, r5, r6, r7, pc}
 665              		.cfi_endproc
 666              	.LFE8:
 667              		.size	GLCD_1_DrawCircle, .-GLCD_1_DrawCircle
 668              		.section	.text.GLCD_1_PrintChar,"ax",%progbits
 669              		.align	2
 670              		.global	GLCD_1_PrintChar
 671              		.code	16
 672              		.thumb_func
 673              		.type	GLCD_1_PrintChar, %function
 674              	GLCD_1_PrintChar:
 675              	.LFB9:
 393:Generated_Source\PSoC4/GLCD_1.c **** 
 394:Generated_Source\PSoC4/GLCD_1.c **** /*******************************************************************************
 395:Generated_Source\PSoC4/GLCD_1.c **** * Function Name: GLCD_1_PrintChar
 396:Generated_Source\PSoC4/GLCD_1.c **** ********************************************************************************
 397:Generated_Source\PSoC4/GLCD_1.c **** *
 398:Generated_Source\PSoC4/GLCD_1.c **** * Summary:
 399:Generated_Source\PSoC4/GLCD_1.c **** *  Print a character on the display.  
 400:Generated_Source\PSoC4/GLCD_1.c **** *
 401:Generated_Source\PSoC4/GLCD_1.c **** * Parameters:  
 402:Generated_Source\PSoC4/GLCD_1.c **** *  c:       ASCII character to be printed
 403:Generated_Source\PSoC4/GLCD_1.c **** *  x,y:     Location where character will be printed.
 404:Generated_Source\PSoC4/GLCD_1.c **** *  fColor:  Foreground color
 405:Generated_Source\PSoC4/GLCD_1.c **** *  bColor:  Background color
 406:Generated_Source\PSoC4/GLCD_1.c **** *
 407:Generated_Source\PSoC4/GLCD_1.c **** * Return: 
 408:Generated_Source\PSoC4/GLCD_1.c **** *  None 
 409:Generated_Source\PSoC4/GLCD_1.c **** *  
 410:Generated_Source\PSoC4/GLCD_1.c **** *******************************************************************************/
 411:Generated_Source\PSoC4/GLCD_1.c **** void GLCD_1_PrintChar(uint8 c, int32 x, int32 y, int32 fColor, int32 bColor)
 412:Generated_Source\PSoC4/GLCD_1.c **** {
 676              		.loc 1 412 0
 677              		.cfi_startproc
 678              		@ args = 4, pretend = 0, frame = 8
 679              		@ frame_needed = 0, uses_anonymous_args = 0
 680              	.LVL105:
 681 0000 F0B5     		push	{r4, r5, r6, r7, lr}
 682              		.cfi_def_cfa_offset 20
 683              		.cfi_offset 4, -20
 684              		.cfi_offset 5, -16
 685              		.cfi_offset 6, -12
 686              		.cfi_offset 7, -8
 687              		.cfi_offset 14, -4
 688 0002 5F46     		mov	r7, fp
 689 0004 5646     		mov	r6, r10
 690 0006 4D46     		mov	r5, r9
 691 0008 4446     		mov	r4, r8
 692 000a F0B4     		push	{r4, r5, r6, r7}
 693              		.cfi_def_cfa_offset 36
 694              		.cfi_offset 8, -36
 695              		.cfi_offset 9, -32
 696              		.cfi_offset 10, -28
 697              		.cfi_offset 11, -24
 698 000c 83B0     		sub	sp, sp, #12
 699              		.cfi_def_cfa_offset 48
ARM GAS  C:\Users\sur\AppData\Local\Temp\ccADm5l6.s 			page 21


 700 000e 0093     		str	r3, [sp]
 413:Generated_Source\PSoC4/GLCD_1.c **** 	y	=	(GLCD_1_COL_HEIGHT - 1) - y; /* make display "right" side up */
 701              		.loc 1 413 0
 702 0010 8325     		movs	r5, #131
 703 0012 AD1A     		subs	r5, r5, r2
 704              	.LVL106:
 414:Generated_Source\PSoC4/GLCD_1.c **** 	x	=	(GLCD_1_ROW_LENGTH - 2) - x;
 705              		.loc 1 414 0
 706 0014 8226     		movs	r6, #130
 707 0016 761A     		subs	r6, r6, r1
 708              	.LVL107:
 415:Generated_Source\PSoC4/GLCD_1.c **** 
 416:Generated_Source\PSoC4/GLCD_1.c **** 	int32             i,j;
 417:Generated_Source\PSoC4/GLCD_1.c **** 	int32    nCols;
 418:Generated_Source\PSoC4/GLCD_1.c **** 	int32    nRows;
 419:Generated_Source\PSoC4/GLCD_1.c **** 	int32    nBytes;
 420:Generated_Source\PSoC4/GLCD_1.c **** 	uint8    PixelRow;
 421:Generated_Source\PSoC4/GLCD_1.c **** 	uint8    Mask;
 422:Generated_Source\PSoC4/GLCD_1.c **** 	int32    Word0;
 423:Generated_Source\PSoC4/GLCD_1.c **** 	int32    Word1;
 424:Generated_Source\PSoC4/GLCD_1.c **** 	uint8   *pFont;
 425:Generated_Source\PSoC4/GLCD_1.c **** 	uint8   *pChar;
 426:Generated_Source\PSoC4/GLCD_1.c **** 
 427:Generated_Source\PSoC4/GLCD_1.c **** 	/* Get pointer to the beginning of the selected font table  */
 428:Generated_Source\PSoC4/GLCD_1.c **** 	pFont = (uint8 *)GLCD_1_FONT8x16;
 429:Generated_Source\PSoC4/GLCD_1.c **** 	
 430:Generated_Source\PSoC4/GLCD_1.c **** 	/* Get the nColumns, nRows and nBytes.                      */
 431:Generated_Source\PSoC4/GLCD_1.c **** 	nCols = *pFont;
 709              		.loc 1 431 0
 710 0018 364C     		ldr	r4, .L28
 711 001a 2378     		ldrb	r3, [r4]
 712              	.LVL108:
 713 001c 9A46     		mov	r10, r3
 714              	.LVL109:
 432:Generated_Source\PSoC4/GLCD_1.c **** 	nRows = *(pFont + 1);
 715              		.loc 1 432 0
 716 001e 6378     		ldrb	r3, [r4, #1]
 717              	.LVL110:
 718 0020 9B46     		mov	fp, r3
 719              	.LVL111:
 433:Generated_Source\PSoC4/GLCD_1.c **** 	nBytes = *(pFont + 2);
 720              		.loc 1 433 0
 721 0022 A778     		ldrb	r7, [r4, #2]
 722              	.LVL112:
 434:Generated_Source\PSoC4/GLCD_1.c **** 	
 435:Generated_Source\PSoC4/GLCD_1.c **** 	/* Get pointer to the last byte of the desired character    */
 436:Generated_Source\PSoC4/GLCD_1.c **** 	pChar = pFont + (nBytes * (c - 0x1F)) + nBytes - 1;
 723              		.loc 1 436 0
 724 0024 1F38     		subs	r0, r0, #31
 725              	.LVL113:
 726 0026 7843     		muls	r0, r7
 727 0028 C019     		adds	r0, r0, r7
 728 002a 431E     		subs	r3, r0, #1
 729              	.LVL114:
 730 002c 9946     		mov	r9, r3
 731              	.LVL115:
 437:Generated_Source\PSoC4/GLCD_1.c **** 
ARM GAS  C:\Users\sur\AppData\Local\Temp\ccADm5l6.s 			page 22


 438:Generated_Source\PSoC4/GLCD_1.c **** #if (GLCD_1_Controller == GLCD_1_EPSON)
 439:Generated_Source\PSoC4/GLCD_1.c **** 	/* Row address set */
 440:Generated_Source\PSoC4/GLCD_1.c **** 	GLCD_1_Command(GLCD_1_PAGEADDR);
 441:Generated_Source\PSoC4/GLCD_1.c **** 	GLCD_1_Data(x);
 442:Generated_Source\PSoC4/GLCD_1.c **** 	GLCD_1_Data((x + nRows - 1));
 443:Generated_Source\PSoC4/GLCD_1.c **** 	/* Column address set */
 444:Generated_Source\PSoC4/GLCD_1.c **** 	GLCD_1_Command(GLCD_1_COLADDR);
 445:Generated_Source\PSoC4/GLCD_1.c **** 	GLCD_1_Data(y);
 446:Generated_Source\PSoC4/GLCD_1.c **** 	GLCD_1_Data((y + nCols - 1));
 447:Generated_Source\PSoC4/GLCD_1.c **** 
 448:Generated_Source\PSoC4/GLCD_1.c **** 	/* Write Memory */
 449:Generated_Source\PSoC4/GLCD_1.c **** 	GLCD_1_Command(GLCD_1_RAMWR);
 450:Generated_Source\PSoC4/GLCD_1.c **** 	/* Loop on each row, working backwards from the bottom to the top  */
 451:Generated_Source\PSoC4/GLCD_1.c **** 	for (i = nRows - 1; i >= 0; i--) {
 452:Generated_Source\PSoC4/GLCD_1.c **** 		/* Copy pixel row from font table and then decrement row       */
 453:Generated_Source\PSoC4/GLCD_1.c **** 		PixelRow = *pChar++;
 454:Generated_Source\PSoC4/GLCD_1.c **** 		/* Loop on each pixel in the row (left to right)               */
 455:Generated_Source\PSoC4/GLCD_1.c **** 		/* Note: we do two pixels each loop                            */
 456:Generated_Source\PSoC4/GLCD_1.c **** 		Mask = 0x80;
 457:Generated_Source\PSoC4/GLCD_1.c **** 		for (j = 0; j < nCols; j += 2) 
 458:Generated_Source\PSoC4/GLCD_1.c **** 		{
 459:Generated_Source\PSoC4/GLCD_1.c **** 			/* If pixel bit set, use foreground color; else use the background color. */
 460:Generated_Source\PSoC4/GLCD_1.c **** 			/* Now get the pixel color for two successive pixels                      */
 461:Generated_Source\PSoC4/GLCD_1.c **** 			if ((PixelRow & Mask) == 0)
 462:Generated_Source\PSoC4/GLCD_1.c **** 			{
 463:Generated_Source\PSoC4/GLCD_1.c **** 				Word0 = bColor;
 464:Generated_Source\PSoC4/GLCD_1.c **** 			}
 465:Generated_Source\PSoC4/GLCD_1.c **** 			else
 466:Generated_Source\PSoC4/GLCD_1.c **** 			{
 467:Generated_Source\PSoC4/GLCD_1.c **** 				Word0 = fColor;
 468:Generated_Source\PSoC4/GLCD_1.c **** 			}
 469:Generated_Source\PSoC4/GLCD_1.c **** 			
 470:Generated_Source\PSoC4/GLCD_1.c **** 			Mask = Mask >> 1;
 471:Generated_Source\PSoC4/GLCD_1.c **** 			if ((PixelRow & Mask) == 0)
 472:Generated_Source\PSoC4/GLCD_1.c **** 			{
 473:Generated_Source\PSoC4/GLCD_1.c **** 				Word1 = bColor;
 474:Generated_Source\PSoC4/GLCD_1.c **** 			}
 475:Generated_Source\PSoC4/GLCD_1.c **** 			else
 476:Generated_Source\PSoC4/GLCD_1.c **** 			{
 477:Generated_Source\PSoC4/GLCD_1.c **** 				Word1 = fColor;
 478:Generated_Source\PSoC4/GLCD_1.c **** 			}
 479:Generated_Source\PSoC4/GLCD_1.c **** 			Mask = Mask >> 1;
 480:Generated_Source\PSoC4/GLCD_1.c **** 			/* Use this information to output three data bytes  */
 481:Generated_Source\PSoC4/GLCD_1.c **** 			GLCD_1_Data((uint8)((Word0 >> 4) & 0xFF));
 482:Generated_Source\PSoC4/GLCD_1.c **** 			GLCD_1_Data((uint8)(((Word0 & 0xF) << 4) | ((Word1 >> 8) & 0xF)));
 483:Generated_Source\PSoC4/GLCD_1.c **** 			GLCD_1_Data((uint8)(Word1 & 0xFF));
 484:Generated_Source\PSoC4/GLCD_1.c **** 		}
 485:Generated_Source\PSoC4/GLCD_1.c **** 	}
 486:Generated_Source\PSoC4/GLCD_1.c **** #endif
 487:Generated_Source\PSoC4/GLCD_1.c **** 
 488:Generated_Source\PSoC4/GLCD_1.c **** #if (GLCD_1_Controller == GLCD_1_PHILIPS)
 489:Generated_Source\PSoC4/GLCD_1.c **** 
 490:Generated_Source\PSoC4/GLCD_1.c **** 	/* Set row address     */
 491:Generated_Source\PSoC4/GLCD_1.c **** 	GLCD_1_Command(GLCD_1_PAGEADDR);
 732              		.loc 1 491 0
 733 002e 2B20     		movs	r0, #43
 734 0030 FFF7FEFF 		bl	GLCD_1_Command
ARM GAS  C:\Users\sur\AppData\Local\Temp\ccADm5l6.s 			page 23


 735              	.LVL116:
 492:Generated_Source\PSoC4/GLCD_1.c **** 	GLCD_1_Data((uint8)x);
 736              		.loc 1 492 0
 737 0034 FF23     		movs	r3, #255
 738 0036 9846     		mov	r8, r3
 739 0038 1800     		movs	r0, r3
 740 003a 3040     		ands	r0, r6
 741 003c FFF7FEFF 		bl	GLCD_1_Data
 742              	.LVL117:
 493:Generated_Source\PSoC4/GLCD_1.c **** 	GLCD_1_Data((uint8)(x + nRows - 1));
 743              		.loc 1 493 0
 744 0040 5E44     		add	r6, r6, fp
 745              	.LVL118:
 746 0042 013E     		subs	r6, r6, #1
 747 0044 F0B2     		uxtb	r0, r6
 748 0046 FFF7FEFF 		bl	GLCD_1_Data
 749              	.LVL119:
 494:Generated_Source\PSoC4/GLCD_1.c ****     /* Set column address  */
 495:Generated_Source\PSoC4/GLCD_1.c **** 	GLCD_1_Command(GLCD_1_COLADDR);
 750              		.loc 1 495 0
 751 004a 2A20     		movs	r0, #42
 752 004c FFF7FEFF 		bl	GLCD_1_Command
 753              	.LVL120:
 496:Generated_Source\PSoC4/GLCD_1.c **** 	GLCD_1_Data((uint8)y);
 754              		.loc 1 496 0
 755 0050 4046     		mov	r0, r8
 756 0052 2840     		ands	r0, r5
 757 0054 FFF7FEFF 		bl	GLCD_1_Data
 758              	.LVL121:
 497:Generated_Source\PSoC4/GLCD_1.c **** 	GLCD_1_Data((uint8)(y + nCols - 1));
 759              		.loc 1 497 0
 760 0058 5544     		add	r5, r5, r10
 761              	.LVL122:
 762 005a 013D     		subs	r5, r5, #1
 763 005c E8B2     		uxtb	r0, r5
 764 005e FFF7FEFF 		bl	GLCD_1_Data
 765              	.LVL123:
 498:Generated_Source\PSoC4/GLCD_1.c **** 
 499:Generated_Source\PSoC4/GLCD_1.c **** 	/* Write to display memory */
 500:Generated_Source\PSoC4/GLCD_1.c **** 	GLCD_1_Command(GLCD_1_RAMWR);
 766              		.loc 1 500 0
 767 0062 2C20     		movs	r0, #44
 768 0064 FFF7FEFF 		bl	GLCD_1_Command
 769              	.LVL124:
 501:Generated_Source\PSoC4/GLCD_1.c **** 	/* loop on each row, working backwards from the bottom to the top.  */
 502:Generated_Source\PSoC4/GLCD_1.c **** 	pChar+=nBytes-1;  /* Stick pChar at the end of the row, need to reverse print on phillips */
 770              		.loc 1 502 0
 771 0068 013F     		subs	r7, r7, #1
 772              	.LVL125:
 773 006a 4F44     		add	r7, r7, r9
 774              	.LVL126:
 775 006c 3C19     		adds	r4, r7, r4
 776              	.LVL127:
 503:Generated_Source\PSoC4/GLCD_1.c **** 	for (i = nRows - 1; i >= 0; i--) {
 777              		.loc 1 503 0
 778 006e 0123     		movs	r3, #1
 779 0070 5B42     		rsbs	r3, r3, #0
ARM GAS  C:\Users\sur\AppData\Local\Temp\ccADm5l6.s 			page 24


 780 0072 9C46     		mov	ip, r3
 781 0074 E344     		add	fp, fp, ip
 782              	.LVL128:
 783 0076 32E0     		b	.L20
 784              	.LVL129:
 785              	.L25:
 504:Generated_Source\PSoC4/GLCD_1.c **** 		/* copy pixel row from font table and then decrement row.  */
 505:Generated_Source\PSoC4/GLCD_1.c **** 		PixelRow = *pChar--;
 786              		.loc 1 505 0
 787 0078 631E     		subs	r3, r4, #1
 788              	.LVL130:
 789 007a 0193     		str	r3, [sp, #4]
 790              	.LVL131:
 791 007c 2378     		ldrb	r3, [r4]
 792              	.LVL132:
 793 007e 9946     		mov	r9, r3
 794              	.LVL133:
 506:Generated_Source\PSoC4/GLCD_1.c **** 		/* Loop on each pixel in the row (left to right)  */
 507:Generated_Source\PSoC4/GLCD_1.c **** 		/* Note: we do two pixels each loop               */
 508:Generated_Source\PSoC4/GLCD_1.c **** 		Mask = 0x01;  
 795              		.loc 1 508 0
 796 0080 0124     		movs	r4, #1
 509:Generated_Source\PSoC4/GLCD_1.c **** 		for (j = 0; j < nCols; j += 2) 
 797              		.loc 1 509 0
 798 0082 0023     		movs	r3, #0
 799 0084 9846     		mov	r8, r3
 800 0086 23E0     		b	.L21
 801              	.LVL134:
 802              	.L24:
 510:Generated_Source\PSoC4/GLCD_1.c **** 		{
 511:Generated_Source\PSoC4/GLCD_1.c **** 			/* If pixel bit set, use foreground color; else use the background color  */
 512:Generated_Source\PSoC4/GLCD_1.c **** 			/* Get the pixel color for two successive pixels                          */
 513:Generated_Source\PSoC4/GLCD_1.c **** 			if ((PixelRow & Mask) == 0)
 803              		.loc 1 513 0
 804 0088 4B46     		mov	r3, r9
 805 008a 2342     		tst	r3, r4
 806 008c 01D1     		bne	.L26
 514:Generated_Source\PSoC4/GLCD_1.c **** 				Word0 = bColor;
 807              		.loc 1 514 0
 808 008e 0C9D     		ldr	r5, [sp, #48]
 809 0090 00E0     		b	.L22
 810              	.L26:
 515:Generated_Source\PSoC4/GLCD_1.c **** 			else
 516:Generated_Source\PSoC4/GLCD_1.c **** 				Word0 = fColor;
 811              		.loc 1 516 0
 812 0092 009D     		ldr	r5, [sp]
 813              	.L22:
 814              	.LVL135:
 517:Generated_Source\PSoC4/GLCD_1.c **** 			Mask = Mask << 1; 
 815              		.loc 1 517 0
 816 0094 6400     		lsls	r4, r4, #1
 817              	.LVL136:
 818 0096 E4B2     		uxtb	r4, r4
 819              	.LVL137:
 518:Generated_Source\PSoC4/GLCD_1.c **** 			if ((PixelRow & Mask) == 0)
 820              		.loc 1 518 0
 821 0098 4B46     		mov	r3, r9
ARM GAS  C:\Users\sur\AppData\Local\Temp\ccADm5l6.s 			page 25


 822 009a 1C42     		tst	r4, r3
 823 009c 01D1     		bne	.L27
 519:Generated_Source\PSoC4/GLCD_1.c **** 				Word1 = bColor;
 824              		.loc 1 519 0
 825 009e 0C9E     		ldr	r6, [sp, #48]
 826 00a0 00E0     		b	.L23
 827              	.L27:
 520:Generated_Source\PSoC4/GLCD_1.c **** 			else
 521:Generated_Source\PSoC4/GLCD_1.c **** 				Word1 = fColor;
 828              		.loc 1 521 0
 829 00a2 009E     		ldr	r6, [sp]
 830              	.L23:
 831              	.LVL138:
 522:Generated_Source\PSoC4/GLCD_1.c **** 			Mask = Mask << 1; 
 832              		.loc 1 522 0 discriminator 2
 833 00a4 6400     		lsls	r4, r4, #1
 834              	.LVL139:
 835 00a6 E4B2     		uxtb	r4, r4
 836              	.LVL140:
 523:Generated_Source\PSoC4/GLCD_1.c **** 			/* use this information to output three data bytes */
 524:Generated_Source\PSoC4/GLCD_1.c **** 			GLCD_1_Data((Word0 >> 4) & 0xFF);
 837              		.loc 1 524 0 discriminator 2
 838 00a8 2811     		asrs	r0, r5, #4
 839 00aa FF27     		movs	r7, #255
 840 00ac 3840     		ands	r0, r7
 841 00ae FFF7FEFF 		bl	GLCD_1_Data
 842              	.LVL141:
 525:Generated_Source\PSoC4/GLCD_1.c **** 			GLCD_1_Data(((Word0 & 0xF) << 4) | ((Word1 >> 8) & 0xF));
 843              		.loc 1 525 0 discriminator 2
 844 00b2 2D01     		lsls	r5, r5, #4
 845              	.LVL142:
 846 00b4 3D40     		ands	r5, r7
 847 00b6 3312     		asrs	r3, r6, #8
 848 00b8 0F20     		movs	r0, #15
 849 00ba 1840     		ands	r0, r3
 850 00bc 2843     		orrs	r0, r5
 851 00be FFF7FEFF 		bl	GLCD_1_Data
 852              	.LVL143:
 526:Generated_Source\PSoC4/GLCD_1.c **** 			GLCD_1_Data(Word1 & 0xFF);
 853              		.loc 1 526 0 discriminator 2
 854 00c2 3800     		movs	r0, r7
 855 00c4 3040     		ands	r0, r6
 856 00c6 FFF7FEFF 		bl	GLCD_1_Data
 857              	.LVL144:
 509:Generated_Source\PSoC4/GLCD_1.c **** 		{
 858              		.loc 1 509 0 discriminator 2
 859 00ca 0223     		movs	r3, #2
 860 00cc 9C46     		mov	ip, r3
 861 00ce E044     		add	r8, r8, ip
 862              	.LVL145:
 863              	.L21:
 509:Generated_Source\PSoC4/GLCD_1.c **** 		{
 864              		.loc 1 509 0 is_stmt 0 discriminator 1
 865 00d0 D045     		cmp	r8, r10
 866 00d2 D9DB     		blt	.L24
 503:Generated_Source\PSoC4/GLCD_1.c **** 		/* copy pixel row from font table and then decrement row.  */
 867              		.loc 1 503 0 is_stmt 1 discriminator 2
ARM GAS  C:\Users\sur\AppData\Local\Temp\ccADm5l6.s 			page 26


 868 00d4 0123     		movs	r3, #1
 869 00d6 5B42     		rsbs	r3, r3, #0
 870 00d8 9C46     		mov	ip, r3
 871 00da E344     		add	fp, fp, ip
 872              	.LVL146:
 505:Generated_Source\PSoC4/GLCD_1.c **** 		/* Loop on each pixel in the row (left to right)  */
 873              		.loc 1 505 0 discriminator 2
 874 00dc 019C     		ldr	r4, [sp, #4]
 875              	.LVL147:
 876              	.L20:
 503:Generated_Source\PSoC4/GLCD_1.c **** 		/* copy pixel row from font table and then decrement row.  */
 877              		.loc 1 503 0 discriminator 1
 878 00de 5B46     		mov	r3, fp
 879 00e0 002B     		cmp	r3, #0
 880 00e2 C9DA     		bge	.L25
 881              	.LVL148:
 527:Generated_Source\PSoC4/GLCD_1.c **** 		}
 528:Generated_Source\PSoC4/GLCD_1.c **** 	}
 529:Generated_Source\PSoC4/GLCD_1.c **** #endif
 530:Generated_Source\PSoC4/GLCD_1.c **** }
 882              		.loc 1 530 0
 883 00e4 03B0     		add	sp, sp, #12
 884              	.LVL149:
 885              		@ sp needed
 886              	.LVL150:
 887              	.LVL151:
 888 00e6 3CBC     		pop	{r2, r3, r4, r5}
 889 00e8 9046     		mov	r8, r2
 890 00ea 9946     		mov	r9, r3
 891 00ec A246     		mov	r10, r4
 892 00ee AB46     		mov	fp, r5
 893 00f0 F0BD     		pop	{r4, r5, r6, r7, pc}
 894              	.L29:
 895 00f2 C046     		.align	2
 896              	.L28:
 897 00f4 00000000 		.word	GLCD_1_FONT8x16
 898              		.cfi_endproc
 899              	.LFE9:
 900              		.size	GLCD_1_PrintChar, .-GLCD_1_PrintChar
 901              		.section	.text.GLCD_1_PrintString,"ax",%progbits
 902              		.align	2
 903              		.global	GLCD_1_PrintString
 904              		.code	16
 905              		.thumb_func
 906              		.type	GLCD_1_PrintString, %function
 907              	GLCD_1_PrintString:
 908              	.LFB10:
 531:Generated_Source\PSoC4/GLCD_1.c **** 
 532:Generated_Source\PSoC4/GLCD_1.c **** /*******************************************************************************
 533:Generated_Source\PSoC4/GLCD_1.c **** * Function Name: GLCD_1_PrintString
 534:Generated_Source\PSoC4/GLCD_1.c **** ********************************************************************************
 535:Generated_Source\PSoC4/GLCD_1.c **** *
 536:Generated_Source\PSoC4/GLCD_1.c **** * Summary:
 537:Generated_Source\PSoC4/GLCD_1.c **** *  Print a string horizontally on the display.  
 538:Generated_Source\PSoC4/GLCD_1.c **** *
 539:Generated_Source\PSoC4/GLCD_1.c **** * Parameters:  
 540:Generated_Source\PSoC4/GLCD_1.c **** *  pString:  Pointer to null terminated string to be displayed.
ARM GAS  C:\Users\sur\AppData\Local\Temp\ccADm5l6.s 			page 27


 541:Generated_Source\PSoC4/GLCD_1.c **** *  x,y:      Location where string is to be printed
 542:Generated_Source\PSoC4/GLCD_1.c **** *  fColor:   Forground Color
 543:Generated_Source\PSoC4/GLCD_1.c **** *  bColor:   Background Color
 544:Generated_Source\PSoC4/GLCD_1.c **** *
 545:Generated_Source\PSoC4/GLCD_1.c **** * Return: 
 546:Generated_Source\PSoC4/GLCD_1.c **** *  None 
 547:Generated_Source\PSoC4/GLCD_1.c **** *  
 548:Generated_Source\PSoC4/GLCD_1.c **** *******************************************************************************/
 549:Generated_Source\PSoC4/GLCD_1.c **** void GLCD_1_PrintString(char *pString, int32 x, int32 y, int32 fColor, int32 bColor)
 550:Generated_Source\PSoC4/GLCD_1.c **** {
 909              		.loc 1 550 0
 910              		.cfi_startproc
 911              		@ args = 4, pretend = 0, frame = 8
 912              		@ frame_needed = 0, uses_anonymous_args = 0
 913              	.LVL152:
 914 0000 F0B5     		push	{r4, r5, r6, r7, lr}
 915              		.cfi_def_cfa_offset 20
 916              		.cfi_offset 4, -20
 917              		.cfi_offset 5, -16
 918              		.cfi_offset 6, -12
 919              		.cfi_offset 7, -8
 920              		.cfi_offset 14, -4
 921 0002 85B0     		sub	sp, sp, #20
 922              		.cfi_def_cfa_offset 40
 923 0004 0700     		movs	r7, r0
 924 0006 0293     		str	r3, [sp, #8]
 925 0008 0A9E     		ldr	r6, [sp, #40]
 551:Generated_Source\PSoC4/GLCD_1.c **** 	x = x + 16;
 926              		.loc 1 551 0
 927 000a 1031     		adds	r1, r1, #16
 928              	.LVL153:
 929 000c 0D00     		movs	r5, r1
 930              	.LVL154:
 552:Generated_Source\PSoC4/GLCD_1.c **** 	y = y + 8;
 931              		.loc 1 552 0
 932 000e 0832     		adds	r2, r2, #8
 933              	.LVL155:
 934 0010 0392     		str	r2, [sp, #12]
 935              	.LVL156:
 936 0012 1400     		movs	r4, r2
 553:Generated_Source\PSoC4/GLCD_1.c ****     int32 originalY = y;
 554:Generated_Source\PSoC4/GLCD_1.c **** 
 555:Generated_Source\PSoC4/GLCD_1.c **** 	/* Loop until null-terminator is found */
 556:Generated_Source\PSoC4/GLCD_1.c **** 	while (*pString != 0x00) 
 937              		.loc 1 556 0
 938 0014 0DE0     		b	.L31
 939              	.LVL157:
 940              	.L34:
 557:Generated_Source\PSoC4/GLCD_1.c **** 	{
 558:Generated_Source\PSoC4/GLCD_1.c **** 		/* Draw the character        */
 559:Generated_Source\PSoC4/GLCD_1.c **** 		GLCD_1_PrintChar(*pString++, x, y, fColor, bColor);
 941              		.loc 1 559 0
 942 0016 0137     		adds	r7, r7, #1
 943              	.LVL158:
 944 0018 0096     		str	r6, [sp]
 945 001a 029B     		ldr	r3, [sp, #8]
 946 001c 2200     		movs	r2, r4
ARM GAS  C:\Users\sur\AppData\Local\Temp\ccADm5l6.s 			page 28


 947 001e 2900     		movs	r1, r5
 948 0020 FFF7FEFF 		bl	GLCD_1_PrintChar
 949              	.LVL159:
 560:Generated_Source\PSoC4/GLCD_1.c **** 		/* Advance the y position    */
 561:Generated_Source\PSoC4/GLCD_1.c **** 		y = y + 8;
 950              		.loc 1 561 0
 951 0024 0834     		adds	r4, r4, #8
 952              	.LVL160:
 562:Generated_Source\PSoC4/GLCD_1.c **** 		/* Bail out if y exceeds 131 */
 563:Generated_Source\PSoC4/GLCD_1.c **** 		if (y > 131) 
 953              		.loc 1 563 0
 954 0026 832C     		cmp	r4, #131
 955 0028 01DD     		ble	.L32
 564:Generated_Source\PSoC4/GLCD_1.c **** 		{
 565:Generated_Source\PSoC4/GLCD_1.c ****             x = x + 16;
 956              		.loc 1 565 0
 957 002a 1035     		adds	r5, r5, #16
 958              	.LVL161:
 566:Generated_Source\PSoC4/GLCD_1.c ****             y = originalY;
 959              		.loc 1 566 0
 960 002c 039C     		ldr	r4, [sp, #12]
 961              	.LVL162:
 962              	.L32:
 567:Generated_Source\PSoC4/GLCD_1.c ****         }
 568:Generated_Source\PSoC4/GLCD_1.c ****         if (x > 131) break;
 963              		.loc 1 568 0
 964 002e 832D     		cmp	r5, #131
 965 0030 02DC     		bgt	.L30
 966              	.L31:
 556:Generated_Source\PSoC4/GLCD_1.c **** 	{
 967              		.loc 1 556 0
 968 0032 3878     		ldrb	r0, [r7]
 969 0034 0028     		cmp	r0, #0
 970 0036 EED1     		bne	.L34
 971              	.L30:
 569:Generated_Source\PSoC4/GLCD_1.c **** 	}
 570:Generated_Source\PSoC4/GLCD_1.c **** }
 972              		.loc 1 570 0
 973 0038 05B0     		add	sp, sp, #20
 974              		@ sp needed
 975              	.LVL163:
 976              	.LVL164:
 977              	.LVL165:
 978 003a F0BD     		pop	{r4, r5, r6, r7, pc}
 979              		.cfi_endproc
 980              	.LFE10:
 981              		.size	GLCD_1_PrintString, .-GLCD_1_PrintString
 982              		.section	.text.GLCD_1_DrawLine,"ax",%progbits
 983              		.align	2
 984              		.global	GLCD_1_DrawLine
 985              		.code	16
 986              		.thumb_func
 987              		.type	GLCD_1_DrawLine, %function
 988              	GLCD_1_DrawLine:
 989              	.LFB11:
 571:Generated_Source\PSoC4/GLCD_1.c **** 
 572:Generated_Source\PSoC4/GLCD_1.c **** /*******************************************************************************
ARM GAS  C:\Users\sur\AppData\Local\Temp\ccADm5l6.s 			page 29


 573:Generated_Source\PSoC4/GLCD_1.c **** * Function Name: GLCD_1_DrawLine
 574:Generated_Source\PSoC4/GLCD_1.c **** ********************************************************************************
 575:Generated_Source\PSoC4/GLCD_1.c **** *
 576:Generated_Source\PSoC4/GLCD_1.c **** * Summary:
 577:Generated_Source\PSoC4/GLCD_1.c **** *  Draw a line on the display.  
 578:Generated_Source\PSoC4/GLCD_1.c **** *
 579:Generated_Source\PSoC4/GLCD_1.c **** * Parameters:  
 580:Generated_Source\PSoC4/GLCD_1.c **** *  x0, y0:  The beginning endpoint
 581:Generated_Source\PSoC4/GLCD_1.c **** *  x1, y1:  The end endpoint.
 582:Generated_Source\PSoC4/GLCD_1.c **** *  color:   Color of the line.
 583:Generated_Source\PSoC4/GLCD_1.c **** *
 584:Generated_Source\PSoC4/GLCD_1.c **** * Return: 
 585:Generated_Source\PSoC4/GLCD_1.c **** *  None 
 586:Generated_Source\PSoC4/GLCD_1.c **** *  
 587:Generated_Source\PSoC4/GLCD_1.c **** *******************************************************************************/
 588:Generated_Source\PSoC4/GLCD_1.c **** void GLCD_1_DrawLine(int32 x0, int32 y0, int32 x1, int32 y1, int32 color)
 589:Generated_Source\PSoC4/GLCD_1.c **** {
 990              		.loc 1 589 0
 991              		.cfi_startproc
 992              		@ args = 4, pretend = 0, frame = 8
 993              		@ frame_needed = 0, uses_anonymous_args = 0
 994              	.LVL166:
 995 0000 F0B5     		push	{r4, r5, r6, r7, lr}
 996              		.cfi_def_cfa_offset 20
 997              		.cfi_offset 4, -20
 998              		.cfi_offset 5, -16
 999              		.cfi_offset 6, -12
 1000              		.cfi_offset 7, -8
 1001              		.cfi_offset 14, -4
 1002 0002 5F46     		mov	r7, fp
 1003 0004 5646     		mov	r6, r10
 1004 0006 4D46     		mov	r5, r9
 1005 0008 4446     		mov	r4, r8
 1006 000a F0B4     		push	{r4, r5, r6, r7}
 1007              		.cfi_def_cfa_offset 36
 1008              		.cfi_offset 8, -36
 1009              		.cfi_offset 9, -32
 1010              		.cfi_offset 10, -28
 1011              		.cfi_offset 11, -24
 1012 000c 83B0     		sub	sp, sp, #12
 1013              		.cfi_def_cfa_offset 48
 1014 000e 0400     		movs	r4, r0
 1015 0010 0D00     		movs	r5, r1
 1016 0012 0192     		str	r2, [sp, #4]
 1017 0014 9B46     		mov	fp, r3
 590:Generated_Source\PSoC4/GLCD_1.c **** 	int32 dy = y1 - y0; /* Difference between y0 and y1 */
 1018              		.loc 1 590 0
 1019 0016 5B1A     		subs	r3, r3, r1
 1020              	.LVL167:
 591:Generated_Source\PSoC4/GLCD_1.c **** 	int32 dx = x1 - x0; /* Difference between x0 and x1 */
 1021              		.loc 1 591 0
 1022 0018 171A     		subs	r7, r2, r0
 1023              	.LVL168:
 592:Generated_Source\PSoC4/GLCD_1.c **** 	int32 stepx, stepy;
 593:Generated_Source\PSoC4/GLCD_1.c **** 
 594:Generated_Source\PSoC4/GLCD_1.c **** 	if (dy < 0)
 1024              		.loc 1 594 0
ARM GAS  C:\Users\sur\AppData\Local\Temp\ccADm5l6.s 			page 30


 1025 001a 002B     		cmp	r3, #0
 1026 001c 04DA     		bge	.L46
 595:Generated_Source\PSoC4/GLCD_1.c **** 	{
 596:Generated_Source\PSoC4/GLCD_1.c **** 		dy = -dy;
 1027              		.loc 1 596 0
 1028 001e 5B42     		rsbs	r3, r3, #0
 1029              	.LVL169:
 597:Generated_Source\PSoC4/GLCD_1.c **** 		stepy = -1;
 1030              		.loc 1 597 0
 1031 0020 0122     		movs	r2, #1
 1032              	.LVL170:
 1033 0022 5242     		rsbs	r2, r2, #0
 1034 0024 9246     		mov	r10, r2
 1035 0026 01E0     		b	.L36
 1036              	.LVL171:
 1037              	.L46:
 598:Generated_Source\PSoC4/GLCD_1.c **** 	}
 599:Generated_Source\PSoC4/GLCD_1.c **** 	else
 600:Generated_Source\PSoC4/GLCD_1.c **** 	{
 601:Generated_Source\PSoC4/GLCD_1.c **** 		stepy = 1;
 1038              		.loc 1 601 0
 1039 0028 0122     		movs	r2, #1
 1040              	.LVL172:
 1041 002a 9246     		mov	r10, r2
 1042              	.L36:
 1043              	.LVL173:
 602:Generated_Source\PSoC4/GLCD_1.c **** 	}
 603:Generated_Source\PSoC4/GLCD_1.c **** 
 604:Generated_Source\PSoC4/GLCD_1.c **** 	if (dx < 0)
 1044              		.loc 1 604 0
 1045 002c 002F     		cmp	r7, #0
 1046 002e 04DA     		bge	.L47
 605:Generated_Source\PSoC4/GLCD_1.c **** 	{
 606:Generated_Source\PSoC4/GLCD_1.c **** 		dx = -dx;
 1047              		.loc 1 606 0
 1048 0030 7F42     		rsbs	r7, r7, #0
 1049              	.LVL174:
 607:Generated_Source\PSoC4/GLCD_1.c **** 		stepx = -1;
 1050              		.loc 1 607 0
 1051 0032 0122     		movs	r2, #1
 1052 0034 5242     		rsbs	r2, r2, #0
 1053 0036 9146     		mov	r9, r2
 1054 0038 01E0     		b	.L37
 1055              	.LVL175:
 1056              	.L47:
 608:Generated_Source\PSoC4/GLCD_1.c **** 	}
 609:Generated_Source\PSoC4/GLCD_1.c **** 	else
 610:Generated_Source\PSoC4/GLCD_1.c **** 	{
 611:Generated_Source\PSoC4/GLCD_1.c **** 		stepx = 1;
 1057              		.loc 1 611 0
 1058 003a 0122     		movs	r2, #1
 1059 003c 9146     		mov	r9, r2
 1060              	.L37:
 1061              	.LVL176:
 612:Generated_Source\PSoC4/GLCD_1.c **** 	}
 613:Generated_Source\PSoC4/GLCD_1.c **** 
 614:Generated_Source\PSoC4/GLCD_1.c **** 	dy <<= 1; /* dy is now 2*dy  */
ARM GAS  C:\Users\sur\AppData\Local\Temp\ccADm5l6.s 			page 31


 1062              		.loc 1 614 0
 1063 003e 5B00     		lsls	r3, r3, #1
 1064              	.LVL177:
 1065 0040 9846     		mov	r8, r3
 1066              	.LVL178:
 615:Generated_Source\PSoC4/GLCD_1.c **** 	dx <<= 1; /* dx is now 2*dx  */
 1067              		.loc 1 615 0
 1068 0042 7F00     		lsls	r7, r7, #1
 1069              	.LVL179:
 616:Generated_Source\PSoC4/GLCD_1.c **** 	GLCD_1_Pixel(x0, y0, color);
 1070              		.loc 1 616 0
 1071 0044 0C9A     		ldr	r2, [sp, #48]
 1072 0046 2900     		movs	r1, r5
 1073              	.LVL180:
 1074 0048 2000     		movs	r0, r4
 1075              	.LVL181:
 1076 004a FFF7FEFF 		bl	GLCD_1_Pixel
 1077              	.LVL182:
 617:Generated_Source\PSoC4/GLCD_1.c **** 
 618:Generated_Source\PSoC4/GLCD_1.c **** 	if (dx > dy) 
 1078              		.loc 1 618 0
 1079 004e B845     		cmp	r8, r7
 1080 0050 12DA     		bge	.L38
 1081              	.LBB2:
 619:Generated_Source\PSoC4/GLCD_1.c **** 	{
 620:Generated_Source\PSoC4/GLCD_1.c **** 		int fraction = dy - (dx >> 1);
 1082              		.loc 1 620 0
 1083 0052 7B10     		asrs	r3, r7, #1
 1084 0054 4246     		mov	r2, r8
 1085 0056 D61A     		subs	r6, r2, r3
 1086              	.LVL183:
 621:Generated_Source\PSoC4/GLCD_1.c **** 		while (x0 != x1)
 1087              		.loc 1 621 0
 1088 0058 0AE0     		b	.L39
 1089              	.L41:
 622:Generated_Source\PSoC4/GLCD_1.c **** 		{
 623:Generated_Source\PSoC4/GLCD_1.c **** 			if (fraction >= 0)
 1090              		.loc 1 623 0
 1091 005a 002E     		cmp	r6, #0
 1092 005c 01DB     		blt	.L40
 624:Generated_Source\PSoC4/GLCD_1.c **** 			{
 625:Generated_Source\PSoC4/GLCD_1.c **** 				y0 += stepy;
 1093              		.loc 1 625 0
 1094 005e 5544     		add	r5, r5, r10
 1095              	.LVL184:
 626:Generated_Source\PSoC4/GLCD_1.c **** 				fraction -= dx;
 1096              		.loc 1 626 0
 1097 0060 F61B     		subs	r6, r6, r7
 1098              	.LVL185:
 1099              	.L40:
 627:Generated_Source\PSoC4/GLCD_1.c **** 			}
 628:Generated_Source\PSoC4/GLCD_1.c **** 			x0 += stepx;
 1100              		.loc 1 628 0
 1101 0062 4C44     		add	r4, r4, r9
 1102              	.LVL186:
 629:Generated_Source\PSoC4/GLCD_1.c **** 			fraction += dy;
 1103              		.loc 1 629 0
ARM GAS  C:\Users\sur\AppData\Local\Temp\ccADm5l6.s 			page 32


 1104 0064 4644     		add	r6, r6, r8
 1105              	.LVL187:
 630:Generated_Source\PSoC4/GLCD_1.c **** 			GLCD_1_Pixel(x0, y0, color);
 1106              		.loc 1 630 0
 1107 0066 0C9A     		ldr	r2, [sp, #48]
 1108 0068 2900     		movs	r1, r5
 1109 006a 2000     		movs	r0, r4
 1110 006c FFF7FEFF 		bl	GLCD_1_Pixel
 1111              	.LVL188:
 1112              	.L39:
 621:Generated_Source\PSoC4/GLCD_1.c **** 		{
 1113              		.loc 1 621 0
 1114 0070 019B     		ldr	r3, [sp, #4]
 1115 0072 9C42     		cmp	r4, r3
 1116 0074 F1D1     		bne	.L41
 1117 0076 11E0     		b	.L35
 1118              	.LVL189:
 1119              	.L38:
 1120              	.LBE2:
 1121              	.LBB3:
 631:Generated_Source\PSoC4/GLCD_1.c **** 		}
 632:Generated_Source\PSoC4/GLCD_1.c **** 	}
 633:Generated_Source\PSoC4/GLCD_1.c **** 	else
 634:Generated_Source\PSoC4/GLCD_1.c **** 	{
 635:Generated_Source\PSoC4/GLCD_1.c **** 		int fraction = dx - (dy >> 1);
 1122              		.loc 1 635 0
 1123 0078 4346     		mov	r3, r8
 1124 007a 5E10     		asrs	r6, r3, #1
 1125 007c BE1B     		subs	r6, r7, r6
 1126              	.LVL190:
 636:Generated_Source\PSoC4/GLCD_1.c **** 		while (y0 != y1)
 1127              		.loc 1 636 0
 1128 007e 0BE0     		b	.L43
 1129              	.L45:
 637:Generated_Source\PSoC4/GLCD_1.c **** 		{
 638:Generated_Source\PSoC4/GLCD_1.c **** 			if (fraction >= 0)
 1130              		.loc 1 638 0
 1131 0080 002E     		cmp	r6, #0
 1132 0082 02DB     		blt	.L44
 639:Generated_Source\PSoC4/GLCD_1.c **** 			{
 640:Generated_Source\PSoC4/GLCD_1.c **** 				x0 += stepx;
 1133              		.loc 1 640 0
 1134 0084 4C44     		add	r4, r4, r9
 1135              	.LVL191:
 641:Generated_Source\PSoC4/GLCD_1.c **** 				fraction -= dy;
 1136              		.loc 1 641 0
 1137 0086 4346     		mov	r3, r8
 1138 0088 F61A     		subs	r6, r6, r3
 1139              	.LVL192:
 1140              	.L44:
 642:Generated_Source\PSoC4/GLCD_1.c **** 			}
 643:Generated_Source\PSoC4/GLCD_1.c **** 			y0 += stepy;
 1141              		.loc 1 643 0
 1142 008a 5544     		add	r5, r5, r10
 1143              	.LVL193:
 644:Generated_Source\PSoC4/GLCD_1.c **** 			fraction += dx;
 1144              		.loc 1 644 0
ARM GAS  C:\Users\sur\AppData\Local\Temp\ccADm5l6.s 			page 33


 1145 008c F619     		adds	r6, r6, r7
 1146              	.LVL194:
 645:Generated_Source\PSoC4/GLCD_1.c **** 			GLCD_1_Pixel( x0, y0, color);
 1147              		.loc 1 645 0
 1148 008e 0C9A     		ldr	r2, [sp, #48]
 1149 0090 2900     		movs	r1, r5
 1150 0092 2000     		movs	r0, r4
 1151 0094 FFF7FEFF 		bl	GLCD_1_Pixel
 1152              	.LVL195:
 1153              	.L43:
 636:Generated_Source\PSoC4/GLCD_1.c **** 		{
 1154              		.loc 1 636 0
 1155 0098 5D45     		cmp	r5, fp
 1156 009a F1D1     		bne	.L45
 1157              	.LVL196:
 1158              	.L35:
 1159              	.LBE3:
 646:Generated_Source\PSoC4/GLCD_1.c **** 		}
 647:Generated_Source\PSoC4/GLCD_1.c **** 	}
 648:Generated_Source\PSoC4/GLCD_1.c **** }
 1160              		.loc 1 648 0
 1161 009c 03B0     		add	sp, sp, #12
 1162              		@ sp needed
 1163              	.LVL197:
 1164              	.LVL198:
 1165              	.LVL199:
 1166              	.LVL200:
 1167              	.LVL201:
 1168              	.LVL202:
 1169              	.LVL203:
 1170 009e 3CBC     		pop	{r2, r3, r4, r5}
 1171 00a0 9046     		mov	r8, r2
 1172 00a2 9946     		mov	r9, r3
 1173 00a4 A246     		mov	r10, r4
 1174 00a6 AB46     		mov	fp, r5
 1175 00a8 F0BD     		pop	{r4, r5, r6, r7, pc}
 1176              		.cfi_endproc
 1177              	.LFE11:
 1178              		.size	GLCD_1_DrawLine, .-GLCD_1_DrawLine
 1179 00aa C046     		.section	.text.GLCD_1_DrawRect,"ax",%progbits
 1180              		.align	2
 1181              		.global	GLCD_1_DrawRect
 1182              		.code	16
 1183              		.thumb_func
 1184              		.type	GLCD_1_DrawRect, %function
 1185              	GLCD_1_DrawRect:
 1186              	.LFB12:
 649:Generated_Source\PSoC4/GLCD_1.c **** 
 650:Generated_Source\PSoC4/GLCD_1.c **** /*******************************************************************************
 651:Generated_Source\PSoC4/GLCD_1.c **** * Function Name: GLCD_1_DrawRect
 652:Generated_Source\PSoC4/GLCD_1.c **** ********************************************************************************
 653:Generated_Source\PSoC4/GLCD_1.c **** *
 654:Generated_Source\PSoC4/GLCD_1.c **** * Summary:
 655:Generated_Source\PSoC4/GLCD_1.c **** *  Draw a rectangle, filled or not.  
 656:Generated_Source\PSoC4/GLCD_1.c **** *
 657:Generated_Source\PSoC4/GLCD_1.c **** * Parameters:  
 658:Generated_Source\PSoC4/GLCD_1.c **** *  x0, y0:  The upper lefthand corner.
ARM GAS  C:\Users\sur\AppData\Local\Temp\ccADm5l6.s 			page 34


 659:Generated_Source\PSoC4/GLCD_1.c **** *  x1, y1:  The lower right corner.
 660:Generated_Source\PSoC4/GLCD_1.c **** *  fill:    Non-Zero if retangle is to be filled.
 661:Generated_Source\PSoC4/GLCD_1.c **** *  color:   Color for rectangle, border and fill.
 662:Generated_Source\PSoC4/GLCD_1.c **** *
 663:Generated_Source\PSoC4/GLCD_1.c **** * Return: 
 664:Generated_Source\PSoC4/GLCD_1.c **** *  None 
 665:Generated_Source\PSoC4/GLCD_1.c **** *  
 666:Generated_Source\PSoC4/GLCD_1.c **** *******************************************************************************/
 667:Generated_Source\PSoC4/GLCD_1.c **** void GLCD_1_DrawRect(int32 x0, int32 y0, int32 x1, int32 y1, int32 fill, int32 color)
 668:Generated_Source\PSoC4/GLCD_1.c **** {	
 1187              		.loc 1 668 0
 1188              		.cfi_startproc
 1189              		@ args = 8, pretend = 0, frame = 8
 1190              		@ frame_needed = 0, uses_anonymous_args = 0
 1191              	.LVL204:
 1192 0000 F0B5     		push	{r4, r5, r6, r7, lr}
 1193              		.cfi_def_cfa_offset 20
 1194              		.cfi_offset 4, -20
 1195              		.cfi_offset 5, -16
 1196              		.cfi_offset 6, -12
 1197              		.cfi_offset 7, -8
 1198              		.cfi_offset 14, -4
 1199 0002 85B0     		sub	sp, sp, #20
 1200              		.cfi_def_cfa_offset 40
 1201 0004 0400     		movs	r4, r0
 1202 0006 0391     		str	r1, [sp, #12]
 1203 0008 1600     		movs	r6, r2
 1204 000a 0293     		str	r3, [sp, #8]
 1205 000c 0B9F     		ldr	r7, [sp, #44]
 669:Generated_Source\PSoC4/GLCD_1.c ****      int xDiff;
 670:Generated_Source\PSoC4/GLCD_1.c **** 	/* Check if the rectangle is to be filled    */
 671:Generated_Source\PSoC4/GLCD_1.c **** 	if (fill != 0)
 1206              		.loc 1 671 0
 1207 000e 0A9B     		ldr	r3, [sp, #40]
 1208              	.LVL205:
 1209 0010 002B     		cmp	r3, #0
 1210 0012 15D0     		beq	.L49
 672:Generated_Source\PSoC4/GLCD_1.c **** 	{	
 673:Generated_Source\PSoC4/GLCD_1.c ****         /* Find the difference between the x vars */
 674:Generated_Source\PSoC4/GLCD_1.c **** 		if(x0 > x1)
 1211              		.loc 1 674 0
 1212 0014 9042     		cmp	r0, r2
 1213 0016 01DD     		ble	.L50
 675:Generated_Source\PSoC4/GLCD_1.c **** 		{
 676:Generated_Source\PSoC4/GLCD_1.c **** 			xDiff = x0 - x1; 
 1214              		.loc 1 676 0
 1215 0018 851A     		subs	r5, r0, r2
 1216              	.LVL206:
 1217 001a 0EE0     		b	.L51
 1218              	.LVL207:
 1219              	.L50:
 677:Generated_Source\PSoC4/GLCD_1.c **** 		}
 678:Generated_Source\PSoC4/GLCD_1.c **** 		else
 679:Generated_Source\PSoC4/GLCD_1.c **** 		{
 680:Generated_Source\PSoC4/GLCD_1.c **** 			xDiff = x1 - x0;
 1220              		.loc 1 680 0
 1221 001c 151A     		subs	r5, r2, r0
ARM GAS  C:\Users\sur\AppData\Local\Temp\ccADm5l6.s 			page 35


 1222              	.LVL208:
 1223 001e 0CE0     		b	.L51
 1224              	.LVL209:
 1225              	.L55:
 681:Generated_Source\PSoC4/GLCD_1.c **** 		}
 682:Generated_Source\PSoC4/GLCD_1.c **** 	
 683:Generated_Source\PSoC4/GLCD_1.c **** 	    /* Fill it with lines  */
 684:Generated_Source\PSoC4/GLCD_1.c **** 		while(xDiff >= 0)
 685:Generated_Source\PSoC4/GLCD_1.c **** 		{
 686:Generated_Source\PSoC4/GLCD_1.c **** 			GLCD_1_DrawLine(x0, y0, x0, y1, color);
 1226              		.loc 1 686 0
 1227 0020 0097     		str	r7, [sp]
 1228 0022 029B     		ldr	r3, [sp, #8]
 1229 0024 2200     		movs	r2, r4
 1230 0026 0399     		ldr	r1, [sp, #12]
 1231 0028 2000     		movs	r0, r4
 1232 002a FFF7FEFF 		bl	GLCD_1_DrawLine
 1233              	.LVL210:
 687:Generated_Source\PSoC4/GLCD_1.c **** 		
 688:Generated_Source\PSoC4/GLCD_1.c **** 			if(x0 > x1)
 1234              		.loc 1 688 0
 1235 002e B442     		cmp	r4, r6
 1236 0030 01DD     		ble	.L53
 689:Generated_Source\PSoC4/GLCD_1.c **** 				x0--;
 1237              		.loc 1 689 0
 1238 0032 013C     		subs	r4, r4, #1
 1239              	.LVL211:
 1240 0034 00E0     		b	.L54
 1241              	.L53:
 690:Generated_Source\PSoC4/GLCD_1.c **** 			else
 691:Generated_Source\PSoC4/GLCD_1.c **** 				x0++;
 1242              		.loc 1 691 0
 1243 0036 0134     		adds	r4, r4, #1
 1244              	.LVL212:
 1245              	.L54:
 692:Generated_Source\PSoC4/GLCD_1.c **** 		
 693:Generated_Source\PSoC4/GLCD_1.c **** 			xDiff--;
 1246              		.loc 1 693 0
 1247 0038 013D     		subs	r5, r5, #1
 1248              	.LVL213:
 1249              	.L51:
 684:Generated_Source\PSoC4/GLCD_1.c **** 		{
 1250              		.loc 1 684 0
 1251 003a 002D     		cmp	r5, #0
 1252 003c F0DA     		bge	.L55
 1253 003e 1AE0     		b	.L48
 1254              	.LVL214:
 1255              	.L49:
 694:Generated_Source\PSoC4/GLCD_1.c **** 		}
 695:Generated_Source\PSoC4/GLCD_1.c **** 
 696:Generated_Source\PSoC4/GLCD_1.c **** 	}
 697:Generated_Source\PSoC4/GLCD_1.c **** 	else 
 698:Generated_Source\PSoC4/GLCD_1.c **** 	{
 699:Generated_Source\PSoC4/GLCD_1.c **** 		/* Draw the four sides of the rectangle */
 700:Generated_Source\PSoC4/GLCD_1.c **** 		GLCD_1_DrawLine(x0, y0, x1, y0, color);
 1256              		.loc 1 700 0
 1257 0040 0097     		str	r7, [sp]
ARM GAS  C:\Users\sur\AppData\Local\Temp\ccADm5l6.s 			page 36


 1258 0042 039D     		ldr	r5, [sp, #12]
 1259 0044 2B00     		movs	r3, r5
 1260 0046 2900     		movs	r1, r5
 1261              	.LVL215:
 1262 0048 FFF7FEFF 		bl	GLCD_1_DrawLine
 1263              	.LVL216:
 701:Generated_Source\PSoC4/GLCD_1.c **** 		GLCD_1_DrawLine(x0, y1, x1, y1, color);
 1264              		.loc 1 701 0
 1265 004c 0097     		str	r7, [sp]
 1266 004e 0299     		ldr	r1, [sp, #8]
 1267 0050 0B00     		movs	r3, r1
 1268 0052 3200     		movs	r2, r6
 1269 0054 2000     		movs	r0, r4
 1270 0056 FFF7FEFF 		bl	GLCD_1_DrawLine
 1271              	.LVL217:
 702:Generated_Source\PSoC4/GLCD_1.c **** 		GLCD_1_DrawLine(x0, y0, x0, y1, color);
 1272              		.loc 1 702 0
 1273 005a 0097     		str	r7, [sp]
 1274 005c 029B     		ldr	r3, [sp, #8]
 1275 005e 2200     		movs	r2, r4
 1276 0060 2900     		movs	r1, r5
 1277 0062 2000     		movs	r0, r4
 1278 0064 FFF7FEFF 		bl	GLCD_1_DrawLine
 1279              	.LVL218:
 703:Generated_Source\PSoC4/GLCD_1.c **** 		GLCD_1_DrawLine(x1, y0, x1, y1, color);
 1280              		.loc 1 703 0
 1281 0068 0097     		str	r7, [sp]
 1282 006a 029B     		ldr	r3, [sp, #8]
 1283 006c 3200     		movs	r2, r6
 1284 006e 2900     		movs	r1, r5
 1285 0070 3000     		movs	r0, r6
 1286 0072 FFF7FEFF 		bl	GLCD_1_DrawLine
 1287              	.LVL219:
 1288              	.L48:
 704:Generated_Source\PSoC4/GLCD_1.c **** 	}
 705:Generated_Source\PSoC4/GLCD_1.c **** }
 1289              		.loc 1 705 0
 1290 0076 05B0     		add	sp, sp, #20
 1291              		@ sp needed
 1292              	.LVL220:
 1293              	.LVL221:
 1294 0078 F0BD     		pop	{r4, r5, r6, r7, pc}
 1295              		.cfi_endproc
 1296              	.LFE12:
 1297              		.size	GLCD_1_DrawRect, .-GLCD_1_DrawRect
 1298 007a C046     		.section	.text.GLCD_1_Off,"ax",%progbits
 1299              		.align	2
 1300              		.global	GLCD_1_Off
 1301              		.code	16
 1302              		.thumb_func
 1303              		.type	GLCD_1_Off, %function
 1304              	GLCD_1_Off:
 1305              	.LFB13:
 706:Generated_Source\PSoC4/GLCD_1.c **** 
 707:Generated_Source\PSoC4/GLCD_1.c **** 
 708:Generated_Source\PSoC4/GLCD_1.c **** /*******************************************************************************
 709:Generated_Source\PSoC4/GLCD_1.c **** * Function Name: GLCD_1_Off
ARM GAS  C:\Users\sur\AppData\Local\Temp\ccADm5l6.s 			page 37


 710:Generated_Source\PSoC4/GLCD_1.c **** ********************************************************************************
 711:Generated_Source\PSoC4/GLCD_1.c **** *
 712:Generated_Source\PSoC4/GLCD_1.c **** * Summary:
 713:Generated_Source\PSoC4/GLCD_1.c **** *  Turn off display
 714:Generated_Source\PSoC4/GLCD_1.c **** *
 715:Generated_Source\PSoC4/GLCD_1.c **** * Parameters:  
 716:Generated_Source\PSoC4/GLCD_1.c **** *  None 
 717:Generated_Source\PSoC4/GLCD_1.c **** *
 718:Generated_Source\PSoC4/GLCD_1.c **** * Return: 
 719:Generated_Source\PSoC4/GLCD_1.c **** *  None 
 720:Generated_Source\PSoC4/GLCD_1.c **** *  
 721:Generated_Source\PSoC4/GLCD_1.c **** *******************************************************************************/
 722:Generated_Source\PSoC4/GLCD_1.c **** void GLCD_1_Off(void)		/* Turn off the display  */
 723:Generated_Source\PSoC4/GLCD_1.c **** {
 1306              		.loc 1 723 0
 1307              		.cfi_startproc
 1308              		@ args = 0, pretend = 0, frame = 0
 1309              		@ frame_needed = 0, uses_anonymous_args = 0
 1310 0000 10B5     		push	{r4, lr}
 1311              		.cfi_def_cfa_offset 8
 1312              		.cfi_offset 4, -8
 1313              		.cfi_offset 14, -4
 724:Generated_Source\PSoC4/GLCD_1.c ****     GLCD_1_Command(GLCD_1_DISPOFF);
 1314              		.loc 1 724 0
 1315 0002 2820     		movs	r0, #40
 1316 0004 FFF7FEFF 		bl	GLCD_1_Command
 1317              	.LVL222:
 725:Generated_Source\PSoC4/GLCD_1.c **** }
 1318              		.loc 1 725 0
 1319              		@ sp needed
 1320 0008 10BD     		pop	{r4, pc}
 1321              		.cfi_endproc
 1322              	.LFE13:
 1323              		.size	GLCD_1_Off, .-GLCD_1_Off
 1324 000a C046     		.section	.text.GLCD_1_On,"ax",%progbits
 1325              		.align	2
 1326              		.global	GLCD_1_On
 1327              		.code	16
 1328              		.thumb_func
 1329              		.type	GLCD_1_On, %function
 1330              	GLCD_1_On:
 1331              	.LFB14:
 726:Generated_Source\PSoC4/GLCD_1.c **** 
 727:Generated_Source\PSoC4/GLCD_1.c **** /*******************************************************************************
 728:Generated_Source\PSoC4/GLCD_1.c **** * Function Name: GLCD_1_On
 729:Generated_Source\PSoC4/GLCD_1.c **** ********************************************************************************
 730:Generated_Source\PSoC4/GLCD_1.c **** *
 731:Generated_Source\PSoC4/GLCD_1.c **** * Summary:
 732:Generated_Source\PSoC4/GLCD_1.c **** *  Turn on display
 733:Generated_Source\PSoC4/GLCD_1.c **** *
 734:Generated_Source\PSoC4/GLCD_1.c **** * Parameters:  
 735:Generated_Source\PSoC4/GLCD_1.c **** *  None 
 736:Generated_Source\PSoC4/GLCD_1.c **** *
 737:Generated_Source\PSoC4/GLCD_1.c **** * Return: 
 738:Generated_Source\PSoC4/GLCD_1.c **** *  None 
 739:Generated_Source\PSoC4/GLCD_1.c **** *  
 740:Generated_Source\PSoC4/GLCD_1.c **** *******************************************************************************/
ARM GAS  C:\Users\sur\AppData\Local\Temp\ccADm5l6.s 			page 38


 741:Generated_Source\PSoC4/GLCD_1.c **** void GLCD_1_On(void)		/* Turn on the display */
 742:Generated_Source\PSoC4/GLCD_1.c **** {
 1332              		.loc 1 742 0
 1333              		.cfi_startproc
 1334              		@ args = 0, pretend = 0, frame = 0
 1335              		@ frame_needed = 0, uses_anonymous_args = 0
 1336 0000 10B5     		push	{r4, lr}
 1337              		.cfi_def_cfa_offset 8
 1338              		.cfi_offset 4, -8
 1339              		.cfi_offset 14, -4
 743:Generated_Source\PSoC4/GLCD_1.c ****     GLCD_1_Command(GLCD_1_DISPON);
 1340              		.loc 1 743 0
 1341 0002 2920     		movs	r0, #41
 1342 0004 FFF7FEFF 		bl	GLCD_1_Command
 1343              	.LVL223:
 744:Generated_Source\PSoC4/GLCD_1.c **** }
 1344              		.loc 1 744 0
 1345              		@ sp needed
 1346 0008 10BD     		pop	{r4, pc}
 1347              		.cfi_endproc
 1348              	.LFE14:
 1349              		.size	GLCD_1_On, .-GLCD_1_On
 1350              		.comm	GLCD_1_driver,1,1
 1351              		.comm	GLCD_1_FONT8x16,1552,4
 1352 000a C046     		.text
 1353              	.Letext0:
 1354              		.file 2 "Generated_Source\\PSoC4\\cytypes.h"
 1355              		.file 3 "Generated_Source\\PSoC4\\GLCD_1.h"
 1356              		.file 4 "Generated_Source\\PSoC4\\GLCD_1_SPIM_UDB.h"
 1357              		.file 5 "Generated_Source\\PSoC4\\CyLib.h"
 1358              		.file 6 "Generated_Source\\PSoC4\\GLCD_1_Reset.h"