ARM GAS  C:\Users\sur\AppData\Local\Temp\cctIuAzq.s 			page 1


   1              		.syntax unified
   2              		.cpu cortex-m0
   3              		.fpu softvfp
   4              		.eabi_attribute 20, 1
   5              		.eabi_attribute 21, 1
   6              		.eabi_attribute 23, 3
   7              		.eabi_attribute 24, 1
   8              		.eabi_attribute 25, 1
   9              		.eabi_attribute 26, 1
  10              		.eabi_attribute 30, 1
  11              		.eabi_attribute 34, 0
  12              		.eabi_attribute 18, 4
  13              		.thumb
  14              		.syntax unified
  15              		.file	"GLCD_1_Reset.c"
  16              		.text
  17              	.Ltext0:
  18              		.cfi_sections	.debug_frame
  19              		.section	.text.GLCD_1_Reset_Write,"ax",%progbits
  20              		.align	2
  21              		.global	GLCD_1_Reset_Write
  22              		.code	16
  23              		.thumb_func
  24              		.type	GLCD_1_Reset_Write, %function
  25              	GLCD_1_Reset_Write:
  26              	.LFB0:
  27              		.file 1 "Generated_Source\\PSoC4\\GLCD_1_Reset.c"
   1:Generated_Source\PSoC4/GLCD_1_Reset.c **** /*******************************************************************************
   2:Generated_Source\PSoC4/GLCD_1_Reset.c **** * File Name: GLCD_1_Reset.c  
   3:Generated_Source\PSoC4/GLCD_1_Reset.c **** * Version 1.90
   4:Generated_Source\PSoC4/GLCD_1_Reset.c **** *
   5:Generated_Source\PSoC4/GLCD_1_Reset.c **** * Description:
   6:Generated_Source\PSoC4/GLCD_1_Reset.c **** *  This file contains API to enable firmware control of a Pins component.
   7:Generated_Source\PSoC4/GLCD_1_Reset.c **** *
   8:Generated_Source\PSoC4/GLCD_1_Reset.c **** * Note:
   9:Generated_Source\PSoC4/GLCD_1_Reset.c **** *
  10:Generated_Source\PSoC4/GLCD_1_Reset.c **** ********************************************************************************
  11:Generated_Source\PSoC4/GLCD_1_Reset.c **** * Copyright 2008-2012, Cypress Semiconductor Corporation.  All rights reserved.
  12:Generated_Source\PSoC4/GLCD_1_Reset.c **** * You may use this file only in accordance with the license, terms, conditions, 
  13:Generated_Source\PSoC4/GLCD_1_Reset.c **** * disclaimers, and limitations in the end user license agreement accompanying 
  14:Generated_Source\PSoC4/GLCD_1_Reset.c **** * the software package with which this file was provided.
  15:Generated_Source\PSoC4/GLCD_1_Reset.c **** *******************************************************************************/
  16:Generated_Source\PSoC4/GLCD_1_Reset.c **** 
  17:Generated_Source\PSoC4/GLCD_1_Reset.c **** #include "cytypes.h"
  18:Generated_Source\PSoC4/GLCD_1_Reset.c **** #include "GLCD_1_Reset.h"
  19:Generated_Source\PSoC4/GLCD_1_Reset.c **** 
  20:Generated_Source\PSoC4/GLCD_1_Reset.c **** #define SetP4PinDriveMode(shift, mode)  \
  21:Generated_Source\PSoC4/GLCD_1_Reset.c ****     do { \
  22:Generated_Source\PSoC4/GLCD_1_Reset.c ****         GLCD_1_Reset_PC =   (GLCD_1_Reset_PC & \
  23:Generated_Source\PSoC4/GLCD_1_Reset.c ****                                 (uint32)(~(uint32)(GLCD_1_Reset_DRIVE_MODE_IND_MASK << (GLCD_1_Rese
  24:Generated_Source\PSoC4/GLCD_1_Reset.c ****                                 (uint32)((uint32)(mode) << (GLCD_1_Reset_DRIVE_MODE_BITS * (shift))
  25:Generated_Source\PSoC4/GLCD_1_Reset.c ****     } while (0)
  26:Generated_Source\PSoC4/GLCD_1_Reset.c **** 
  27:Generated_Source\PSoC4/GLCD_1_Reset.c **** 
  28:Generated_Source\PSoC4/GLCD_1_Reset.c **** /*******************************************************************************
  29:Generated_Source\PSoC4/GLCD_1_Reset.c **** * Function Name: GLCD_1_Reset_Write
  30:Generated_Source\PSoC4/GLCD_1_Reset.c **** ********************************************************************************
ARM GAS  C:\Users\sur\AppData\Local\Temp\cctIuAzq.s 			page 2


  31:Generated_Source\PSoC4/GLCD_1_Reset.c **** *
  32:Generated_Source\PSoC4/GLCD_1_Reset.c **** * Summary:
  33:Generated_Source\PSoC4/GLCD_1_Reset.c **** *  Assign a new value to the digital port's data output register.  
  34:Generated_Source\PSoC4/GLCD_1_Reset.c **** *
  35:Generated_Source\PSoC4/GLCD_1_Reset.c **** * Parameters:  
  36:Generated_Source\PSoC4/GLCD_1_Reset.c **** *  prtValue:  The value to be assigned to the Digital Port. 
  37:Generated_Source\PSoC4/GLCD_1_Reset.c **** *
  38:Generated_Source\PSoC4/GLCD_1_Reset.c **** * Return: 
  39:Generated_Source\PSoC4/GLCD_1_Reset.c **** *  None 
  40:Generated_Source\PSoC4/GLCD_1_Reset.c **** *  
  41:Generated_Source\PSoC4/GLCD_1_Reset.c **** *******************************************************************************/
  42:Generated_Source\PSoC4/GLCD_1_Reset.c **** void GLCD_1_Reset_Write(uint8 value) 
  43:Generated_Source\PSoC4/GLCD_1_Reset.c **** {
  28              		.loc 1 43 0
  29              		.cfi_startproc
  30              		@ args = 0, pretend = 0, frame = 0
  31              		@ frame_needed = 0, uses_anonymous_args = 0
  32              		@ link register save eliminated.
  33              	.LVL0:
  44:Generated_Source\PSoC4/GLCD_1_Reset.c ****     uint8 drVal = (uint8)(GLCD_1_Reset_DR & (uint8)(~GLCD_1_Reset_MASK));
  34              		.loc 1 44 0
  35 0000 0449     		ldr	r1, .L2
  36 0002 0A68     		ldr	r2, [r1]
  37 0004 D2B2     		uxtb	r2, r2
  38 0006 0223     		movs	r3, #2
  39 0008 9A43     		bics	r2, r3
  40              	.LVL1:
  45:Generated_Source\PSoC4/GLCD_1_Reset.c ****     drVal = (drVal | ((uint8)(value << GLCD_1_Reset_SHIFT) & GLCD_1_Reset_MASK));
  41              		.loc 1 45 0
  42 000a 4000     		lsls	r0, r0, #1
  43              	.LVL2:
  44 000c 1840     		ands	r0, r3
  45 000e 1043     		orrs	r0, r2
  46              	.LVL3:
  46:Generated_Source\PSoC4/GLCD_1_Reset.c ****     GLCD_1_Reset_DR = (uint32)drVal;
  47              		.loc 1 46 0
  48 0010 0860     		str	r0, [r1]
  47:Generated_Source\PSoC4/GLCD_1_Reset.c **** }
  49              		.loc 1 47 0
  50              		@ sp needed
  51 0012 7047     		bx	lr
  52              	.L3:
  53              		.align	2
  54              	.L2:
  55 0014 00030440 		.word	1074004736
  56              		.cfi_endproc
  57              	.LFE0:
  58              		.size	GLCD_1_Reset_Write, .-GLCD_1_Reset_Write
  59              		.section	.text.GLCD_1_Reset_SetDriveMode,"ax",%progbits
  60              		.align	2
  61              		.global	GLCD_1_Reset_SetDriveMode
  62              		.code	16
  63              		.thumb_func
  64              		.type	GLCD_1_Reset_SetDriveMode, %function
  65              	GLCD_1_Reset_SetDriveMode:
  66              	.LFB1:
  48:Generated_Source\PSoC4/GLCD_1_Reset.c **** 
ARM GAS  C:\Users\sur\AppData\Local\Temp\cctIuAzq.s 			page 3


  49:Generated_Source\PSoC4/GLCD_1_Reset.c **** 
  50:Generated_Source\PSoC4/GLCD_1_Reset.c **** /*******************************************************************************
  51:Generated_Source\PSoC4/GLCD_1_Reset.c **** * Function Name: GLCD_1_Reset_SetDriveMode
  52:Generated_Source\PSoC4/GLCD_1_Reset.c **** ********************************************************************************
  53:Generated_Source\PSoC4/GLCD_1_Reset.c **** *
  54:Generated_Source\PSoC4/GLCD_1_Reset.c **** * Summary:
  55:Generated_Source\PSoC4/GLCD_1_Reset.c **** *  Change the drive mode on the pins of the port.
  56:Generated_Source\PSoC4/GLCD_1_Reset.c **** * 
  57:Generated_Source\PSoC4/GLCD_1_Reset.c **** * Parameters:  
  58:Generated_Source\PSoC4/GLCD_1_Reset.c **** *  mode:  Change the pins to this drive mode.
  59:Generated_Source\PSoC4/GLCD_1_Reset.c **** *
  60:Generated_Source\PSoC4/GLCD_1_Reset.c **** * Return: 
  61:Generated_Source\PSoC4/GLCD_1_Reset.c **** *  None
  62:Generated_Source\PSoC4/GLCD_1_Reset.c **** *
  63:Generated_Source\PSoC4/GLCD_1_Reset.c **** *******************************************************************************/
  64:Generated_Source\PSoC4/GLCD_1_Reset.c **** void GLCD_1_Reset_SetDriveMode(uint8 mode) 
  65:Generated_Source\PSoC4/GLCD_1_Reset.c **** {
  67              		.loc 1 65 0
  68              		.cfi_startproc
  69              		@ args = 0, pretend = 0, frame = 0
  70              		@ frame_needed = 0, uses_anonymous_args = 0
  71              		@ link register save eliminated.
  72              	.LVL4:
  66:Generated_Source\PSoC4/GLCD_1_Reset.c **** 	SetP4PinDriveMode(GLCD_1_Reset__0__SHIFT, mode);
  73              		.loc 1 66 0
  74 0000 034A     		ldr	r2, .L5
  75 0002 1368     		ldr	r3, [r2]
  76 0004 3821     		movs	r1, #56
  77 0006 8B43     		bics	r3, r1
  78 0008 C000     		lsls	r0, r0, #3
  79              	.LVL5:
  80 000a 1843     		orrs	r0, r3
  81 000c 1060     		str	r0, [r2]
  67:Generated_Source\PSoC4/GLCD_1_Reset.c **** }
  82              		.loc 1 67 0
  83              		@ sp needed
  84 000e 7047     		bx	lr
  85              	.L6:
  86              		.align	2
  87              	.L5:
  88 0010 08030440 		.word	1074004744
  89              		.cfi_endproc
  90              	.LFE1:
  91              		.size	GLCD_1_Reset_SetDriveMode, .-GLCD_1_Reset_SetDriveMode
  92              		.section	.text.GLCD_1_Reset_Read,"ax",%progbits
  93              		.align	2
  94              		.global	GLCD_1_Reset_Read
  95              		.code	16
  96              		.thumb_func
  97              		.type	GLCD_1_Reset_Read, %function
  98              	GLCD_1_Reset_Read:
  99              	.LFB2:
  68:Generated_Source\PSoC4/GLCD_1_Reset.c **** 
  69:Generated_Source\PSoC4/GLCD_1_Reset.c **** 
  70:Generated_Source\PSoC4/GLCD_1_Reset.c **** /*******************************************************************************
  71:Generated_Source\PSoC4/GLCD_1_Reset.c **** * Function Name: GLCD_1_Reset_Read
  72:Generated_Source\PSoC4/GLCD_1_Reset.c **** ********************************************************************************
ARM GAS  C:\Users\sur\AppData\Local\Temp\cctIuAzq.s 			page 4


  73:Generated_Source\PSoC4/GLCD_1_Reset.c **** *
  74:Generated_Source\PSoC4/GLCD_1_Reset.c **** * Summary:
  75:Generated_Source\PSoC4/GLCD_1_Reset.c **** *  Read the current value on the pins of the Digital Port in right justified 
  76:Generated_Source\PSoC4/GLCD_1_Reset.c **** *  form.
  77:Generated_Source\PSoC4/GLCD_1_Reset.c **** *
  78:Generated_Source\PSoC4/GLCD_1_Reset.c **** * Parameters:  
  79:Generated_Source\PSoC4/GLCD_1_Reset.c **** *  None 
  80:Generated_Source\PSoC4/GLCD_1_Reset.c **** *
  81:Generated_Source\PSoC4/GLCD_1_Reset.c **** * Return: 
  82:Generated_Source\PSoC4/GLCD_1_Reset.c **** *  Returns the current value of the Digital Port as a right justified number
  83:Generated_Source\PSoC4/GLCD_1_Reset.c **** *  
  84:Generated_Source\PSoC4/GLCD_1_Reset.c **** * Note:
  85:Generated_Source\PSoC4/GLCD_1_Reset.c **** *  Macro GLCD_1_Reset_ReadPS calls this function. 
  86:Generated_Source\PSoC4/GLCD_1_Reset.c **** *  
  87:Generated_Source\PSoC4/GLCD_1_Reset.c **** *******************************************************************************/
  88:Generated_Source\PSoC4/GLCD_1_Reset.c **** uint8 GLCD_1_Reset_Read(void) 
  89:Generated_Source\PSoC4/GLCD_1_Reset.c **** {
 100              		.loc 1 89 0
 101              		.cfi_startproc
 102              		@ args = 0, pretend = 0, frame = 0
 103              		@ frame_needed = 0, uses_anonymous_args = 0
 104              		@ link register save eliminated.
  90:Generated_Source\PSoC4/GLCD_1_Reset.c ****     return (uint8)((GLCD_1_Reset_PS & GLCD_1_Reset_MASK) >> GLCD_1_Reset_SHIFT);
 105              		.loc 1 90 0
 106 0000 024B     		ldr	r3, .L8
 107 0002 1868     		ldr	r0, [r3]
 108 0004 4008     		lsrs	r0, r0, #1
 109 0006 0123     		movs	r3, #1
 110 0008 1840     		ands	r0, r3
  91:Generated_Source\PSoC4/GLCD_1_Reset.c **** }
 111              		.loc 1 91 0
 112              		@ sp needed
 113 000a 7047     		bx	lr
 114              	.L9:
 115              		.align	2
 116              	.L8:
 117 000c 04030440 		.word	1074004740
 118              		.cfi_endproc
 119              	.LFE2:
 120              		.size	GLCD_1_Reset_Read, .-GLCD_1_Reset_Read
 121              		.section	.text.GLCD_1_Reset_ReadDataReg,"ax",%progbits
 122              		.align	2
 123              		.global	GLCD_1_Reset_ReadDataReg
 124              		.code	16
 125              		.thumb_func
 126              		.type	GLCD_1_Reset_ReadDataReg, %function
 127              	GLCD_1_Reset_ReadDataReg:
 128              	.LFB3:
  92:Generated_Source\PSoC4/GLCD_1_Reset.c **** 
  93:Generated_Source\PSoC4/GLCD_1_Reset.c **** 
  94:Generated_Source\PSoC4/GLCD_1_Reset.c **** /*******************************************************************************
  95:Generated_Source\PSoC4/GLCD_1_Reset.c **** * Function Name: GLCD_1_Reset_ReadDataReg
  96:Generated_Source\PSoC4/GLCD_1_Reset.c **** ********************************************************************************
  97:Generated_Source\PSoC4/GLCD_1_Reset.c **** *
  98:Generated_Source\PSoC4/GLCD_1_Reset.c **** * Summary:
  99:Generated_Source\PSoC4/GLCD_1_Reset.c **** *  Read the current value assigned to a Digital Port's data output register
 100:Generated_Source\PSoC4/GLCD_1_Reset.c **** *
ARM GAS  C:\Users\sur\AppData\Local\Temp\cctIuAzq.s 			page 5


 101:Generated_Source\PSoC4/GLCD_1_Reset.c **** * Parameters:  
 102:Generated_Source\PSoC4/GLCD_1_Reset.c **** *  None 
 103:Generated_Source\PSoC4/GLCD_1_Reset.c **** *
 104:Generated_Source\PSoC4/GLCD_1_Reset.c **** * Return: 
 105:Generated_Source\PSoC4/GLCD_1_Reset.c **** *  Returns the current value assigned to the Digital Port's data output register
 106:Generated_Source\PSoC4/GLCD_1_Reset.c **** *  
 107:Generated_Source\PSoC4/GLCD_1_Reset.c **** *******************************************************************************/
 108:Generated_Source\PSoC4/GLCD_1_Reset.c **** uint8 GLCD_1_Reset_ReadDataReg(void) 
 109:Generated_Source\PSoC4/GLCD_1_Reset.c **** {
 129              		.loc 1 109 0
 130              		.cfi_startproc
 131              		@ args = 0, pretend = 0, frame = 0
 132              		@ frame_needed = 0, uses_anonymous_args = 0
 133              		@ link register save eliminated.
 110:Generated_Source\PSoC4/GLCD_1_Reset.c ****     return (uint8)((GLCD_1_Reset_DR & GLCD_1_Reset_MASK) >> GLCD_1_Reset_SHIFT);
 134              		.loc 1 110 0
 135 0000 024B     		ldr	r3, .L11
 136 0002 1868     		ldr	r0, [r3]
 137 0004 4008     		lsrs	r0, r0, #1
 138 0006 0123     		movs	r3, #1
 139 0008 1840     		ands	r0, r3
 111:Generated_Source\PSoC4/GLCD_1_Reset.c **** }
 140              		.loc 1 111 0
 141              		@ sp needed
 142 000a 7047     		bx	lr
 143              	.L12:
 144              		.align	2
 145              	.L11:
 146 000c 00030440 		.word	1074004736
 147              		.cfi_endproc
 148              	.LFE3:
 149              		.size	GLCD_1_Reset_ReadDataReg, .-GLCD_1_Reset_ReadDataReg
 150              		.section	.text.GLCD_1_Reset_ClearInterrupt,"ax",%progbits
 151              		.align	2
 152              		.global	GLCD_1_Reset_ClearInterrupt
 153              		.code	16
 154              		.thumb_func
 155              		.type	GLCD_1_Reset_ClearInterrupt, %function
 156              	GLCD_1_Reset_ClearInterrupt:
 157              	.LFB4:
 112:Generated_Source\PSoC4/GLCD_1_Reset.c **** 
 113:Generated_Source\PSoC4/GLCD_1_Reset.c **** 
 114:Generated_Source\PSoC4/GLCD_1_Reset.c **** /* If Interrupts Are Enabled for this Pins component */ 
 115:Generated_Source\PSoC4/GLCD_1_Reset.c **** #if defined(GLCD_1_Reset_INTSTAT) 
 116:Generated_Source\PSoC4/GLCD_1_Reset.c **** 
 117:Generated_Source\PSoC4/GLCD_1_Reset.c ****     /*******************************************************************************
 118:Generated_Source\PSoC4/GLCD_1_Reset.c ****     * Function Name: GLCD_1_Reset_ClearInterrupt
 119:Generated_Source\PSoC4/GLCD_1_Reset.c ****     ********************************************************************************
 120:Generated_Source\PSoC4/GLCD_1_Reset.c ****     *
 121:Generated_Source\PSoC4/GLCD_1_Reset.c ****     * Summary:
 122:Generated_Source\PSoC4/GLCD_1_Reset.c ****     *  Clears any active interrupts attached to port and returns the value of the 
 123:Generated_Source\PSoC4/GLCD_1_Reset.c ****     *  interrupt status register.
 124:Generated_Source\PSoC4/GLCD_1_Reset.c ****     *
 125:Generated_Source\PSoC4/GLCD_1_Reset.c ****     * Parameters:  
 126:Generated_Source\PSoC4/GLCD_1_Reset.c ****     *  None 
 127:Generated_Source\PSoC4/GLCD_1_Reset.c ****     *
 128:Generated_Source\PSoC4/GLCD_1_Reset.c ****     * Return: 
ARM GAS  C:\Users\sur\AppData\Local\Temp\cctIuAzq.s 			page 6


 129:Generated_Source\PSoC4/GLCD_1_Reset.c ****     *  Returns the value of the interrupt status register
 130:Generated_Source\PSoC4/GLCD_1_Reset.c ****     *  
 131:Generated_Source\PSoC4/GLCD_1_Reset.c ****     *******************************************************************************/
 132:Generated_Source\PSoC4/GLCD_1_Reset.c ****     uint8 GLCD_1_Reset_ClearInterrupt(void) 
 133:Generated_Source\PSoC4/GLCD_1_Reset.c ****     {
 158              		.loc 1 133 0
 159              		.cfi_startproc
 160              		@ args = 0, pretend = 0, frame = 0
 161              		@ frame_needed = 0, uses_anonymous_args = 0
 162              		@ link register save eliminated.
 134:Generated_Source\PSoC4/GLCD_1_Reset.c **** 		uint8 maskedStatus = (uint8)(GLCD_1_Reset_INTSTAT & GLCD_1_Reset_MASK);
 163              		.loc 1 134 0
 164 0000 034A     		ldr	r2, .L14
 165 0002 1068     		ldr	r0, [r2]
 166 0004 0223     		movs	r3, #2
 167 0006 1840     		ands	r0, r3
 168              	.LVL6:
 135:Generated_Source\PSoC4/GLCD_1_Reset.c **** 		GLCD_1_Reset_INTSTAT = maskedStatus;
 169              		.loc 1 135 0
 170 0008 1060     		str	r0, [r2]
 136:Generated_Source\PSoC4/GLCD_1_Reset.c ****         return maskedStatus >> GLCD_1_Reset_SHIFT;
 171              		.loc 1 136 0
 172 000a 4008     		lsrs	r0, r0, #1
 173              	.LVL7:
 174 000c C0B2     		uxtb	r0, r0
 137:Generated_Source\PSoC4/GLCD_1_Reset.c ****     }
 175              		.loc 1 137 0
 176              		@ sp needed
 177 000e 7047     		bx	lr
 178              	.L15:
 179              		.align	2
 180              	.L14:
 181 0010 10030440 		.word	1074004752
 182              		.cfi_endproc
 183              	.LFE4:
 184              		.size	GLCD_1_Reset_ClearInterrupt, .-GLCD_1_Reset_ClearInterrupt
 185              		.text
 186              	.Letext0:
 187              		.file 2 "Generated_Source\\PSoC4\\cytypes.h"