ARM GAS  C:\Users\sur\AppData\Local\Temp\cc5BY4vB.s 			page 1


   1              		.syntax unified
   2              		.cpu cortex-m0
   3              		.fpu softvfp
   4              		.eabi_attribute 20, 1
   5              		.eabi_attribute 21, 1
   6              		.eabi_attribute 23, 3
   7              		.eabi_attribute 24, 1
   8              		.eabi_attribute 25, 1
   9              		.eabi_attribute 26, 1
  10              		.eabi_attribute 30, 1
  11              		.eabi_attribute 34, 0
  12              		.eabi_attribute 18, 4
  13              		.thumb
  14              		.syntax unified
  15              		.file	"GLCD_1_SPIM_UDB.c"
  16              		.text
  17              	.Ltext0:
  18              		.cfi_sections	.debug_frame
  19              		.section	.text.GLCD_1_SPIM_UDB_Enable,"ax",%progbits
  20              		.align	2
  21              		.global	GLCD_1_SPIM_UDB_Enable
  22              		.code	16
  23              		.thumb_func
  24              		.type	GLCD_1_SPIM_UDB_Enable, %function
  25              	GLCD_1_SPIM_UDB_Enable:
  26              	.LFB1:
  27              		.file 1 "Generated_Source\\PSoC4\\GLCD_1_SPIM_UDB.c"
   1:Generated_Source\PSoC4/GLCD_1_SPIM_UDB.c **** /*******************************************************************************
   2:Generated_Source\PSoC4/GLCD_1_SPIM_UDB.c **** * File Name: GLCD_1_SPIM_UDB.c
   3:Generated_Source\PSoC4/GLCD_1_SPIM_UDB.c **** * Version 2.40
   4:Generated_Source\PSoC4/GLCD_1_SPIM_UDB.c **** *
   5:Generated_Source\PSoC4/GLCD_1_SPIM_UDB.c **** * Description:
   6:Generated_Source\PSoC4/GLCD_1_SPIM_UDB.c **** *  This file provides all API functionality of the SPI Master component.
   7:Generated_Source\PSoC4/GLCD_1_SPIM_UDB.c **** *
   8:Generated_Source\PSoC4/GLCD_1_SPIM_UDB.c **** * Note:
   9:Generated_Source\PSoC4/GLCD_1_SPIM_UDB.c **** *  None.
  10:Generated_Source\PSoC4/GLCD_1_SPIM_UDB.c **** *
  11:Generated_Source\PSoC4/GLCD_1_SPIM_UDB.c **** ********************************************************************************
  12:Generated_Source\PSoC4/GLCD_1_SPIM_UDB.c **** * Copyright 2008-2012, Cypress Semiconductor Corporation.  All rights reserved.
  13:Generated_Source\PSoC4/GLCD_1_SPIM_UDB.c **** * You may use this file only in accordance with the license, terms, conditions,
  14:Generated_Source\PSoC4/GLCD_1_SPIM_UDB.c **** * disclaimers, and limitations in the end user license agreement accompanying
  15:Generated_Source\PSoC4/GLCD_1_SPIM_UDB.c **** * the software package with which this file was provided.
  16:Generated_Source\PSoC4/GLCD_1_SPIM_UDB.c **** *******************************************************************************/
  17:Generated_Source\PSoC4/GLCD_1_SPIM_UDB.c **** 
  18:Generated_Source\PSoC4/GLCD_1_SPIM_UDB.c **** #include "GLCD_1_SPIM_UDB_PVT.h"
  19:Generated_Source\PSoC4/GLCD_1_SPIM_UDB.c **** 
  20:Generated_Source\PSoC4/GLCD_1_SPIM_UDB.c **** #if(GLCD_1_SPIM_UDB_TX_SOFTWARE_BUF_ENABLED)
  21:Generated_Source\PSoC4/GLCD_1_SPIM_UDB.c ****     volatile uint16 GLCD_1_SPIM_UDB_txBuffer[GLCD_1_SPIM_UDB_TX_BUFFER_SIZE] = {0u};
  22:Generated_Source\PSoC4/GLCD_1_SPIM_UDB.c ****     volatile uint8 GLCD_1_SPIM_UDB_txBufferFull;
  23:Generated_Source\PSoC4/GLCD_1_SPIM_UDB.c ****     volatile uint8 GLCD_1_SPIM_UDB_txBufferRead;
  24:Generated_Source\PSoC4/GLCD_1_SPIM_UDB.c ****     volatile uint8 GLCD_1_SPIM_UDB_txBufferWrite;
  25:Generated_Source\PSoC4/GLCD_1_SPIM_UDB.c **** #endif /* (GLCD_1_SPIM_UDB_TX_SOFTWARE_BUF_ENABLED) */
  26:Generated_Source\PSoC4/GLCD_1_SPIM_UDB.c **** 
  27:Generated_Source\PSoC4/GLCD_1_SPIM_UDB.c **** #if(GLCD_1_SPIM_UDB_RX_SOFTWARE_BUF_ENABLED)
  28:Generated_Source\PSoC4/GLCD_1_SPIM_UDB.c ****     volatile uint16 GLCD_1_SPIM_UDB_rxBuffer[GLCD_1_SPIM_UDB_RX_BUFFER_SIZE] = {0u};
  29:Generated_Source\PSoC4/GLCD_1_SPIM_UDB.c ****     volatile uint8 GLCD_1_SPIM_UDB_rxBufferFull;
  30:Generated_Source\PSoC4/GLCD_1_SPIM_UDB.c ****     volatile uint8 GLCD_1_SPIM_UDB_rxBufferRead;
ARM GAS  C:\Users\sur\AppData\Local\Temp\cc5BY4vB.s 			page 2


  31:Generated_Source\PSoC4/GLCD_1_SPIM_UDB.c ****     volatile uint8 GLCD_1_SPIM_UDB_rxBufferWrite;
  32:Generated_Source\PSoC4/GLCD_1_SPIM_UDB.c **** #endif /* (GLCD_1_SPIM_UDB_RX_SOFTWARE_BUF_ENABLED) */
  33:Generated_Source\PSoC4/GLCD_1_SPIM_UDB.c **** 
  34:Generated_Source\PSoC4/GLCD_1_SPIM_UDB.c **** uint8 GLCD_1_SPIM_UDB_initVar = 0u;
  35:Generated_Source\PSoC4/GLCD_1_SPIM_UDB.c **** 
  36:Generated_Source\PSoC4/GLCD_1_SPIM_UDB.c **** volatile uint8 GLCD_1_SPIM_UDB_swStatusTx;
  37:Generated_Source\PSoC4/GLCD_1_SPIM_UDB.c **** volatile uint8 GLCD_1_SPIM_UDB_swStatusRx;
  38:Generated_Source\PSoC4/GLCD_1_SPIM_UDB.c **** 
  39:Generated_Source\PSoC4/GLCD_1_SPIM_UDB.c **** 
  40:Generated_Source\PSoC4/GLCD_1_SPIM_UDB.c **** /*******************************************************************************
  41:Generated_Source\PSoC4/GLCD_1_SPIM_UDB.c **** * Function Name: GLCD_1_SPIM_UDB_Init
  42:Generated_Source\PSoC4/GLCD_1_SPIM_UDB.c **** ********************************************************************************
  43:Generated_Source\PSoC4/GLCD_1_SPIM_UDB.c **** *
  44:Generated_Source\PSoC4/GLCD_1_SPIM_UDB.c **** * Summary:
  45:Generated_Source\PSoC4/GLCD_1_SPIM_UDB.c **** *  Inits/Restores default SPIM configuration provided with customizer.
  46:Generated_Source\PSoC4/GLCD_1_SPIM_UDB.c **** *
  47:Generated_Source\PSoC4/GLCD_1_SPIM_UDB.c **** * Parameters:
  48:Generated_Source\PSoC4/GLCD_1_SPIM_UDB.c **** *  None.
  49:Generated_Source\PSoC4/GLCD_1_SPIM_UDB.c **** *
  50:Generated_Source\PSoC4/GLCD_1_SPIM_UDB.c **** * Return:
  51:Generated_Source\PSoC4/GLCD_1_SPIM_UDB.c **** *  None.
  52:Generated_Source\PSoC4/GLCD_1_SPIM_UDB.c **** *
  53:Generated_Source\PSoC4/GLCD_1_SPIM_UDB.c **** * Side Effects:
  54:Generated_Source\PSoC4/GLCD_1_SPIM_UDB.c **** *  When this function is called it initializes all of the necessary parameters
  55:Generated_Source\PSoC4/GLCD_1_SPIM_UDB.c **** *  for execution. i.e. setting the initial interrupt mask, configuring the
  56:Generated_Source\PSoC4/GLCD_1_SPIM_UDB.c **** *  interrupt service routine, configuring the bit-counter parameters and
  57:Generated_Source\PSoC4/GLCD_1_SPIM_UDB.c **** *  clearing the FIFO and Status Register.
  58:Generated_Source\PSoC4/GLCD_1_SPIM_UDB.c **** *
  59:Generated_Source\PSoC4/GLCD_1_SPIM_UDB.c **** * Reentrant:
  60:Generated_Source\PSoC4/GLCD_1_SPIM_UDB.c **** *  No.
  61:Generated_Source\PSoC4/GLCD_1_SPIM_UDB.c **** *
  62:Generated_Source\PSoC4/GLCD_1_SPIM_UDB.c **** *******************************************************************************/
  63:Generated_Source\PSoC4/GLCD_1_SPIM_UDB.c **** void GLCD_1_SPIM_UDB_Init(void) 
  64:Generated_Source\PSoC4/GLCD_1_SPIM_UDB.c **** {
  65:Generated_Source\PSoC4/GLCD_1_SPIM_UDB.c ****     /* Initialize the Bit counter */
  66:Generated_Source\PSoC4/GLCD_1_SPIM_UDB.c ****     GLCD_1_SPIM_UDB_COUNTER_PERIOD_REG = GLCD_1_SPIM_UDB_BITCTR_INIT;
  67:Generated_Source\PSoC4/GLCD_1_SPIM_UDB.c **** 
  68:Generated_Source\PSoC4/GLCD_1_SPIM_UDB.c ****     /* Init TX ISR  */
  69:Generated_Source\PSoC4/GLCD_1_SPIM_UDB.c ****     #if(0u != GLCD_1_SPIM_UDB_INTERNAL_TX_INT_ENABLED)
  70:Generated_Source\PSoC4/GLCD_1_SPIM_UDB.c ****         CyIntDisable         (GLCD_1_SPIM_UDB_TX_ISR_NUMBER);
  71:Generated_Source\PSoC4/GLCD_1_SPIM_UDB.c ****         CyIntSetPriority     (GLCD_1_SPIM_UDB_TX_ISR_NUMBER,  GLCD_1_SPIM_UDB_TX_ISR_PRIORITY);
  72:Generated_Source\PSoC4/GLCD_1_SPIM_UDB.c ****         (void) CyIntSetVector(GLCD_1_SPIM_UDB_TX_ISR_NUMBER, &GLCD_1_SPIM_UDB_TX_ISR);
  73:Generated_Source\PSoC4/GLCD_1_SPIM_UDB.c ****     #endif /* (0u != GLCD_1_SPIM_UDB_INTERNAL_TX_INT_ENABLED) */
  74:Generated_Source\PSoC4/GLCD_1_SPIM_UDB.c **** 
  75:Generated_Source\PSoC4/GLCD_1_SPIM_UDB.c ****     /* Init RX ISR  */
  76:Generated_Source\PSoC4/GLCD_1_SPIM_UDB.c ****     #if(0u != GLCD_1_SPIM_UDB_INTERNAL_RX_INT_ENABLED)
  77:Generated_Source\PSoC4/GLCD_1_SPIM_UDB.c ****         CyIntDisable         (GLCD_1_SPIM_UDB_RX_ISR_NUMBER);
  78:Generated_Source\PSoC4/GLCD_1_SPIM_UDB.c ****         CyIntSetPriority     (GLCD_1_SPIM_UDB_RX_ISR_NUMBER,  GLCD_1_SPIM_UDB_RX_ISR_PRIORITY);
  79:Generated_Source\PSoC4/GLCD_1_SPIM_UDB.c ****         (void) CyIntSetVector(GLCD_1_SPIM_UDB_RX_ISR_NUMBER, &GLCD_1_SPIM_UDB_RX_ISR);
  80:Generated_Source\PSoC4/GLCD_1_SPIM_UDB.c ****     #endif /* (0u != GLCD_1_SPIM_UDB_INTERNAL_RX_INT_ENABLED) */
  81:Generated_Source\PSoC4/GLCD_1_SPIM_UDB.c **** 
  82:Generated_Source\PSoC4/GLCD_1_SPIM_UDB.c ****     /* Clear any stray data from the RX and TX FIFO */
  83:Generated_Source\PSoC4/GLCD_1_SPIM_UDB.c ****     GLCD_1_SPIM_UDB_ClearFIFO();
  84:Generated_Source\PSoC4/GLCD_1_SPIM_UDB.c **** 
  85:Generated_Source\PSoC4/GLCD_1_SPIM_UDB.c ****     #if(GLCD_1_SPIM_UDB_RX_SOFTWARE_BUF_ENABLED)
  86:Generated_Source\PSoC4/GLCD_1_SPIM_UDB.c ****         GLCD_1_SPIM_UDB_rxBufferFull  = 0u;
  87:Generated_Source\PSoC4/GLCD_1_SPIM_UDB.c ****         GLCD_1_SPIM_UDB_rxBufferRead  = 0u;
ARM GAS  C:\Users\sur\AppData\Local\Temp\cc5BY4vB.s 			page 3


  88:Generated_Source\PSoC4/GLCD_1_SPIM_UDB.c ****         GLCD_1_SPIM_UDB_rxBufferWrite = 0u;
  89:Generated_Source\PSoC4/GLCD_1_SPIM_UDB.c ****     #endif /* (GLCD_1_SPIM_UDB_RX_SOFTWARE_BUF_ENABLED) */
  90:Generated_Source\PSoC4/GLCD_1_SPIM_UDB.c **** 
  91:Generated_Source\PSoC4/GLCD_1_SPIM_UDB.c ****     #if(GLCD_1_SPIM_UDB_TX_SOFTWARE_BUF_ENABLED)
  92:Generated_Source\PSoC4/GLCD_1_SPIM_UDB.c ****         GLCD_1_SPIM_UDB_txBufferFull  = 0u;
  93:Generated_Source\PSoC4/GLCD_1_SPIM_UDB.c ****         GLCD_1_SPIM_UDB_txBufferRead  = 0u;
  94:Generated_Source\PSoC4/GLCD_1_SPIM_UDB.c ****         GLCD_1_SPIM_UDB_txBufferWrite = 0u;
  95:Generated_Source\PSoC4/GLCD_1_SPIM_UDB.c ****     #endif /* (GLCD_1_SPIM_UDB_TX_SOFTWARE_BUF_ENABLED) */
  96:Generated_Source\PSoC4/GLCD_1_SPIM_UDB.c **** 
  97:Generated_Source\PSoC4/GLCD_1_SPIM_UDB.c ****     (void) GLCD_1_SPIM_UDB_ReadTxStatus(); /* Clear Tx status and swStatusTx */
  98:Generated_Source\PSoC4/GLCD_1_SPIM_UDB.c ****     (void) GLCD_1_SPIM_UDB_ReadRxStatus(); /* Clear Rx status and swStatusRx */
  99:Generated_Source\PSoC4/GLCD_1_SPIM_UDB.c **** 
 100:Generated_Source\PSoC4/GLCD_1_SPIM_UDB.c ****     /* Configure TX and RX interrupt mask */
 101:Generated_Source\PSoC4/GLCD_1_SPIM_UDB.c ****     GLCD_1_SPIM_UDB_TX_STATUS_MASK_REG = GLCD_1_SPIM_UDB_TX_INIT_INTERRUPTS_MASK;
 102:Generated_Source\PSoC4/GLCD_1_SPIM_UDB.c ****     GLCD_1_SPIM_UDB_RX_STATUS_MASK_REG = GLCD_1_SPIM_UDB_RX_INIT_INTERRUPTS_MASK;
 103:Generated_Source\PSoC4/GLCD_1_SPIM_UDB.c **** }
 104:Generated_Source\PSoC4/GLCD_1_SPIM_UDB.c **** 
 105:Generated_Source\PSoC4/GLCD_1_SPIM_UDB.c **** 
 106:Generated_Source\PSoC4/GLCD_1_SPIM_UDB.c **** /*******************************************************************************
 107:Generated_Source\PSoC4/GLCD_1_SPIM_UDB.c **** * Function Name: GLCD_1_SPIM_UDB_Enable
 108:Generated_Source\PSoC4/GLCD_1_SPIM_UDB.c **** ********************************************************************************
 109:Generated_Source\PSoC4/GLCD_1_SPIM_UDB.c **** *
 110:Generated_Source\PSoC4/GLCD_1_SPIM_UDB.c **** * Summary:
 111:Generated_Source\PSoC4/GLCD_1_SPIM_UDB.c **** *  Enable SPIM component.
 112:Generated_Source\PSoC4/GLCD_1_SPIM_UDB.c **** *
 113:Generated_Source\PSoC4/GLCD_1_SPIM_UDB.c **** * Parameters:
 114:Generated_Source\PSoC4/GLCD_1_SPIM_UDB.c **** *  None.
 115:Generated_Source\PSoC4/GLCD_1_SPIM_UDB.c **** *
 116:Generated_Source\PSoC4/GLCD_1_SPIM_UDB.c **** * Return:
 117:Generated_Source\PSoC4/GLCD_1_SPIM_UDB.c **** *  None.
 118:Generated_Source\PSoC4/GLCD_1_SPIM_UDB.c **** *
 119:Generated_Source\PSoC4/GLCD_1_SPIM_UDB.c **** *******************************************************************************/
 120:Generated_Source\PSoC4/GLCD_1_SPIM_UDB.c **** void GLCD_1_SPIM_UDB_Enable(void) 
 121:Generated_Source\PSoC4/GLCD_1_SPIM_UDB.c **** {
  28              		.loc 1 121 0
  29              		.cfi_startproc
  30              		@ args = 0, pretend = 0, frame = 0
  31              		@ frame_needed = 0, uses_anonymous_args = 0
  32 0000 10B5     		push	{r4, lr}
  33              		.cfi_def_cfa_offset 8
  34              		.cfi_offset 4, -8
  35              		.cfi_offset 14, -4
 122:Generated_Source\PSoC4/GLCD_1_SPIM_UDB.c ****     uint8 enableInterrupts;
 123:Generated_Source\PSoC4/GLCD_1_SPIM_UDB.c **** 
 124:Generated_Source\PSoC4/GLCD_1_SPIM_UDB.c ****     enableInterrupts = CyEnterCriticalSection();
  36              		.loc 1 124 0
  37 0002 FFF7FEFF 		bl	CyEnterCriticalSection
  38              	.LVL0:
 125:Generated_Source\PSoC4/GLCD_1_SPIM_UDB.c ****     GLCD_1_SPIM_UDB_COUNTER_CONTROL_REG |= GLCD_1_SPIM_UDB_CNTR_ENABLE;
  39              		.loc 1 125 0
  40 0006 0B4A     		ldr	r2, .L2
  41 0008 1178     		ldrb	r1, [r2]
  42 000a 2023     		movs	r3, #32
  43 000c 0B43     		orrs	r3, r1
  44 000e DBB2     		uxtb	r3, r3
  45 0010 1370     		strb	r3, [r2]
 126:Generated_Source\PSoC4/GLCD_1_SPIM_UDB.c ****     GLCD_1_SPIM_UDB_TX_STATUS_ACTL_REG  |= GLCD_1_SPIM_UDB_INT_ENABLE;
ARM GAS  C:\Users\sur\AppData\Local\Temp\cc5BY4vB.s 			page 4


  46              		.loc 1 126 0
  47 0012 0949     		ldr	r1, .L2+4
  48 0014 0A78     		ldrb	r2, [r1]
  49 0016 1023     		movs	r3, #16
  50 0018 1A43     		orrs	r2, r3
  51 001a D2B2     		uxtb	r2, r2
  52 001c 0A70     		strb	r2, [r1]
 127:Generated_Source\PSoC4/GLCD_1_SPIM_UDB.c ****     GLCD_1_SPIM_UDB_RX_STATUS_ACTL_REG  |= GLCD_1_SPIM_UDB_INT_ENABLE;
  53              		.loc 1 127 0
  54 001e 074A     		ldr	r2, .L2+8
  55 0020 1178     		ldrb	r1, [r2]
  56 0022 0B43     		orrs	r3, r1
  57 0024 DBB2     		uxtb	r3, r3
  58 0026 1370     		strb	r3, [r2]
 128:Generated_Source\PSoC4/GLCD_1_SPIM_UDB.c ****     CyExitCriticalSection(enableInterrupts);
  59              		.loc 1 128 0
  60 0028 FFF7FEFF 		bl	CyExitCriticalSection
  61              	.LVL1:
 129:Generated_Source\PSoC4/GLCD_1_SPIM_UDB.c **** 
 130:Generated_Source\PSoC4/GLCD_1_SPIM_UDB.c ****     #if(0u != GLCD_1_SPIM_UDB_INTERNAL_CLOCK)
 131:Generated_Source\PSoC4/GLCD_1_SPIM_UDB.c ****         GLCD_1_SPIM_UDB_IntClock_Enable();
  62              		.loc 1 131 0
  63 002c FFF7FEFF 		bl	GLCD_1_SPIM_UDB_IntClock_Start
  64              	.LVL2:
 132:Generated_Source\PSoC4/GLCD_1_SPIM_UDB.c ****     #endif /* (0u != GLCD_1_SPIM_UDB_INTERNAL_CLOCK) */
 133:Generated_Source\PSoC4/GLCD_1_SPIM_UDB.c **** 
 134:Generated_Source\PSoC4/GLCD_1_SPIM_UDB.c ****     GLCD_1_SPIM_UDB_EnableTxInt();
 135:Generated_Source\PSoC4/GLCD_1_SPIM_UDB.c ****     GLCD_1_SPIM_UDB_EnableRxInt();
 136:Generated_Source\PSoC4/GLCD_1_SPIM_UDB.c **** }
  65              		.loc 1 136 0
  66              		@ sp needed
  67 0030 10BD     		pop	{r4, pc}
  68              	.L3:
  69 0032 C046     		.align	2
  70              	.L2:
  71 0034 91000F40 		.word	1074725009
  72 0038 92000F40 		.word	1074725010
  73 003c 90000F40 		.word	1074725008
  74              		.cfi_endproc
  75              	.LFE1:
  76              		.size	GLCD_1_SPIM_UDB_Enable, .-GLCD_1_SPIM_UDB_Enable
  77              		.section	.text.GLCD_1_SPIM_UDB_Stop,"ax",%progbits
  78              		.align	2
  79              		.global	GLCD_1_SPIM_UDB_Stop
  80              		.code	16
  81              		.thumb_func
  82              		.type	GLCD_1_SPIM_UDB_Stop, %function
  83              	GLCD_1_SPIM_UDB_Stop:
  84              	.LFB3:
 137:Generated_Source\PSoC4/GLCD_1_SPIM_UDB.c **** 
 138:Generated_Source\PSoC4/GLCD_1_SPIM_UDB.c **** 
 139:Generated_Source\PSoC4/GLCD_1_SPIM_UDB.c **** /*******************************************************************************
 140:Generated_Source\PSoC4/GLCD_1_SPIM_UDB.c **** * Function Name: GLCD_1_SPIM_UDB_Start
 141:Generated_Source\PSoC4/GLCD_1_SPIM_UDB.c **** ********************************************************************************
 142:Generated_Source\PSoC4/GLCD_1_SPIM_UDB.c **** *
 143:Generated_Source\PSoC4/GLCD_1_SPIM_UDB.c **** * Summary:
 144:Generated_Source\PSoC4/GLCD_1_SPIM_UDB.c **** *  Initialize and Enable the SPI Master component.
ARM GAS  C:\Users\sur\AppData\Local\Temp\cc5BY4vB.s 			page 5


 145:Generated_Source\PSoC4/GLCD_1_SPIM_UDB.c **** *
 146:Generated_Source\PSoC4/GLCD_1_SPIM_UDB.c **** * Parameters:
 147:Generated_Source\PSoC4/GLCD_1_SPIM_UDB.c **** *  None.
 148:Generated_Source\PSoC4/GLCD_1_SPIM_UDB.c **** *
 149:Generated_Source\PSoC4/GLCD_1_SPIM_UDB.c **** * Return:
 150:Generated_Source\PSoC4/GLCD_1_SPIM_UDB.c **** *  None.
 151:Generated_Source\PSoC4/GLCD_1_SPIM_UDB.c **** *
 152:Generated_Source\PSoC4/GLCD_1_SPIM_UDB.c **** * Global variables:
 153:Generated_Source\PSoC4/GLCD_1_SPIM_UDB.c **** *  GLCD_1_SPIM_UDB_initVar - used to check initial configuration, modified on
 154:Generated_Source\PSoC4/GLCD_1_SPIM_UDB.c **** *  first function call.
 155:Generated_Source\PSoC4/GLCD_1_SPIM_UDB.c **** *
 156:Generated_Source\PSoC4/GLCD_1_SPIM_UDB.c **** * Theory:
 157:Generated_Source\PSoC4/GLCD_1_SPIM_UDB.c **** *  Enable the clock input to enable operation.
 158:Generated_Source\PSoC4/GLCD_1_SPIM_UDB.c **** *
 159:Generated_Source\PSoC4/GLCD_1_SPIM_UDB.c **** * Reentrant:
 160:Generated_Source\PSoC4/GLCD_1_SPIM_UDB.c **** *  No.
 161:Generated_Source\PSoC4/GLCD_1_SPIM_UDB.c **** *
 162:Generated_Source\PSoC4/GLCD_1_SPIM_UDB.c **** *******************************************************************************/
 163:Generated_Source\PSoC4/GLCD_1_SPIM_UDB.c **** void GLCD_1_SPIM_UDB_Start(void) 
 164:Generated_Source\PSoC4/GLCD_1_SPIM_UDB.c **** {
 165:Generated_Source\PSoC4/GLCD_1_SPIM_UDB.c ****     if(0u == GLCD_1_SPIM_UDB_initVar)
 166:Generated_Source\PSoC4/GLCD_1_SPIM_UDB.c ****     {
 167:Generated_Source\PSoC4/GLCD_1_SPIM_UDB.c ****         GLCD_1_SPIM_UDB_Init();
 168:Generated_Source\PSoC4/GLCD_1_SPIM_UDB.c ****         GLCD_1_SPIM_UDB_initVar = 1u;
 169:Generated_Source\PSoC4/GLCD_1_SPIM_UDB.c ****     }
 170:Generated_Source\PSoC4/GLCD_1_SPIM_UDB.c **** 
 171:Generated_Source\PSoC4/GLCD_1_SPIM_UDB.c ****     GLCD_1_SPIM_UDB_Enable();
 172:Generated_Source\PSoC4/GLCD_1_SPIM_UDB.c **** }
 173:Generated_Source\PSoC4/GLCD_1_SPIM_UDB.c **** 
 174:Generated_Source\PSoC4/GLCD_1_SPIM_UDB.c **** 
 175:Generated_Source\PSoC4/GLCD_1_SPIM_UDB.c **** /*******************************************************************************
 176:Generated_Source\PSoC4/GLCD_1_SPIM_UDB.c **** * Function Name: GLCD_1_SPIM_UDB_Stop
 177:Generated_Source\PSoC4/GLCD_1_SPIM_UDB.c **** ********************************************************************************
 178:Generated_Source\PSoC4/GLCD_1_SPIM_UDB.c **** *
 179:Generated_Source\PSoC4/GLCD_1_SPIM_UDB.c **** * Summary:
 180:Generated_Source\PSoC4/GLCD_1_SPIM_UDB.c **** *  Disable the SPI Master component.
 181:Generated_Source\PSoC4/GLCD_1_SPIM_UDB.c **** *
 182:Generated_Source\PSoC4/GLCD_1_SPIM_UDB.c **** * Parameters:
 183:Generated_Source\PSoC4/GLCD_1_SPIM_UDB.c **** *  None.
 184:Generated_Source\PSoC4/GLCD_1_SPIM_UDB.c **** *
 185:Generated_Source\PSoC4/GLCD_1_SPIM_UDB.c **** * Return:
 186:Generated_Source\PSoC4/GLCD_1_SPIM_UDB.c **** *  None.
 187:Generated_Source\PSoC4/GLCD_1_SPIM_UDB.c **** *
 188:Generated_Source\PSoC4/GLCD_1_SPIM_UDB.c **** * Theory:
 189:Generated_Source\PSoC4/GLCD_1_SPIM_UDB.c **** *  Disable the clock input to enable operation.
 190:Generated_Source\PSoC4/GLCD_1_SPIM_UDB.c **** *
 191:Generated_Source\PSoC4/GLCD_1_SPIM_UDB.c **** *******************************************************************************/
 192:Generated_Source\PSoC4/GLCD_1_SPIM_UDB.c **** void GLCD_1_SPIM_UDB_Stop(void) 
 193:Generated_Source\PSoC4/GLCD_1_SPIM_UDB.c **** {
  85              		.loc 1 193 0
  86              		.cfi_startproc
  87              		@ args = 0, pretend = 0, frame = 0
  88              		@ frame_needed = 0, uses_anonymous_args = 0
  89 0000 10B5     		push	{r4, lr}
  90              		.cfi_def_cfa_offset 8
  91              		.cfi_offset 4, -8
  92              		.cfi_offset 14, -4
ARM GAS  C:\Users\sur\AppData\Local\Temp\cc5BY4vB.s 			page 6


 194:Generated_Source\PSoC4/GLCD_1_SPIM_UDB.c ****     uint8 enableInterrupts;
 195:Generated_Source\PSoC4/GLCD_1_SPIM_UDB.c **** 
 196:Generated_Source\PSoC4/GLCD_1_SPIM_UDB.c ****     enableInterrupts = CyEnterCriticalSection();
  93              		.loc 1 196 0
  94 0002 FFF7FEFF 		bl	CyEnterCriticalSection
  95              	.LVL3:
 197:Generated_Source\PSoC4/GLCD_1_SPIM_UDB.c ****     GLCD_1_SPIM_UDB_TX_STATUS_ACTL_REG &= ((uint8) ~GLCD_1_SPIM_UDB_INT_ENABLE);
  96              		.loc 1 197 0
  97 0006 074A     		ldr	r2, .L5
  98 0008 1378     		ldrb	r3, [r2]
  99 000a 1021     		movs	r1, #16
 100 000c 8B43     		bics	r3, r1
 101 000e 1370     		strb	r3, [r2]
 198:Generated_Source\PSoC4/GLCD_1_SPIM_UDB.c ****     GLCD_1_SPIM_UDB_RX_STATUS_ACTL_REG &= ((uint8) ~GLCD_1_SPIM_UDB_INT_ENABLE);
 102              		.loc 1 198 0
 103 0010 054A     		ldr	r2, .L5+4
 104 0012 1378     		ldrb	r3, [r2]
 105 0014 8B43     		bics	r3, r1
 106 0016 1370     		strb	r3, [r2]
 199:Generated_Source\PSoC4/GLCD_1_SPIM_UDB.c ****     CyExitCriticalSection(enableInterrupts);
 107              		.loc 1 199 0
 108 0018 FFF7FEFF 		bl	CyExitCriticalSection
 109              	.LVL4:
 200:Generated_Source\PSoC4/GLCD_1_SPIM_UDB.c **** 
 201:Generated_Source\PSoC4/GLCD_1_SPIM_UDB.c ****     #if(0u != GLCD_1_SPIM_UDB_INTERNAL_CLOCK)
 202:Generated_Source\PSoC4/GLCD_1_SPIM_UDB.c ****         GLCD_1_SPIM_UDB_IntClock_Disable();
 110              		.loc 1 202 0
 111 001c FFF7FEFF 		bl	GLCD_1_SPIM_UDB_IntClock_Stop
 112              	.LVL5:
 203:Generated_Source\PSoC4/GLCD_1_SPIM_UDB.c ****     #endif /* (0u != GLCD_1_SPIM_UDB_INTERNAL_CLOCK) */
 204:Generated_Source\PSoC4/GLCD_1_SPIM_UDB.c **** 
 205:Generated_Source\PSoC4/GLCD_1_SPIM_UDB.c ****     GLCD_1_SPIM_UDB_DisableTxInt();
 206:Generated_Source\PSoC4/GLCD_1_SPIM_UDB.c ****     GLCD_1_SPIM_UDB_DisableRxInt();
 207:Generated_Source\PSoC4/GLCD_1_SPIM_UDB.c **** }
 113              		.loc 1 207 0
 114              		@ sp needed
 115 0020 10BD     		pop	{r4, pc}
 116              	.L6:
 117 0022 C046     		.align	2
 118              	.L5:
 119 0024 92000F40 		.word	1074725010
 120 0028 90000F40 		.word	1074725008
 121              		.cfi_endproc
 122              	.LFE3:
 123              		.size	GLCD_1_SPIM_UDB_Stop, .-GLCD_1_SPIM_UDB_Stop
 124              		.section	.text.GLCD_1_SPIM_UDB_EnableTxInt,"ax",%progbits
 125              		.align	2
 126              		.global	GLCD_1_SPIM_UDB_EnableTxInt
 127              		.code	16
 128              		.thumb_func
 129              		.type	GLCD_1_SPIM_UDB_EnableTxInt, %function
 130              	GLCD_1_SPIM_UDB_EnableTxInt:
 131              	.LFB4:
 208:Generated_Source\PSoC4/GLCD_1_SPIM_UDB.c **** 
 209:Generated_Source\PSoC4/GLCD_1_SPIM_UDB.c **** 
 210:Generated_Source\PSoC4/GLCD_1_SPIM_UDB.c **** /*******************************************************************************
 211:Generated_Source\PSoC4/GLCD_1_SPIM_UDB.c **** * Function Name: GLCD_1_SPIM_UDB_EnableTxInt
ARM GAS  C:\Users\sur\AppData\Local\Temp\cc5BY4vB.s 			page 7


 212:Generated_Source\PSoC4/GLCD_1_SPIM_UDB.c **** ********************************************************************************
 213:Generated_Source\PSoC4/GLCD_1_SPIM_UDB.c **** *
 214:Generated_Source\PSoC4/GLCD_1_SPIM_UDB.c **** * Summary:
 215:Generated_Source\PSoC4/GLCD_1_SPIM_UDB.c **** *  Enable internal Tx interrupt generation.
 216:Generated_Source\PSoC4/GLCD_1_SPIM_UDB.c **** *
 217:Generated_Source\PSoC4/GLCD_1_SPIM_UDB.c **** * Parameters:
 218:Generated_Source\PSoC4/GLCD_1_SPIM_UDB.c **** *  None.
 219:Generated_Source\PSoC4/GLCD_1_SPIM_UDB.c **** *
 220:Generated_Source\PSoC4/GLCD_1_SPIM_UDB.c **** * Return:
 221:Generated_Source\PSoC4/GLCD_1_SPIM_UDB.c **** *  None.
 222:Generated_Source\PSoC4/GLCD_1_SPIM_UDB.c **** *
 223:Generated_Source\PSoC4/GLCD_1_SPIM_UDB.c **** * Theory:
 224:Generated_Source\PSoC4/GLCD_1_SPIM_UDB.c **** *  Enable the internal Tx interrupt output -or- the interrupt component itself.
 225:Generated_Source\PSoC4/GLCD_1_SPIM_UDB.c **** *
 226:Generated_Source\PSoC4/GLCD_1_SPIM_UDB.c **** *******************************************************************************/
 227:Generated_Source\PSoC4/GLCD_1_SPIM_UDB.c **** void GLCD_1_SPIM_UDB_EnableTxInt(void) 
 228:Generated_Source\PSoC4/GLCD_1_SPIM_UDB.c **** {
 132              		.loc 1 228 0
 133              		.cfi_startproc
 134              		@ args = 0, pretend = 0, frame = 0
 135              		@ frame_needed = 0, uses_anonymous_args = 0
 136              		@ link register save eliminated.
 229:Generated_Source\PSoC4/GLCD_1_SPIM_UDB.c ****     #if(0u != GLCD_1_SPIM_UDB_INTERNAL_TX_INT_ENABLED)
 230:Generated_Source\PSoC4/GLCD_1_SPIM_UDB.c ****         CyIntEnable(GLCD_1_SPIM_UDB_TX_ISR_NUMBER);
 231:Generated_Source\PSoC4/GLCD_1_SPIM_UDB.c ****     #endif /* (0u != GLCD_1_SPIM_UDB_INTERNAL_TX_INT_ENABLED) */
 232:Generated_Source\PSoC4/GLCD_1_SPIM_UDB.c **** }
 137              		.loc 1 232 0
 138              		@ sp needed
 139 0000 7047     		bx	lr
 140              		.cfi_endproc
 141              	.LFE4:
 142              		.size	GLCD_1_SPIM_UDB_EnableTxInt, .-GLCD_1_SPIM_UDB_EnableTxInt
 143 0002 C046     		.section	.text.GLCD_1_SPIM_UDB_EnableRxInt,"ax",%progbits
 144              		.align	2
 145              		.global	GLCD_1_SPIM_UDB_EnableRxInt
 146              		.code	16
 147              		.thumb_func
 148              		.type	GLCD_1_SPIM_UDB_EnableRxInt, %function
 149              	GLCD_1_SPIM_UDB_EnableRxInt:
 150              	.LFB5:
 233:Generated_Source\PSoC4/GLCD_1_SPIM_UDB.c **** 
 234:Generated_Source\PSoC4/GLCD_1_SPIM_UDB.c **** 
 235:Generated_Source\PSoC4/GLCD_1_SPIM_UDB.c **** /*******************************************************************************
 236:Generated_Source\PSoC4/GLCD_1_SPIM_UDB.c **** * Function Name: GLCD_1_SPIM_UDB_EnableRxInt
 237:Generated_Source\PSoC4/GLCD_1_SPIM_UDB.c **** ********************************************************************************
 238:Generated_Source\PSoC4/GLCD_1_SPIM_UDB.c **** *
 239:Generated_Source\PSoC4/GLCD_1_SPIM_UDB.c **** * Summary:
 240:Generated_Source\PSoC4/GLCD_1_SPIM_UDB.c **** *  Enable internal Rx interrupt generation.
 241:Generated_Source\PSoC4/GLCD_1_SPIM_UDB.c **** *
 242:Generated_Source\PSoC4/GLCD_1_SPIM_UDB.c **** * Parameters:
 243:Generated_Source\PSoC4/GLCD_1_SPIM_UDB.c **** *  None.
 244:Generated_Source\PSoC4/GLCD_1_SPIM_UDB.c **** *
 245:Generated_Source\PSoC4/GLCD_1_SPIM_UDB.c **** * Return:
 246:Generated_Source\PSoC4/GLCD_1_SPIM_UDB.c **** *  None.
 247:Generated_Source\PSoC4/GLCD_1_SPIM_UDB.c **** *
 248:Generated_Source\PSoC4/GLCD_1_SPIM_UDB.c **** * Theory:
 249:Generated_Source\PSoC4/GLCD_1_SPIM_UDB.c **** *  Enable the internal Rx interrupt output -or- the interrupt component itself.
ARM GAS  C:\Users\sur\AppData\Local\Temp\cc5BY4vB.s 			page 8


 250:Generated_Source\PSoC4/GLCD_1_SPIM_UDB.c **** *
 251:Generated_Source\PSoC4/GLCD_1_SPIM_UDB.c **** *******************************************************************************/
 252:Generated_Source\PSoC4/GLCD_1_SPIM_UDB.c **** void GLCD_1_SPIM_UDB_EnableRxInt(void) 
 253:Generated_Source\PSoC4/GLCD_1_SPIM_UDB.c **** {
 151              		.loc 1 253 0
 152              		.cfi_startproc
 153              		@ args = 0, pretend = 0, frame = 0
 154              		@ frame_needed = 0, uses_anonymous_args = 0
 155              		@ link register save eliminated.
 254:Generated_Source\PSoC4/GLCD_1_SPIM_UDB.c ****     #if(0u != GLCD_1_SPIM_UDB_INTERNAL_RX_INT_ENABLED)
 255:Generated_Source\PSoC4/GLCD_1_SPIM_UDB.c ****         CyIntEnable(GLCD_1_SPIM_UDB_RX_ISR_NUMBER);
 256:Generated_Source\PSoC4/GLCD_1_SPIM_UDB.c ****     #endif /* (0u != GLCD_1_SPIM_UDB_INTERNAL_RX_INT_ENABLED) */
 257:Generated_Source\PSoC4/GLCD_1_SPIM_UDB.c **** }
 156              		.loc 1 257 0
 157              		@ sp needed
 158 0000 7047     		bx	lr
 159              		.cfi_endproc
 160              	.LFE5:
 161              		.size	GLCD_1_SPIM_UDB_EnableRxInt, .-GLCD_1_SPIM_UDB_EnableRxInt
 162 0002 C046     		.section	.text.GLCD_1_SPIM_UDB_DisableTxInt,"ax",%progbits
 163              		.align	2
 164              		.global	GLCD_1_SPIM_UDB_DisableTxInt
 165              		.code	16
 166              		.thumb_func
 167              		.type	GLCD_1_SPIM_UDB_DisableTxInt, %function
 168              	GLCD_1_SPIM_UDB_DisableTxInt:
 169              	.LFB6:
 258:Generated_Source\PSoC4/GLCD_1_SPIM_UDB.c **** 
 259:Generated_Source\PSoC4/GLCD_1_SPIM_UDB.c **** 
 260:Generated_Source\PSoC4/GLCD_1_SPIM_UDB.c **** /*******************************************************************************
 261:Generated_Source\PSoC4/GLCD_1_SPIM_UDB.c **** * Function Name: GLCD_1_SPIM_UDB_DisableTxInt
 262:Generated_Source\PSoC4/GLCD_1_SPIM_UDB.c **** ********************************************************************************
 263:Generated_Source\PSoC4/GLCD_1_SPIM_UDB.c **** *
 264:Generated_Source\PSoC4/GLCD_1_SPIM_UDB.c **** * Summary:
 265:Generated_Source\PSoC4/GLCD_1_SPIM_UDB.c **** *  Disable internal Tx interrupt generation.
 266:Generated_Source\PSoC4/GLCD_1_SPIM_UDB.c **** *
 267:Generated_Source\PSoC4/GLCD_1_SPIM_UDB.c **** * Parameters:
 268:Generated_Source\PSoC4/GLCD_1_SPIM_UDB.c **** *  None.
 269:Generated_Source\PSoC4/GLCD_1_SPIM_UDB.c **** *
 270:Generated_Source\PSoC4/GLCD_1_SPIM_UDB.c **** * Return:
 271:Generated_Source\PSoC4/GLCD_1_SPIM_UDB.c **** *  None.
 272:Generated_Source\PSoC4/GLCD_1_SPIM_UDB.c **** *
 273:Generated_Source\PSoC4/GLCD_1_SPIM_UDB.c **** * Theory:
 274:Generated_Source\PSoC4/GLCD_1_SPIM_UDB.c **** *  Disable the internal Tx interrupt output -or- the interrupt component itself.
 275:Generated_Source\PSoC4/GLCD_1_SPIM_UDB.c **** *
 276:Generated_Source\PSoC4/GLCD_1_SPIM_UDB.c **** *******************************************************************************/
 277:Generated_Source\PSoC4/GLCD_1_SPIM_UDB.c **** void GLCD_1_SPIM_UDB_DisableTxInt(void) 
 278:Generated_Source\PSoC4/GLCD_1_SPIM_UDB.c **** {
 170              		.loc 1 278 0
 171              		.cfi_startproc
 172              		@ args = 0, pretend = 0, frame = 0
 173              		@ frame_needed = 0, uses_anonymous_args = 0
 174              		@ link register save eliminated.
 279:Generated_Source\PSoC4/GLCD_1_SPIM_UDB.c ****     #if(0u != GLCD_1_SPIM_UDB_INTERNAL_TX_INT_ENABLED)
 280:Generated_Source\PSoC4/GLCD_1_SPIM_UDB.c ****         CyIntDisable(GLCD_1_SPIM_UDB_TX_ISR_NUMBER);
 281:Generated_Source\PSoC4/GLCD_1_SPIM_UDB.c ****     #endif /* (0u != GLCD_1_SPIM_UDB_INTERNAL_TX_INT_ENABLED) */
 282:Generated_Source\PSoC4/GLCD_1_SPIM_UDB.c **** }
ARM GAS  C:\Users\sur\AppData\Local\Temp\cc5BY4vB.s 			page 9


 175              		.loc 1 282 0
 176              		@ sp needed
 177 0000 7047     		bx	lr
 178              		.cfi_endproc
 179              	.LFE6:
 180              		.size	GLCD_1_SPIM_UDB_DisableTxInt, .-GLCD_1_SPIM_UDB_DisableTxInt
 181 0002 C046     		.section	.text.GLCD_1_SPIM_UDB_DisableRxInt,"ax",%progbits
 182              		.align	2
 183              		.global	GLCD_1_SPIM_UDB_DisableRxInt
 184              		.code	16
 185              		.thumb_func
 186              		.type	GLCD_1_SPIM_UDB_DisableRxInt, %function
 187              	GLCD_1_SPIM_UDB_DisableRxInt:
 188              	.LFB7:
 283:Generated_Source\PSoC4/GLCD_1_SPIM_UDB.c **** 
 284:Generated_Source\PSoC4/GLCD_1_SPIM_UDB.c **** 
 285:Generated_Source\PSoC4/GLCD_1_SPIM_UDB.c **** /*******************************************************************************
 286:Generated_Source\PSoC4/GLCD_1_SPIM_UDB.c **** * Function Name: GLCD_1_SPIM_UDB_DisableRxInt
 287:Generated_Source\PSoC4/GLCD_1_SPIM_UDB.c **** ********************************************************************************
 288:Generated_Source\PSoC4/GLCD_1_SPIM_UDB.c **** *
 289:Generated_Source\PSoC4/GLCD_1_SPIM_UDB.c **** * Summary:
 290:Generated_Source\PSoC4/GLCD_1_SPIM_UDB.c **** *  Disable internal Rx interrupt generation.
 291:Generated_Source\PSoC4/GLCD_1_SPIM_UDB.c **** *
 292:Generated_Source\PSoC4/GLCD_1_SPIM_UDB.c **** * Parameters:
 293:Generated_Source\PSoC4/GLCD_1_SPIM_UDB.c **** *  None.
 294:Generated_Source\PSoC4/GLCD_1_SPIM_UDB.c **** *
 295:Generated_Source\PSoC4/GLCD_1_SPIM_UDB.c **** * Return:
 296:Generated_Source\PSoC4/GLCD_1_SPIM_UDB.c **** *  None.
 297:Generated_Source\PSoC4/GLCD_1_SPIM_UDB.c **** *
 298:Generated_Source\PSoC4/GLCD_1_SPIM_UDB.c **** * Theory:
 299:Generated_Source\PSoC4/GLCD_1_SPIM_UDB.c **** *  Disable the internal Rx interrupt output -or- the interrupt component itself.
 300:Generated_Source\PSoC4/GLCD_1_SPIM_UDB.c **** *
 301:Generated_Source\PSoC4/GLCD_1_SPIM_UDB.c **** *******************************************************************************/
 302:Generated_Source\PSoC4/GLCD_1_SPIM_UDB.c **** void GLCD_1_SPIM_UDB_DisableRxInt(void) 
 303:Generated_Source\PSoC4/GLCD_1_SPIM_UDB.c **** {
 189              		.loc 1 303 0
 190              		.cfi_startproc
 191              		@ args = 0, pretend = 0, frame = 0
 192              		@ frame_needed = 0, uses_anonymous_args = 0
 193              		@ link register save eliminated.
 304:Generated_Source\PSoC4/GLCD_1_SPIM_UDB.c ****     #if(0u != GLCD_1_SPIM_UDB_INTERNAL_RX_INT_ENABLED)
 305:Generated_Source\PSoC4/GLCD_1_SPIM_UDB.c ****         CyIntDisable(GLCD_1_SPIM_UDB_RX_ISR_NUMBER);
 306:Generated_Source\PSoC4/GLCD_1_SPIM_UDB.c ****     #endif /* (0u != GLCD_1_SPIM_UDB_INTERNAL_RX_INT_ENABLED) */
 307:Generated_Source\PSoC4/GLCD_1_SPIM_UDB.c **** }
 194              		.loc 1 307 0
 195              		@ sp needed
 196 0000 7047     		bx	lr
 197              		.cfi_endproc
 198              	.LFE7:
 199              		.size	GLCD_1_SPIM_UDB_DisableRxInt, .-GLCD_1_SPIM_UDB_DisableRxInt
 200 0002 C046     		.section	.text.GLCD_1_SPIM_UDB_SetTxInterruptMode,"ax",%progbits
 201              		.align	2
 202              		.global	GLCD_1_SPIM_UDB_SetTxInterruptMode
 203              		.code	16
 204              		.thumb_func
 205              		.type	GLCD_1_SPIM_UDB_SetTxInterruptMode, %function
 206              	GLCD_1_SPIM_UDB_SetTxInterruptMode:
ARM GAS  C:\Users\sur\AppData\Local\Temp\cc5BY4vB.s 			page 10


 207              	.LFB8:
 308:Generated_Source\PSoC4/GLCD_1_SPIM_UDB.c **** 
 309:Generated_Source\PSoC4/GLCD_1_SPIM_UDB.c **** 
 310:Generated_Source\PSoC4/GLCD_1_SPIM_UDB.c **** /*******************************************************************************
 311:Generated_Source\PSoC4/GLCD_1_SPIM_UDB.c **** * Function Name: GLCD_1_SPIM_UDB_SetTxInterruptMode
 312:Generated_Source\PSoC4/GLCD_1_SPIM_UDB.c **** ********************************************************************************
 313:Generated_Source\PSoC4/GLCD_1_SPIM_UDB.c **** *
 314:Generated_Source\PSoC4/GLCD_1_SPIM_UDB.c **** * Summary:
 315:Generated_Source\PSoC4/GLCD_1_SPIM_UDB.c **** *  Configure which status bits trigger an interrupt event.
 316:Generated_Source\PSoC4/GLCD_1_SPIM_UDB.c **** *
 317:Generated_Source\PSoC4/GLCD_1_SPIM_UDB.c **** * Parameters:
 318:Generated_Source\PSoC4/GLCD_1_SPIM_UDB.c **** *  intSrc: An or'd combination of the desired status bit masks (defined in the
 319:Generated_Source\PSoC4/GLCD_1_SPIM_UDB.c **** *  header file).
 320:Generated_Source\PSoC4/GLCD_1_SPIM_UDB.c **** *
 321:Generated_Source\PSoC4/GLCD_1_SPIM_UDB.c **** * Return:
 322:Generated_Source\PSoC4/GLCD_1_SPIM_UDB.c **** *  None.
 323:Generated_Source\PSoC4/GLCD_1_SPIM_UDB.c **** *
 324:Generated_Source\PSoC4/GLCD_1_SPIM_UDB.c **** * Theory:
 325:Generated_Source\PSoC4/GLCD_1_SPIM_UDB.c **** *  Enables the output of specific status bits to the interrupt controller.
 326:Generated_Source\PSoC4/GLCD_1_SPIM_UDB.c **** *
 327:Generated_Source\PSoC4/GLCD_1_SPIM_UDB.c **** *******************************************************************************/
 328:Generated_Source\PSoC4/GLCD_1_SPIM_UDB.c **** void GLCD_1_SPIM_UDB_SetTxInterruptMode(uint8 intSrc) 
 329:Generated_Source\PSoC4/GLCD_1_SPIM_UDB.c **** {
 208              		.loc 1 329 0
 209              		.cfi_startproc
 210              		@ args = 0, pretend = 0, frame = 0
 211              		@ frame_needed = 0, uses_anonymous_args = 0
 212              		@ link register save eliminated.
 213              	.LVL6:
 330:Generated_Source\PSoC4/GLCD_1_SPIM_UDB.c ****     GLCD_1_SPIM_UDB_TX_STATUS_MASK_REG = intSrc;
 214              		.loc 1 330 0
 215 0000 014B     		ldr	r3, .L12
 216 0002 1870     		strb	r0, [r3]
 331:Generated_Source\PSoC4/GLCD_1_SPIM_UDB.c **** }
 217              		.loc 1 331 0
 218              		@ sp needed
 219 0004 7047     		bx	lr
 220              	.L13:
 221 0006 C046     		.align	2
 222              	.L12:
 223 0008 82000F40 		.word	1074724994
 224              		.cfi_endproc
 225              	.LFE8:
 226              		.size	GLCD_1_SPIM_UDB_SetTxInterruptMode, .-GLCD_1_SPIM_UDB_SetTxInterruptMode
 227              		.section	.text.GLCD_1_SPIM_UDB_SetRxInterruptMode,"ax",%progbits
 228              		.align	2
 229              		.global	GLCD_1_SPIM_UDB_SetRxInterruptMode
 230              		.code	16
 231              		.thumb_func
 232              		.type	GLCD_1_SPIM_UDB_SetRxInterruptMode, %function
 233              	GLCD_1_SPIM_UDB_SetRxInterruptMode:
 234              	.LFB9:
 332:Generated_Source\PSoC4/GLCD_1_SPIM_UDB.c **** 
 333:Generated_Source\PSoC4/GLCD_1_SPIM_UDB.c **** 
 334:Generated_Source\PSoC4/GLCD_1_SPIM_UDB.c **** /*******************************************************************************
 335:Generated_Source\PSoC4/GLCD_1_SPIM_UDB.c **** * Function Name: GLCD_1_SPIM_UDB_SetRxInterruptMode
 336:Generated_Source\PSoC4/GLCD_1_SPIM_UDB.c **** ********************************************************************************
ARM GAS  C:\Users\sur\AppData\Local\Temp\cc5BY4vB.s 			page 11


 337:Generated_Source\PSoC4/GLCD_1_SPIM_UDB.c **** *
 338:Generated_Source\PSoC4/GLCD_1_SPIM_UDB.c **** * Summary:
 339:Generated_Source\PSoC4/GLCD_1_SPIM_UDB.c **** *  Configure which status bits trigger an interrupt event.
 340:Generated_Source\PSoC4/GLCD_1_SPIM_UDB.c **** *
 341:Generated_Source\PSoC4/GLCD_1_SPIM_UDB.c **** * Parameters:
 342:Generated_Source\PSoC4/GLCD_1_SPIM_UDB.c **** *  intSrc: An or'd combination of the desired status bit masks (defined in the
 343:Generated_Source\PSoC4/GLCD_1_SPIM_UDB.c **** *  header file).
 344:Generated_Source\PSoC4/GLCD_1_SPIM_UDB.c **** *
 345:Generated_Source\PSoC4/GLCD_1_SPIM_UDB.c **** * Return:
 346:Generated_Source\PSoC4/GLCD_1_SPIM_UDB.c **** *  None.
 347:Generated_Source\PSoC4/GLCD_1_SPIM_UDB.c **** *
 348:Generated_Source\PSoC4/GLCD_1_SPIM_UDB.c **** * Theory:
 349:Generated_Source\PSoC4/GLCD_1_SPIM_UDB.c **** *  Enables the output of specific status bits to the interrupt controller.
 350:Generated_Source\PSoC4/GLCD_1_SPIM_UDB.c **** *
 351:Generated_Source\PSoC4/GLCD_1_SPIM_UDB.c **** *******************************************************************************/
 352:Generated_Source\PSoC4/GLCD_1_SPIM_UDB.c **** void GLCD_1_SPIM_UDB_SetRxInterruptMode(uint8 intSrc) 
 353:Generated_Source\PSoC4/GLCD_1_SPIM_UDB.c **** {
 235              		.loc 1 353 0
 236              		.cfi_startproc
 237              		@ args = 0, pretend = 0, frame = 0
 238              		@ frame_needed = 0, uses_anonymous_args = 0
 239              		@ link register save eliminated.
 240              	.LVL7:
 354:Generated_Source\PSoC4/GLCD_1_SPIM_UDB.c ****     GLCD_1_SPIM_UDB_RX_STATUS_MASK_REG  = intSrc;
 241              		.loc 1 354 0
 242 0000 014B     		ldr	r3, .L15
 243 0002 1870     		strb	r0, [r3]
 355:Generated_Source\PSoC4/GLCD_1_SPIM_UDB.c **** }
 244              		.loc 1 355 0
 245              		@ sp needed
 246 0004 7047     		bx	lr
 247              	.L16:
 248 0006 C046     		.align	2
 249              	.L15:
 250 0008 80000F40 		.word	1074724992
 251              		.cfi_endproc
 252              	.LFE9:
 253              		.size	GLCD_1_SPIM_UDB_SetRxInterruptMode, .-GLCD_1_SPIM_UDB_SetRxInterruptMode
 254              		.section	.text.GLCD_1_SPIM_UDB_ReadTxStatus,"ax",%progbits
 255              		.align	2
 256              		.global	GLCD_1_SPIM_UDB_ReadTxStatus
 257              		.code	16
 258              		.thumb_func
 259              		.type	GLCD_1_SPIM_UDB_ReadTxStatus, %function
 260              	GLCD_1_SPIM_UDB_ReadTxStatus:
 261              	.LFB10:
 356:Generated_Source\PSoC4/GLCD_1_SPIM_UDB.c **** 
 357:Generated_Source\PSoC4/GLCD_1_SPIM_UDB.c **** 
 358:Generated_Source\PSoC4/GLCD_1_SPIM_UDB.c **** /*******************************************************************************
 359:Generated_Source\PSoC4/GLCD_1_SPIM_UDB.c **** * Function Name: GLCD_1_SPIM_UDB_ReadTxStatus
 360:Generated_Source\PSoC4/GLCD_1_SPIM_UDB.c **** ********************************************************************************
 361:Generated_Source\PSoC4/GLCD_1_SPIM_UDB.c **** *
 362:Generated_Source\PSoC4/GLCD_1_SPIM_UDB.c **** * Summary:
 363:Generated_Source\PSoC4/GLCD_1_SPIM_UDB.c **** *  Read the Tx status register for the component.
 364:Generated_Source\PSoC4/GLCD_1_SPIM_UDB.c **** *
 365:Generated_Source\PSoC4/GLCD_1_SPIM_UDB.c **** * Parameters:
 366:Generated_Source\PSoC4/GLCD_1_SPIM_UDB.c **** *  None.
ARM GAS  C:\Users\sur\AppData\Local\Temp\cc5BY4vB.s 			page 12


 367:Generated_Source\PSoC4/GLCD_1_SPIM_UDB.c **** *
 368:Generated_Source\PSoC4/GLCD_1_SPIM_UDB.c **** * Return:
 369:Generated_Source\PSoC4/GLCD_1_SPIM_UDB.c **** *  Contents of the Tx status register.
 370:Generated_Source\PSoC4/GLCD_1_SPIM_UDB.c **** *
 371:Generated_Source\PSoC4/GLCD_1_SPIM_UDB.c **** * Global variables:
 372:Generated_Source\PSoC4/GLCD_1_SPIM_UDB.c **** *  GLCD_1_SPIM_UDB_swStatusTx - used to store in software status register,
 373:Generated_Source\PSoC4/GLCD_1_SPIM_UDB.c **** *  modified every function call - resets to zero.
 374:Generated_Source\PSoC4/GLCD_1_SPIM_UDB.c **** *
 375:Generated_Source\PSoC4/GLCD_1_SPIM_UDB.c **** * Theory:
 376:Generated_Source\PSoC4/GLCD_1_SPIM_UDB.c **** *  Allows the user and the API to read the Tx status register for error
 377:Generated_Source\PSoC4/GLCD_1_SPIM_UDB.c **** *  detection and flow control.
 378:Generated_Source\PSoC4/GLCD_1_SPIM_UDB.c **** *
 379:Generated_Source\PSoC4/GLCD_1_SPIM_UDB.c **** * Side Effects:
 380:Generated_Source\PSoC4/GLCD_1_SPIM_UDB.c **** *  Clear Tx status register of the component.
 381:Generated_Source\PSoC4/GLCD_1_SPIM_UDB.c **** *
 382:Generated_Source\PSoC4/GLCD_1_SPIM_UDB.c **** * Reentrant:
 383:Generated_Source\PSoC4/GLCD_1_SPIM_UDB.c **** *  No.
 384:Generated_Source\PSoC4/GLCD_1_SPIM_UDB.c **** *
 385:Generated_Source\PSoC4/GLCD_1_SPIM_UDB.c **** *******************************************************************************/
 386:Generated_Source\PSoC4/GLCD_1_SPIM_UDB.c **** uint8 GLCD_1_SPIM_UDB_ReadTxStatus(void) 
 387:Generated_Source\PSoC4/GLCD_1_SPIM_UDB.c **** {
 262              		.loc 1 387 0
 263              		.cfi_startproc
 264              		@ args = 0, pretend = 0, frame = 0
 265              		@ frame_needed = 0, uses_anonymous_args = 0
 266              		@ link register save eliminated.
 388:Generated_Source\PSoC4/GLCD_1_SPIM_UDB.c ****     uint8 tmpStatus;
 389:Generated_Source\PSoC4/GLCD_1_SPIM_UDB.c **** 
 390:Generated_Source\PSoC4/GLCD_1_SPIM_UDB.c ****     #if(GLCD_1_SPIM_UDB_TX_SOFTWARE_BUF_ENABLED)
 391:Generated_Source\PSoC4/GLCD_1_SPIM_UDB.c ****         /* Disable TX interrupt to protect global veriables */
 392:Generated_Source\PSoC4/GLCD_1_SPIM_UDB.c ****         GLCD_1_SPIM_UDB_DisableTxInt();
 393:Generated_Source\PSoC4/GLCD_1_SPIM_UDB.c **** 
 394:Generated_Source\PSoC4/GLCD_1_SPIM_UDB.c ****         tmpStatus = GLCD_1_SPIM_UDB_GET_STATUS_TX(GLCD_1_SPIM_UDB_swStatusTx);
 395:Generated_Source\PSoC4/GLCD_1_SPIM_UDB.c ****         GLCD_1_SPIM_UDB_swStatusTx = 0u;
 396:Generated_Source\PSoC4/GLCD_1_SPIM_UDB.c **** 
 397:Generated_Source\PSoC4/GLCD_1_SPIM_UDB.c ****         GLCD_1_SPIM_UDB_EnableTxInt();
 398:Generated_Source\PSoC4/GLCD_1_SPIM_UDB.c **** 
 399:Generated_Source\PSoC4/GLCD_1_SPIM_UDB.c ****     #else
 400:Generated_Source\PSoC4/GLCD_1_SPIM_UDB.c **** 
 401:Generated_Source\PSoC4/GLCD_1_SPIM_UDB.c ****         tmpStatus = GLCD_1_SPIM_UDB_TX_STATUS_REG;
 267              		.loc 1 401 0
 268 0000 014B     		ldr	r3, .L18
 269 0002 1878     		ldrb	r0, [r3]
 270 0004 C0B2     		uxtb	r0, r0
 271              	.LVL8:
 402:Generated_Source\PSoC4/GLCD_1_SPIM_UDB.c **** 
 403:Generated_Source\PSoC4/GLCD_1_SPIM_UDB.c ****     #endif /* (GLCD_1_SPIM_UDB_TX_SOFTWARE_BUF_ENABLED) */
 404:Generated_Source\PSoC4/GLCD_1_SPIM_UDB.c **** 
 405:Generated_Source\PSoC4/GLCD_1_SPIM_UDB.c ****     return(tmpStatus);
 406:Generated_Source\PSoC4/GLCD_1_SPIM_UDB.c **** }
 272              		.loc 1 406 0
 273              		@ sp needed
 274 0006 7047     		bx	lr
 275              	.L19:
 276              		.align	2
 277              	.L18:
 278 0008 62000F40 		.word	1074724962
ARM GAS  C:\Users\sur\AppData\Local\Temp\cc5BY4vB.s 			page 13


 279              		.cfi_endproc
 280              	.LFE10:
 281              		.size	GLCD_1_SPIM_UDB_ReadTxStatus, .-GLCD_1_SPIM_UDB_ReadTxStatus
 282              		.section	.text.GLCD_1_SPIM_UDB_ReadRxStatus,"ax",%progbits
 283              		.align	2
 284              		.global	GLCD_1_SPIM_UDB_ReadRxStatus
 285              		.code	16
 286              		.thumb_func
 287              		.type	GLCD_1_SPIM_UDB_ReadRxStatus, %function
 288              	GLCD_1_SPIM_UDB_ReadRxStatus:
 289              	.LFB11:
 407:Generated_Source\PSoC4/GLCD_1_SPIM_UDB.c **** 
 408:Generated_Source\PSoC4/GLCD_1_SPIM_UDB.c **** 
 409:Generated_Source\PSoC4/GLCD_1_SPIM_UDB.c **** /*******************************************************************************
 410:Generated_Source\PSoC4/GLCD_1_SPIM_UDB.c **** * Function Name: GLCD_1_SPIM_UDB_ReadRxStatus
 411:Generated_Source\PSoC4/GLCD_1_SPIM_UDB.c **** ********************************************************************************
 412:Generated_Source\PSoC4/GLCD_1_SPIM_UDB.c **** *
 413:Generated_Source\PSoC4/GLCD_1_SPIM_UDB.c **** * Summary:
 414:Generated_Source\PSoC4/GLCD_1_SPIM_UDB.c **** *  Read the Rx status register for the component.
 415:Generated_Source\PSoC4/GLCD_1_SPIM_UDB.c **** *
 416:Generated_Source\PSoC4/GLCD_1_SPIM_UDB.c **** * Parameters:
 417:Generated_Source\PSoC4/GLCD_1_SPIM_UDB.c **** *  None.
 418:Generated_Source\PSoC4/GLCD_1_SPIM_UDB.c **** *
 419:Generated_Source\PSoC4/GLCD_1_SPIM_UDB.c **** * Return:
 420:Generated_Source\PSoC4/GLCD_1_SPIM_UDB.c **** *  Contents of the Rx status register.
 421:Generated_Source\PSoC4/GLCD_1_SPIM_UDB.c **** *
 422:Generated_Source\PSoC4/GLCD_1_SPIM_UDB.c **** * Global variables:
 423:Generated_Source\PSoC4/GLCD_1_SPIM_UDB.c **** *  GLCD_1_SPIM_UDB_swStatusRx - used to store in software Rx status register,
 424:Generated_Source\PSoC4/GLCD_1_SPIM_UDB.c **** *  modified every function call - resets to zero.
 425:Generated_Source\PSoC4/GLCD_1_SPIM_UDB.c **** *
 426:Generated_Source\PSoC4/GLCD_1_SPIM_UDB.c **** * Theory:
 427:Generated_Source\PSoC4/GLCD_1_SPIM_UDB.c **** *  Allows the user and the API to read the Rx status register for error
 428:Generated_Source\PSoC4/GLCD_1_SPIM_UDB.c **** *  detection and flow control.
 429:Generated_Source\PSoC4/GLCD_1_SPIM_UDB.c **** *
 430:Generated_Source\PSoC4/GLCD_1_SPIM_UDB.c **** * Side Effects:
 431:Generated_Source\PSoC4/GLCD_1_SPIM_UDB.c **** *  Clear Rx status register of the component.
 432:Generated_Source\PSoC4/GLCD_1_SPIM_UDB.c **** *
 433:Generated_Source\PSoC4/GLCD_1_SPIM_UDB.c **** * Reentrant:
 434:Generated_Source\PSoC4/GLCD_1_SPIM_UDB.c **** *  No.
 435:Generated_Source\PSoC4/GLCD_1_SPIM_UDB.c **** *
 436:Generated_Source\PSoC4/GLCD_1_SPIM_UDB.c **** *******************************************************************************/
 437:Generated_Source\PSoC4/GLCD_1_SPIM_UDB.c **** uint8 GLCD_1_SPIM_UDB_ReadRxStatus(void) 
 438:Generated_Source\PSoC4/GLCD_1_SPIM_UDB.c **** {
 290              		.loc 1 438 0
 291              		.cfi_startproc
 292              		@ args = 0, pretend = 0, frame = 0
 293              		@ frame_needed = 0, uses_anonymous_args = 0
 294              		@ link register save eliminated.
 439:Generated_Source\PSoC4/GLCD_1_SPIM_UDB.c ****     uint8 tmpStatus;
 440:Generated_Source\PSoC4/GLCD_1_SPIM_UDB.c **** 
 441:Generated_Source\PSoC4/GLCD_1_SPIM_UDB.c ****     #if(GLCD_1_SPIM_UDB_RX_SOFTWARE_BUF_ENABLED)
 442:Generated_Source\PSoC4/GLCD_1_SPIM_UDB.c ****         /* Disable RX interrupt to protect global veriables */
 443:Generated_Source\PSoC4/GLCD_1_SPIM_UDB.c ****         GLCD_1_SPIM_UDB_DisableRxInt();
 444:Generated_Source\PSoC4/GLCD_1_SPIM_UDB.c **** 
 445:Generated_Source\PSoC4/GLCD_1_SPIM_UDB.c ****         tmpStatus = GLCD_1_SPIM_UDB_GET_STATUS_RX(GLCD_1_SPIM_UDB_swStatusRx);
 446:Generated_Source\PSoC4/GLCD_1_SPIM_UDB.c ****         GLCD_1_SPIM_UDB_swStatusRx = 0u;
 447:Generated_Source\PSoC4/GLCD_1_SPIM_UDB.c **** 
ARM GAS  C:\Users\sur\AppData\Local\Temp\cc5BY4vB.s 			page 14


 448:Generated_Source\PSoC4/GLCD_1_SPIM_UDB.c ****         GLCD_1_SPIM_UDB_EnableRxInt();
 449:Generated_Source\PSoC4/GLCD_1_SPIM_UDB.c **** 
 450:Generated_Source\PSoC4/GLCD_1_SPIM_UDB.c ****     #else
 451:Generated_Source\PSoC4/GLCD_1_SPIM_UDB.c **** 
 452:Generated_Source\PSoC4/GLCD_1_SPIM_UDB.c ****         tmpStatus = GLCD_1_SPIM_UDB_RX_STATUS_REG;
 295              		.loc 1 452 0
 296 0000 014B     		ldr	r3, .L21
 297 0002 1878     		ldrb	r0, [r3]
 298 0004 C0B2     		uxtb	r0, r0
 299              	.LVL9:
 453:Generated_Source\PSoC4/GLCD_1_SPIM_UDB.c **** 
 454:Generated_Source\PSoC4/GLCD_1_SPIM_UDB.c ****     #endif /* (GLCD_1_SPIM_UDB_RX_SOFTWARE_BUF_ENABLED) */
 455:Generated_Source\PSoC4/GLCD_1_SPIM_UDB.c **** 
 456:Generated_Source\PSoC4/GLCD_1_SPIM_UDB.c ****     return(tmpStatus);
 457:Generated_Source\PSoC4/GLCD_1_SPIM_UDB.c **** }
 300              		.loc 1 457 0
 301              		@ sp needed
 302 0006 7047     		bx	lr
 303              	.L22:
 304              		.align	2
 305              	.L21:
 306 0008 60000F40 		.word	1074724960
 307              		.cfi_endproc
 308              	.LFE11:
 309              		.size	GLCD_1_SPIM_UDB_ReadRxStatus, .-GLCD_1_SPIM_UDB_ReadRxStatus
 310              		.section	.text.GLCD_1_SPIM_UDB_WriteTxData,"ax",%progbits
 311              		.align	2
 312              		.global	GLCD_1_SPIM_UDB_WriteTxData
 313              		.code	16
 314              		.thumb_func
 315              		.type	GLCD_1_SPIM_UDB_WriteTxData, %function
 316              	GLCD_1_SPIM_UDB_WriteTxData:
 317              	.LFB12:
 458:Generated_Source\PSoC4/GLCD_1_SPIM_UDB.c **** 
 459:Generated_Source\PSoC4/GLCD_1_SPIM_UDB.c **** 
 460:Generated_Source\PSoC4/GLCD_1_SPIM_UDB.c **** /*******************************************************************************
 461:Generated_Source\PSoC4/GLCD_1_SPIM_UDB.c **** * Function Name: GLCD_1_SPIM_UDB_WriteTxData
 462:Generated_Source\PSoC4/GLCD_1_SPIM_UDB.c **** ********************************************************************************
 463:Generated_Source\PSoC4/GLCD_1_SPIM_UDB.c **** *
 464:Generated_Source\PSoC4/GLCD_1_SPIM_UDB.c **** * Summary:
 465:Generated_Source\PSoC4/GLCD_1_SPIM_UDB.c **** *  Write a byte of data to be sent across the SPI.
 466:Generated_Source\PSoC4/GLCD_1_SPIM_UDB.c **** *
 467:Generated_Source\PSoC4/GLCD_1_SPIM_UDB.c **** * Parameters:
 468:Generated_Source\PSoC4/GLCD_1_SPIM_UDB.c **** *  txDataByte: The data value to send across the SPI.
 469:Generated_Source\PSoC4/GLCD_1_SPIM_UDB.c **** *
 470:Generated_Source\PSoC4/GLCD_1_SPIM_UDB.c **** * Return:
 471:Generated_Source\PSoC4/GLCD_1_SPIM_UDB.c **** *  None.
 472:Generated_Source\PSoC4/GLCD_1_SPIM_UDB.c **** *
 473:Generated_Source\PSoC4/GLCD_1_SPIM_UDB.c **** * Global variables:
 474:Generated_Source\PSoC4/GLCD_1_SPIM_UDB.c **** *  GLCD_1_SPIM_UDB_txBufferWrite - used for the account of the bytes which
 475:Generated_Source\PSoC4/GLCD_1_SPIM_UDB.c **** *  have been written down in the TX software buffer, modified every function
 476:Generated_Source\PSoC4/GLCD_1_SPIM_UDB.c **** *  call if TX Software Buffer is used.
 477:Generated_Source\PSoC4/GLCD_1_SPIM_UDB.c **** *  GLCD_1_SPIM_UDB_txBufferRead - used for the account of the bytes which
 478:Generated_Source\PSoC4/GLCD_1_SPIM_UDB.c **** *  have been read from the TX software buffer.
 479:Generated_Source\PSoC4/GLCD_1_SPIM_UDB.c **** *  GLCD_1_SPIM_UDB_txBuffer[GLCD_1_SPIM_UDB_TX_BUFFER_SIZE] - used to store
 480:Generated_Source\PSoC4/GLCD_1_SPIM_UDB.c **** *  data to sending, modified every function call if TX Software Buffer is used.
 481:Generated_Source\PSoC4/GLCD_1_SPIM_UDB.c **** *
ARM GAS  C:\Users\sur\AppData\Local\Temp\cc5BY4vB.s 			page 15


 482:Generated_Source\PSoC4/GLCD_1_SPIM_UDB.c **** * Theory:
 483:Generated_Source\PSoC4/GLCD_1_SPIM_UDB.c **** *  Allows the user to transmit any byte of data in a single transfer.
 484:Generated_Source\PSoC4/GLCD_1_SPIM_UDB.c **** *
 485:Generated_Source\PSoC4/GLCD_1_SPIM_UDB.c **** * Side Effects:
 486:Generated_Source\PSoC4/GLCD_1_SPIM_UDB.c **** *  If this function is called again before the previous byte is finished then
 487:Generated_Source\PSoC4/GLCD_1_SPIM_UDB.c **** *  the next byte will be appended to the transfer with no time between
 488:Generated_Source\PSoC4/GLCD_1_SPIM_UDB.c **** *  the byte transfers. Clear Tx status register of the component.
 489:Generated_Source\PSoC4/GLCD_1_SPIM_UDB.c **** *
 490:Generated_Source\PSoC4/GLCD_1_SPIM_UDB.c **** * Reentrant:
 491:Generated_Source\PSoC4/GLCD_1_SPIM_UDB.c **** *  No.
 492:Generated_Source\PSoC4/GLCD_1_SPIM_UDB.c **** *
 493:Generated_Source\PSoC4/GLCD_1_SPIM_UDB.c **** *******************************************************************************/
 494:Generated_Source\PSoC4/GLCD_1_SPIM_UDB.c **** void GLCD_1_SPIM_UDB_WriteTxData(uint16 txData) 
 495:Generated_Source\PSoC4/GLCD_1_SPIM_UDB.c **** {
 318              		.loc 1 495 0
 319              		.cfi_startproc
 320              		@ args = 0, pretend = 0, frame = 0
 321              		@ frame_needed = 0, uses_anonymous_args = 0
 322              		@ link register save eliminated.
 323              	.LVL10:
 324              	.L24:
 496:Generated_Source\PSoC4/GLCD_1_SPIM_UDB.c ****     #if(GLCD_1_SPIM_UDB_TX_SOFTWARE_BUF_ENABLED)
 497:Generated_Source\PSoC4/GLCD_1_SPIM_UDB.c **** 
 498:Generated_Source\PSoC4/GLCD_1_SPIM_UDB.c ****         uint8 tempStatus;
 499:Generated_Source\PSoC4/GLCD_1_SPIM_UDB.c ****         uint8 tmpTxBufferRead;
 500:Generated_Source\PSoC4/GLCD_1_SPIM_UDB.c **** 
 501:Generated_Source\PSoC4/GLCD_1_SPIM_UDB.c ****         /* Block if TX buffer is FULL: don't overwrite */
 502:Generated_Source\PSoC4/GLCD_1_SPIM_UDB.c ****         do
 503:Generated_Source\PSoC4/GLCD_1_SPIM_UDB.c ****         {
 504:Generated_Source\PSoC4/GLCD_1_SPIM_UDB.c ****             tmpTxBufferRead = GLCD_1_SPIM_UDB_txBufferRead;
 505:Generated_Source\PSoC4/GLCD_1_SPIM_UDB.c ****             if(0u == tmpTxBufferRead)
 506:Generated_Source\PSoC4/GLCD_1_SPIM_UDB.c ****             {
 507:Generated_Source\PSoC4/GLCD_1_SPIM_UDB.c ****                 tmpTxBufferRead = (GLCD_1_SPIM_UDB_TX_BUFFER_SIZE - 1u);
 508:Generated_Source\PSoC4/GLCD_1_SPIM_UDB.c ****             }
 509:Generated_Source\PSoC4/GLCD_1_SPIM_UDB.c ****             else
 510:Generated_Source\PSoC4/GLCD_1_SPIM_UDB.c ****             {
 511:Generated_Source\PSoC4/GLCD_1_SPIM_UDB.c ****                 tmpTxBufferRead--;
 512:Generated_Source\PSoC4/GLCD_1_SPIM_UDB.c ****             }
 513:Generated_Source\PSoC4/GLCD_1_SPIM_UDB.c **** 
 514:Generated_Source\PSoC4/GLCD_1_SPIM_UDB.c ****         }while(tmpTxBufferRead == GLCD_1_SPIM_UDB_txBufferWrite);
 515:Generated_Source\PSoC4/GLCD_1_SPIM_UDB.c **** 
 516:Generated_Source\PSoC4/GLCD_1_SPIM_UDB.c ****         /* Disable TX interrupt to protect global veriables */
 517:Generated_Source\PSoC4/GLCD_1_SPIM_UDB.c ****         GLCD_1_SPIM_UDB_DisableTxInt();
 518:Generated_Source\PSoC4/GLCD_1_SPIM_UDB.c **** 
 519:Generated_Source\PSoC4/GLCD_1_SPIM_UDB.c ****         tempStatus = GLCD_1_SPIM_UDB_GET_STATUS_TX(GLCD_1_SPIM_UDB_swStatusTx);
 520:Generated_Source\PSoC4/GLCD_1_SPIM_UDB.c ****         GLCD_1_SPIM_UDB_swStatusTx = tempStatus;
 521:Generated_Source\PSoC4/GLCD_1_SPIM_UDB.c **** 
 522:Generated_Source\PSoC4/GLCD_1_SPIM_UDB.c **** 
 523:Generated_Source\PSoC4/GLCD_1_SPIM_UDB.c ****         if((GLCD_1_SPIM_UDB_txBufferRead == GLCD_1_SPIM_UDB_txBufferWrite) &&
 524:Generated_Source\PSoC4/GLCD_1_SPIM_UDB.c ****            (0u != (GLCD_1_SPIM_UDB_swStatusTx & GLCD_1_SPIM_UDB_STS_TX_FIFO_NOT_FULL)))
 525:Generated_Source\PSoC4/GLCD_1_SPIM_UDB.c ****         {
 526:Generated_Source\PSoC4/GLCD_1_SPIM_UDB.c ****             /* Add directly to the TX FIFO */
 527:Generated_Source\PSoC4/GLCD_1_SPIM_UDB.c ****             CY_SET_REG16(GLCD_1_SPIM_UDB_TXDATA_PTR, txData);
 528:Generated_Source\PSoC4/GLCD_1_SPIM_UDB.c ****         }
 529:Generated_Source\PSoC4/GLCD_1_SPIM_UDB.c ****         else
 530:Generated_Source\PSoC4/GLCD_1_SPIM_UDB.c ****         {
 531:Generated_Source\PSoC4/GLCD_1_SPIM_UDB.c ****             /* Add to the TX software buffer */
ARM GAS  C:\Users\sur\AppData\Local\Temp\cc5BY4vB.s 			page 16


 532:Generated_Source\PSoC4/GLCD_1_SPIM_UDB.c ****             GLCD_1_SPIM_UDB_txBufferWrite++;
 533:Generated_Source\PSoC4/GLCD_1_SPIM_UDB.c ****             if(GLCD_1_SPIM_UDB_txBufferWrite >= GLCD_1_SPIM_UDB_TX_BUFFER_SIZE)
 534:Generated_Source\PSoC4/GLCD_1_SPIM_UDB.c ****             {
 535:Generated_Source\PSoC4/GLCD_1_SPIM_UDB.c ****                 GLCD_1_SPIM_UDB_txBufferWrite = 0u;
 536:Generated_Source\PSoC4/GLCD_1_SPIM_UDB.c ****             }
 537:Generated_Source\PSoC4/GLCD_1_SPIM_UDB.c **** 
 538:Generated_Source\PSoC4/GLCD_1_SPIM_UDB.c ****             if(GLCD_1_SPIM_UDB_txBufferWrite == GLCD_1_SPIM_UDB_txBufferRead)
 539:Generated_Source\PSoC4/GLCD_1_SPIM_UDB.c ****             {
 540:Generated_Source\PSoC4/GLCD_1_SPIM_UDB.c ****                 GLCD_1_SPIM_UDB_txBufferRead++;
 541:Generated_Source\PSoC4/GLCD_1_SPIM_UDB.c ****                 if(GLCD_1_SPIM_UDB_txBufferRead >= GLCD_1_SPIM_UDB_TX_BUFFER_SIZE)
 542:Generated_Source\PSoC4/GLCD_1_SPIM_UDB.c ****                 {
 543:Generated_Source\PSoC4/GLCD_1_SPIM_UDB.c ****                     GLCD_1_SPIM_UDB_txBufferRead = 0u;
 544:Generated_Source\PSoC4/GLCD_1_SPIM_UDB.c ****                 }
 545:Generated_Source\PSoC4/GLCD_1_SPIM_UDB.c ****                 GLCD_1_SPIM_UDB_txBufferFull = 1u;
 546:Generated_Source\PSoC4/GLCD_1_SPIM_UDB.c ****             }
 547:Generated_Source\PSoC4/GLCD_1_SPIM_UDB.c **** 
 548:Generated_Source\PSoC4/GLCD_1_SPIM_UDB.c ****             GLCD_1_SPIM_UDB_txBuffer[GLCD_1_SPIM_UDB_txBufferWrite] = txData;
 549:Generated_Source\PSoC4/GLCD_1_SPIM_UDB.c **** 
 550:Generated_Source\PSoC4/GLCD_1_SPIM_UDB.c ****             GLCD_1_SPIM_UDB_TX_STATUS_MASK_REG |= GLCD_1_SPIM_UDB_STS_TX_FIFO_NOT_FULL;
 551:Generated_Source\PSoC4/GLCD_1_SPIM_UDB.c ****         }
 552:Generated_Source\PSoC4/GLCD_1_SPIM_UDB.c **** 
 553:Generated_Source\PSoC4/GLCD_1_SPIM_UDB.c ****         GLCD_1_SPIM_UDB_EnableTxInt();
 554:Generated_Source\PSoC4/GLCD_1_SPIM_UDB.c **** 
 555:Generated_Source\PSoC4/GLCD_1_SPIM_UDB.c ****     #else
 556:Generated_Source\PSoC4/GLCD_1_SPIM_UDB.c **** 
 557:Generated_Source\PSoC4/GLCD_1_SPIM_UDB.c ****         while(0u == (GLCD_1_SPIM_UDB_TX_STATUS_REG & GLCD_1_SPIM_UDB_STS_TX_FIFO_NOT_FULL))
 325              		.loc 1 557 0 discriminator 1
 326 0000 034B     		ldr	r3, .L25
 327 0002 1B78     		ldrb	r3, [r3]
 328 0004 5B07     		lsls	r3, r3, #29
 329 0006 FBD5     		bpl	.L24
 558:Generated_Source\PSoC4/GLCD_1_SPIM_UDB.c ****         {
 559:Generated_Source\PSoC4/GLCD_1_SPIM_UDB.c ****             ; /* Wait for room in FIFO */
 560:Generated_Source\PSoC4/GLCD_1_SPIM_UDB.c ****         }
 561:Generated_Source\PSoC4/GLCD_1_SPIM_UDB.c **** 
 562:Generated_Source\PSoC4/GLCD_1_SPIM_UDB.c ****         /* Put byte in TX FIFO */
 563:Generated_Source\PSoC4/GLCD_1_SPIM_UDB.c ****         CY_SET_REG16(GLCD_1_SPIM_UDB_TXDATA_PTR, txData);
 330              		.loc 1 563 0
 331 0008 024B     		ldr	r3, .L25+4
 332 000a 1880     		strh	r0, [r3]
 564:Generated_Source\PSoC4/GLCD_1_SPIM_UDB.c **** 
 565:Generated_Source\PSoC4/GLCD_1_SPIM_UDB.c ****     #endif /* (GLCD_1_SPIM_UDB_TX_SOFTWARE_BUF_ENABLED) */
 566:Generated_Source\PSoC4/GLCD_1_SPIM_UDB.c **** }
 333              		.loc 1 566 0
 334              		@ sp needed
 335 000c 7047     		bx	lr
 336              	.L26:
 337 000e C046     		.align	2
 338              	.L25:
 339 0010 62000F40 		.word	1074724962
 340 0014 84100F40 		.word	1074729092
 341              		.cfi_endproc
 342              	.LFE12:
 343              		.size	GLCD_1_SPIM_UDB_WriteTxData, .-GLCD_1_SPIM_UDB_WriteTxData
 344              		.section	.text.GLCD_1_SPIM_UDB_ReadRxData,"ax",%progbits
 345              		.align	2
 346              		.global	GLCD_1_SPIM_UDB_ReadRxData
ARM GAS  C:\Users\sur\AppData\Local\Temp\cc5BY4vB.s 			page 17


 347              		.code	16
 348              		.thumb_func
 349              		.type	GLCD_1_SPIM_UDB_ReadRxData, %function
 350              	GLCD_1_SPIM_UDB_ReadRxData:
 351              	.LFB13:
 567:Generated_Source\PSoC4/GLCD_1_SPIM_UDB.c **** 
 568:Generated_Source\PSoC4/GLCD_1_SPIM_UDB.c **** 
 569:Generated_Source\PSoC4/GLCD_1_SPIM_UDB.c **** /*******************************************************************************
 570:Generated_Source\PSoC4/GLCD_1_SPIM_UDB.c **** * Function Name: GLCD_1_SPIM_UDB_ReadRxData
 571:Generated_Source\PSoC4/GLCD_1_SPIM_UDB.c **** ********************************************************************************
 572:Generated_Source\PSoC4/GLCD_1_SPIM_UDB.c **** *
 573:Generated_Source\PSoC4/GLCD_1_SPIM_UDB.c **** * Summary:
 574:Generated_Source\PSoC4/GLCD_1_SPIM_UDB.c **** *  Read the next byte of data received across the SPI.
 575:Generated_Source\PSoC4/GLCD_1_SPIM_UDB.c **** *
 576:Generated_Source\PSoC4/GLCD_1_SPIM_UDB.c **** * Parameters:
 577:Generated_Source\PSoC4/GLCD_1_SPIM_UDB.c **** *  None.
 578:Generated_Source\PSoC4/GLCD_1_SPIM_UDB.c **** *
 579:Generated_Source\PSoC4/GLCD_1_SPIM_UDB.c **** * Return:
 580:Generated_Source\PSoC4/GLCD_1_SPIM_UDB.c **** *  The next byte of data read from the FIFO.
 581:Generated_Source\PSoC4/GLCD_1_SPIM_UDB.c **** *
 582:Generated_Source\PSoC4/GLCD_1_SPIM_UDB.c **** * Global variables:
 583:Generated_Source\PSoC4/GLCD_1_SPIM_UDB.c **** *  GLCD_1_SPIM_UDB_rxBufferWrite - used for the account of the bytes which
 584:Generated_Source\PSoC4/GLCD_1_SPIM_UDB.c **** *  have been written down in the RX software buffer.
 585:Generated_Source\PSoC4/GLCD_1_SPIM_UDB.c **** *  GLCD_1_SPIM_UDB_rxBufferRead - used for the account of the bytes which
 586:Generated_Source\PSoC4/GLCD_1_SPIM_UDB.c **** *  have been read from the RX software buffer, modified every function
 587:Generated_Source\PSoC4/GLCD_1_SPIM_UDB.c **** *  call if RX Software Buffer is used.
 588:Generated_Source\PSoC4/GLCD_1_SPIM_UDB.c **** *  GLCD_1_SPIM_UDB_rxBuffer[GLCD_1_SPIM_UDB_RX_BUFFER_SIZE] - used to store
 589:Generated_Source\PSoC4/GLCD_1_SPIM_UDB.c **** *  received data.
 590:Generated_Source\PSoC4/GLCD_1_SPIM_UDB.c **** *
 591:Generated_Source\PSoC4/GLCD_1_SPIM_UDB.c **** * Theory:
 592:Generated_Source\PSoC4/GLCD_1_SPIM_UDB.c **** *  Allows the user to read a byte of data received.
 593:Generated_Source\PSoC4/GLCD_1_SPIM_UDB.c **** *
 594:Generated_Source\PSoC4/GLCD_1_SPIM_UDB.c **** * Side Effects:
 595:Generated_Source\PSoC4/GLCD_1_SPIM_UDB.c **** *  Will return invalid data if the FIFO is empty. The user should Call
 596:Generated_Source\PSoC4/GLCD_1_SPIM_UDB.c **** *  GetRxBufferSize() and if it returns a non-zero value then it is safe to call
 597:Generated_Source\PSoC4/GLCD_1_SPIM_UDB.c **** *  ReadByte() function.
 598:Generated_Source\PSoC4/GLCD_1_SPIM_UDB.c **** *
 599:Generated_Source\PSoC4/GLCD_1_SPIM_UDB.c **** * Reentrant:
 600:Generated_Source\PSoC4/GLCD_1_SPIM_UDB.c **** *  No.
 601:Generated_Source\PSoC4/GLCD_1_SPIM_UDB.c **** *
 602:Generated_Source\PSoC4/GLCD_1_SPIM_UDB.c **** *******************************************************************************/
 603:Generated_Source\PSoC4/GLCD_1_SPIM_UDB.c **** uint16 GLCD_1_SPIM_UDB_ReadRxData(void) 
 604:Generated_Source\PSoC4/GLCD_1_SPIM_UDB.c **** {
 352              		.loc 1 604 0
 353              		.cfi_startproc
 354              		@ args = 0, pretend = 0, frame = 0
 355              		@ frame_needed = 0, uses_anonymous_args = 0
 356              		@ link register save eliminated.
 605:Generated_Source\PSoC4/GLCD_1_SPIM_UDB.c ****     uint16 rxData;
 606:Generated_Source\PSoC4/GLCD_1_SPIM_UDB.c **** 
 607:Generated_Source\PSoC4/GLCD_1_SPIM_UDB.c ****     #if(GLCD_1_SPIM_UDB_RX_SOFTWARE_BUF_ENABLED)
 608:Generated_Source\PSoC4/GLCD_1_SPIM_UDB.c **** 
 609:Generated_Source\PSoC4/GLCD_1_SPIM_UDB.c ****         /* Disable RX interrupt to protect global veriables */
 610:Generated_Source\PSoC4/GLCD_1_SPIM_UDB.c ****         GLCD_1_SPIM_UDB_DisableRxInt();
 611:Generated_Source\PSoC4/GLCD_1_SPIM_UDB.c **** 
 612:Generated_Source\PSoC4/GLCD_1_SPIM_UDB.c ****         if(GLCD_1_SPIM_UDB_rxBufferRead != GLCD_1_SPIM_UDB_rxBufferWrite)
 613:Generated_Source\PSoC4/GLCD_1_SPIM_UDB.c ****         {
ARM GAS  C:\Users\sur\AppData\Local\Temp\cc5BY4vB.s 			page 18


 614:Generated_Source\PSoC4/GLCD_1_SPIM_UDB.c ****             if(0u == GLCD_1_SPIM_UDB_rxBufferFull)
 615:Generated_Source\PSoC4/GLCD_1_SPIM_UDB.c ****             {
 616:Generated_Source\PSoC4/GLCD_1_SPIM_UDB.c ****                 GLCD_1_SPIM_UDB_rxBufferRead++;
 617:Generated_Source\PSoC4/GLCD_1_SPIM_UDB.c ****                 if(GLCD_1_SPIM_UDB_rxBufferRead >= GLCD_1_SPIM_UDB_RX_BUFFER_SIZE)
 618:Generated_Source\PSoC4/GLCD_1_SPIM_UDB.c ****                 {
 619:Generated_Source\PSoC4/GLCD_1_SPIM_UDB.c ****                     GLCD_1_SPIM_UDB_rxBufferRead = 0u;
 620:Generated_Source\PSoC4/GLCD_1_SPIM_UDB.c ****                 }
 621:Generated_Source\PSoC4/GLCD_1_SPIM_UDB.c ****             }
 622:Generated_Source\PSoC4/GLCD_1_SPIM_UDB.c ****             else
 623:Generated_Source\PSoC4/GLCD_1_SPIM_UDB.c ****             {
 624:Generated_Source\PSoC4/GLCD_1_SPIM_UDB.c ****                 GLCD_1_SPIM_UDB_rxBufferFull = 0u;
 625:Generated_Source\PSoC4/GLCD_1_SPIM_UDB.c ****             }
 626:Generated_Source\PSoC4/GLCD_1_SPIM_UDB.c ****         }
 627:Generated_Source\PSoC4/GLCD_1_SPIM_UDB.c **** 
 628:Generated_Source\PSoC4/GLCD_1_SPIM_UDB.c ****         rxData = GLCD_1_SPIM_UDB_rxBuffer[GLCD_1_SPIM_UDB_rxBufferRead];
 629:Generated_Source\PSoC4/GLCD_1_SPIM_UDB.c **** 
 630:Generated_Source\PSoC4/GLCD_1_SPIM_UDB.c ****         GLCD_1_SPIM_UDB_EnableRxInt();
 631:Generated_Source\PSoC4/GLCD_1_SPIM_UDB.c **** 
 632:Generated_Source\PSoC4/GLCD_1_SPIM_UDB.c ****     #else
 633:Generated_Source\PSoC4/GLCD_1_SPIM_UDB.c **** 
 634:Generated_Source\PSoC4/GLCD_1_SPIM_UDB.c ****         rxData = CY_GET_REG16(GLCD_1_SPIM_UDB_RXDATA_PTR);
 357              		.loc 1 634 0
 358 0000 014B     		ldr	r3, .L28
 359 0002 1888     		ldrh	r0, [r3]
 360 0004 80B2     		uxth	r0, r0
 361              	.LVL11:
 635:Generated_Source\PSoC4/GLCD_1_SPIM_UDB.c **** 
 636:Generated_Source\PSoC4/GLCD_1_SPIM_UDB.c ****     #endif /* (GLCD_1_SPIM_UDB_RX_SOFTWARE_BUF_ENABLED) */
 637:Generated_Source\PSoC4/GLCD_1_SPIM_UDB.c **** 
 638:Generated_Source\PSoC4/GLCD_1_SPIM_UDB.c ****     return(rxData);
 639:Generated_Source\PSoC4/GLCD_1_SPIM_UDB.c **** }
 362              		.loc 1 639 0
 363              		@ sp needed
 364 0006 7047     		bx	lr
 365              	.L29:
 366              		.align	2
 367              	.L28:
 368 0008 A4100F40 		.word	1074729124
 369              		.cfi_endproc
 370              	.LFE13:
 371              		.size	GLCD_1_SPIM_UDB_ReadRxData, .-GLCD_1_SPIM_UDB_ReadRxData
 372              		.section	.text.GLCD_1_SPIM_UDB_GetRxBufferSize,"ax",%progbits
 373              		.align	2
 374              		.global	GLCD_1_SPIM_UDB_GetRxBufferSize
 375              		.code	16
 376              		.thumb_func
 377              		.type	GLCD_1_SPIM_UDB_GetRxBufferSize, %function
 378              	GLCD_1_SPIM_UDB_GetRxBufferSize:
 379              	.LFB14:
 640:Generated_Source\PSoC4/GLCD_1_SPIM_UDB.c **** 
 641:Generated_Source\PSoC4/GLCD_1_SPIM_UDB.c **** 
 642:Generated_Source\PSoC4/GLCD_1_SPIM_UDB.c **** /*******************************************************************************
 643:Generated_Source\PSoC4/GLCD_1_SPIM_UDB.c **** * Function Name: GLCD_1_SPIM_UDB_GetRxBufferSize
 644:Generated_Source\PSoC4/GLCD_1_SPIM_UDB.c **** ********************************************************************************
 645:Generated_Source\PSoC4/GLCD_1_SPIM_UDB.c **** *
 646:Generated_Source\PSoC4/GLCD_1_SPIM_UDB.c **** * Summary:
 647:Generated_Source\PSoC4/GLCD_1_SPIM_UDB.c **** *  Returns the number of bytes/words of data currently held in the RX buffer.
ARM GAS  C:\Users\sur\AppData\Local\Temp\cc5BY4vB.s 			page 19


 648:Generated_Source\PSoC4/GLCD_1_SPIM_UDB.c **** *  If RX Software Buffer not used then function return 0 if FIFO empty or 1 if
 649:Generated_Source\PSoC4/GLCD_1_SPIM_UDB.c **** *  FIFO not empty. In another case function return size of RX Software Buffer.
 650:Generated_Source\PSoC4/GLCD_1_SPIM_UDB.c **** *
 651:Generated_Source\PSoC4/GLCD_1_SPIM_UDB.c **** * Parameters:
 652:Generated_Source\PSoC4/GLCD_1_SPIM_UDB.c **** *  None.
 653:Generated_Source\PSoC4/GLCD_1_SPIM_UDB.c **** *
 654:Generated_Source\PSoC4/GLCD_1_SPIM_UDB.c **** * Return:
 655:Generated_Source\PSoC4/GLCD_1_SPIM_UDB.c **** *  Integer count of the number of bytes/words in the RX buffer.
 656:Generated_Source\PSoC4/GLCD_1_SPIM_UDB.c **** *
 657:Generated_Source\PSoC4/GLCD_1_SPIM_UDB.c **** * Global variables:
 658:Generated_Source\PSoC4/GLCD_1_SPIM_UDB.c **** *  GLCD_1_SPIM_UDB_rxBufferWrite - used for the account of the bytes which
 659:Generated_Source\PSoC4/GLCD_1_SPIM_UDB.c **** *  have been written down in the RX software buffer.
 660:Generated_Source\PSoC4/GLCD_1_SPIM_UDB.c **** *  GLCD_1_SPIM_UDB_rxBufferRead - used for the account of the bytes which
 661:Generated_Source\PSoC4/GLCD_1_SPIM_UDB.c **** *  have been read from the RX software buffer.
 662:Generated_Source\PSoC4/GLCD_1_SPIM_UDB.c **** *
 663:Generated_Source\PSoC4/GLCD_1_SPIM_UDB.c **** * Side Effects:
 664:Generated_Source\PSoC4/GLCD_1_SPIM_UDB.c **** *  Clear status register of the component.
 665:Generated_Source\PSoC4/GLCD_1_SPIM_UDB.c **** *
 666:Generated_Source\PSoC4/GLCD_1_SPIM_UDB.c **** *******************************************************************************/
 667:Generated_Source\PSoC4/GLCD_1_SPIM_UDB.c **** uint8 GLCD_1_SPIM_UDB_GetRxBufferSize(void) 
 668:Generated_Source\PSoC4/GLCD_1_SPIM_UDB.c **** {
 380              		.loc 1 668 0
 381              		.cfi_startproc
 382              		@ args = 0, pretend = 0, frame = 0
 383              		@ frame_needed = 0, uses_anonymous_args = 0
 384              		@ link register save eliminated.
 669:Generated_Source\PSoC4/GLCD_1_SPIM_UDB.c ****     uint8 size;
 670:Generated_Source\PSoC4/GLCD_1_SPIM_UDB.c **** 
 671:Generated_Source\PSoC4/GLCD_1_SPIM_UDB.c ****     #if(GLCD_1_SPIM_UDB_RX_SOFTWARE_BUF_ENABLED)
 672:Generated_Source\PSoC4/GLCD_1_SPIM_UDB.c **** 
 673:Generated_Source\PSoC4/GLCD_1_SPIM_UDB.c ****         /* Disable RX interrupt to protect global veriables */
 674:Generated_Source\PSoC4/GLCD_1_SPIM_UDB.c ****         GLCD_1_SPIM_UDB_DisableRxInt();
 675:Generated_Source\PSoC4/GLCD_1_SPIM_UDB.c **** 
 676:Generated_Source\PSoC4/GLCD_1_SPIM_UDB.c ****         if(GLCD_1_SPIM_UDB_rxBufferRead == GLCD_1_SPIM_UDB_rxBufferWrite)
 677:Generated_Source\PSoC4/GLCD_1_SPIM_UDB.c ****         {
 678:Generated_Source\PSoC4/GLCD_1_SPIM_UDB.c ****             size = 0u;
 679:Generated_Source\PSoC4/GLCD_1_SPIM_UDB.c ****         }
 680:Generated_Source\PSoC4/GLCD_1_SPIM_UDB.c ****         else if(GLCD_1_SPIM_UDB_rxBufferRead < GLCD_1_SPIM_UDB_rxBufferWrite)
 681:Generated_Source\PSoC4/GLCD_1_SPIM_UDB.c ****         {
 682:Generated_Source\PSoC4/GLCD_1_SPIM_UDB.c ****             size = (GLCD_1_SPIM_UDB_rxBufferWrite - GLCD_1_SPIM_UDB_rxBufferRead);
 683:Generated_Source\PSoC4/GLCD_1_SPIM_UDB.c ****         }
 684:Generated_Source\PSoC4/GLCD_1_SPIM_UDB.c ****         else
 685:Generated_Source\PSoC4/GLCD_1_SPIM_UDB.c ****         {
 686:Generated_Source\PSoC4/GLCD_1_SPIM_UDB.c ****             size = (GLCD_1_SPIM_UDB_RX_BUFFER_SIZE - GLCD_1_SPIM_UDB_rxBufferRead) + GLCD_1_SPIM_UD
 687:Generated_Source\PSoC4/GLCD_1_SPIM_UDB.c ****         }
 688:Generated_Source\PSoC4/GLCD_1_SPIM_UDB.c **** 
 689:Generated_Source\PSoC4/GLCD_1_SPIM_UDB.c ****         GLCD_1_SPIM_UDB_EnableRxInt();
 690:Generated_Source\PSoC4/GLCD_1_SPIM_UDB.c **** 
 691:Generated_Source\PSoC4/GLCD_1_SPIM_UDB.c ****     #else
 692:Generated_Source\PSoC4/GLCD_1_SPIM_UDB.c **** 
 693:Generated_Source\PSoC4/GLCD_1_SPIM_UDB.c ****         /* We can only know if there is data in the RX FIFO */
 694:Generated_Source\PSoC4/GLCD_1_SPIM_UDB.c ****         size = (0u != (GLCD_1_SPIM_UDB_RX_STATUS_REG & GLCD_1_SPIM_UDB_STS_RX_FIFO_NOT_EMPTY)) ? 1u
 385              		.loc 1 694 0
 386 0000 034B     		ldr	r3, .L33
 387 0002 1B78     		ldrb	r3, [r3]
 388 0004 9B06     		lsls	r3, r3, #26
 389 0006 01D5     		bpl	.L32
ARM GAS  C:\Users\sur\AppData\Local\Temp\cc5BY4vB.s 			page 20


 390 0008 0120     		movs	r0, #1
 391 000a 00E0     		b	.L31
 392              	.L32:
 393 000c 0020     		movs	r0, #0
 394              	.L31:
 395              	.LVL12:
 695:Generated_Source\PSoC4/GLCD_1_SPIM_UDB.c **** 
 696:Generated_Source\PSoC4/GLCD_1_SPIM_UDB.c ****     #endif /* (GLCD_1_SPIM_UDB_TX_SOFTWARE_BUF_ENABLED) */
 697:Generated_Source\PSoC4/GLCD_1_SPIM_UDB.c **** 
 698:Generated_Source\PSoC4/GLCD_1_SPIM_UDB.c ****     return(size);
 699:Generated_Source\PSoC4/GLCD_1_SPIM_UDB.c **** }
 396              		.loc 1 699 0 discriminator 4
 397              		@ sp needed
 398 000e 7047     		bx	lr
 399              	.L34:
 400              		.align	2
 401              	.L33:
 402 0010 60000F40 		.word	1074724960
 403              		.cfi_endproc
 404              	.LFE14:
 405              		.size	GLCD_1_SPIM_UDB_GetRxBufferSize, .-GLCD_1_SPIM_UDB_GetRxBufferSize
 406              		.section	.text.GLCD_1_SPIM_UDB_GetTxBufferSize,"ax",%progbits
 407              		.align	2
 408              		.global	GLCD_1_SPIM_UDB_GetTxBufferSize
 409              		.code	16
 410              		.thumb_func
 411              		.type	GLCD_1_SPIM_UDB_GetTxBufferSize, %function
 412              	GLCD_1_SPIM_UDB_GetTxBufferSize:
 413              	.LFB15:
 700:Generated_Source\PSoC4/GLCD_1_SPIM_UDB.c **** 
 701:Generated_Source\PSoC4/GLCD_1_SPIM_UDB.c **** 
 702:Generated_Source\PSoC4/GLCD_1_SPIM_UDB.c **** /*******************************************************************************
 703:Generated_Source\PSoC4/GLCD_1_SPIM_UDB.c **** * Function Name: GLCD_1_SPIM_UDB_GetTxBufferSize
 704:Generated_Source\PSoC4/GLCD_1_SPIM_UDB.c **** ********************************************************************************
 705:Generated_Source\PSoC4/GLCD_1_SPIM_UDB.c **** *
 706:Generated_Source\PSoC4/GLCD_1_SPIM_UDB.c **** * Summary:
 707:Generated_Source\PSoC4/GLCD_1_SPIM_UDB.c **** *  Returns the number of bytes/words of data currently held in the TX buffer.
 708:Generated_Source\PSoC4/GLCD_1_SPIM_UDB.c **** *  If TX Software Buffer not used then function return 0 - if FIFO empty, 1 - if
 709:Generated_Source\PSoC4/GLCD_1_SPIM_UDB.c **** *  FIFO not full, 4 - if FIFO full. In another case function return size of TX
 710:Generated_Source\PSoC4/GLCD_1_SPIM_UDB.c **** *  Software Buffer.
 711:Generated_Source\PSoC4/GLCD_1_SPIM_UDB.c **** *
 712:Generated_Source\PSoC4/GLCD_1_SPIM_UDB.c **** * Parameters:
 713:Generated_Source\PSoC4/GLCD_1_SPIM_UDB.c **** *  None.
 714:Generated_Source\PSoC4/GLCD_1_SPIM_UDB.c **** *
 715:Generated_Source\PSoC4/GLCD_1_SPIM_UDB.c **** * Return:
 716:Generated_Source\PSoC4/GLCD_1_SPIM_UDB.c **** *  Integer count of the number of bytes/words in the TX buffer.
 717:Generated_Source\PSoC4/GLCD_1_SPIM_UDB.c **** *
 718:Generated_Source\PSoC4/GLCD_1_SPIM_UDB.c **** * Global variables:
 719:Generated_Source\PSoC4/GLCD_1_SPIM_UDB.c **** *  GLCD_1_SPIM_UDB_txBufferWrite - used for the account of the bytes which
 720:Generated_Source\PSoC4/GLCD_1_SPIM_UDB.c **** *  have been written down in the TX software buffer.
 721:Generated_Source\PSoC4/GLCD_1_SPIM_UDB.c **** *  GLCD_1_SPIM_UDB_txBufferRead - used for the account of the bytes which
 722:Generated_Source\PSoC4/GLCD_1_SPIM_UDB.c **** *  have been read from the TX software buffer.
 723:Generated_Source\PSoC4/GLCD_1_SPIM_UDB.c **** *
 724:Generated_Source\PSoC4/GLCD_1_SPIM_UDB.c **** * Side Effects:
 725:Generated_Source\PSoC4/GLCD_1_SPIM_UDB.c **** *  Clear status register of the component.
 726:Generated_Source\PSoC4/GLCD_1_SPIM_UDB.c **** *
 727:Generated_Source\PSoC4/GLCD_1_SPIM_UDB.c **** *******************************************************************************/
ARM GAS  C:\Users\sur\AppData\Local\Temp\cc5BY4vB.s 			page 21


 728:Generated_Source\PSoC4/GLCD_1_SPIM_UDB.c **** uint8  GLCD_1_SPIM_UDB_GetTxBufferSize(void) 
 729:Generated_Source\PSoC4/GLCD_1_SPIM_UDB.c **** {
 414              		.loc 1 729 0
 415              		.cfi_startproc
 416              		@ args = 0, pretend = 0, frame = 0
 417              		@ frame_needed = 0, uses_anonymous_args = 0
 418              		@ link register save eliminated.
 730:Generated_Source\PSoC4/GLCD_1_SPIM_UDB.c ****     uint8 size;
 731:Generated_Source\PSoC4/GLCD_1_SPIM_UDB.c **** 
 732:Generated_Source\PSoC4/GLCD_1_SPIM_UDB.c ****     #if(GLCD_1_SPIM_UDB_TX_SOFTWARE_BUF_ENABLED)
 733:Generated_Source\PSoC4/GLCD_1_SPIM_UDB.c ****         /* Disable TX interrupt to protect global veriables */
 734:Generated_Source\PSoC4/GLCD_1_SPIM_UDB.c ****         GLCD_1_SPIM_UDB_DisableTxInt();
 735:Generated_Source\PSoC4/GLCD_1_SPIM_UDB.c **** 
 736:Generated_Source\PSoC4/GLCD_1_SPIM_UDB.c ****         if(GLCD_1_SPIM_UDB_txBufferRead == GLCD_1_SPIM_UDB_txBufferWrite)
 737:Generated_Source\PSoC4/GLCD_1_SPIM_UDB.c ****         {
 738:Generated_Source\PSoC4/GLCD_1_SPIM_UDB.c ****             size = 0u;
 739:Generated_Source\PSoC4/GLCD_1_SPIM_UDB.c ****         }
 740:Generated_Source\PSoC4/GLCD_1_SPIM_UDB.c ****         else if(GLCD_1_SPIM_UDB_txBufferRead < GLCD_1_SPIM_UDB_txBufferWrite)
 741:Generated_Source\PSoC4/GLCD_1_SPIM_UDB.c ****         {
 742:Generated_Source\PSoC4/GLCD_1_SPIM_UDB.c ****             size = (GLCD_1_SPIM_UDB_txBufferWrite - GLCD_1_SPIM_UDB_txBufferRead);
 743:Generated_Source\PSoC4/GLCD_1_SPIM_UDB.c ****         }
 744:Generated_Source\PSoC4/GLCD_1_SPIM_UDB.c ****         else
 745:Generated_Source\PSoC4/GLCD_1_SPIM_UDB.c ****         {
 746:Generated_Source\PSoC4/GLCD_1_SPIM_UDB.c ****             size = (GLCD_1_SPIM_UDB_TX_BUFFER_SIZE - GLCD_1_SPIM_UDB_txBufferRead) + GLCD_1_SPIM_UD
 747:Generated_Source\PSoC4/GLCD_1_SPIM_UDB.c ****         }
 748:Generated_Source\PSoC4/GLCD_1_SPIM_UDB.c **** 
 749:Generated_Source\PSoC4/GLCD_1_SPIM_UDB.c ****         GLCD_1_SPIM_UDB_EnableTxInt();
 750:Generated_Source\PSoC4/GLCD_1_SPIM_UDB.c **** 
 751:Generated_Source\PSoC4/GLCD_1_SPIM_UDB.c ****     #else
 752:Generated_Source\PSoC4/GLCD_1_SPIM_UDB.c **** 
 753:Generated_Source\PSoC4/GLCD_1_SPIM_UDB.c ****         size = GLCD_1_SPIM_UDB_TX_STATUS_REG;
 419              		.loc 1 753 0
 420 0000 064B     		ldr	r3, .L39
 421 0002 1B78     		ldrb	r3, [r3]
 422 0004 DBB2     		uxtb	r3, r3
 423              	.LVL13:
 754:Generated_Source\PSoC4/GLCD_1_SPIM_UDB.c **** 
 755:Generated_Source\PSoC4/GLCD_1_SPIM_UDB.c ****         if(0u != (size & GLCD_1_SPIM_UDB_STS_TX_FIFO_EMPTY))
 424              		.loc 1 755 0
 425 0006 9A07     		lsls	r2, r3, #30
 426 0008 03D4     		bmi	.L37
 756:Generated_Source\PSoC4/GLCD_1_SPIM_UDB.c ****         {
 757:Generated_Source\PSoC4/GLCD_1_SPIM_UDB.c ****             size = 0u;
 758:Generated_Source\PSoC4/GLCD_1_SPIM_UDB.c ****         }
 759:Generated_Source\PSoC4/GLCD_1_SPIM_UDB.c ****         else if(0u != (size & GLCD_1_SPIM_UDB_STS_TX_FIFO_NOT_FULL))
 427              		.loc 1 759 0
 428 000a 5B07     		lsls	r3, r3, #29
 429 000c 03D5     		bpl	.L38
 430              	.LVL14:
 760:Generated_Source\PSoC4/GLCD_1_SPIM_UDB.c ****         {
 761:Generated_Source\PSoC4/GLCD_1_SPIM_UDB.c ****             size = 1u;
 431              		.loc 1 761 0
 432 000e 0120     		movs	r0, #1
 433 0010 02E0     		b	.L36
 434              	.LVL15:
 435              	.L37:
 757:Generated_Source\PSoC4/GLCD_1_SPIM_UDB.c ****         }
ARM GAS  C:\Users\sur\AppData\Local\Temp\cc5BY4vB.s 			page 22


 436              		.loc 1 757 0
 437 0012 0020     		movs	r0, #0
 438 0014 00E0     		b	.L36
 439              	.LVL16:
 440              	.L38:
 762:Generated_Source\PSoC4/GLCD_1_SPIM_UDB.c ****         }
 763:Generated_Source\PSoC4/GLCD_1_SPIM_UDB.c ****         else
 764:Generated_Source\PSoC4/GLCD_1_SPIM_UDB.c ****         {
 765:Generated_Source\PSoC4/GLCD_1_SPIM_UDB.c ****             size = GLCD_1_SPIM_UDB_FIFO_SIZE;
 441              		.loc 1 765 0
 442 0016 0420     		movs	r0, #4
 443              	.L36:
 444              	.LVL17:
 766:Generated_Source\PSoC4/GLCD_1_SPIM_UDB.c ****         }
 767:Generated_Source\PSoC4/GLCD_1_SPIM_UDB.c **** 
 768:Generated_Source\PSoC4/GLCD_1_SPIM_UDB.c ****     #endif /* (GLCD_1_SPIM_UDB_TX_SOFTWARE_BUF_ENABLED) */
 769:Generated_Source\PSoC4/GLCD_1_SPIM_UDB.c **** 
 770:Generated_Source\PSoC4/GLCD_1_SPIM_UDB.c ****     return(size);
 771:Generated_Source\PSoC4/GLCD_1_SPIM_UDB.c **** }
 445              		.loc 1 771 0
 446              		@ sp needed
 447 0018 7047     		bx	lr
 448              	.L40:
 449 001a C046     		.align	2
 450              	.L39:
 451 001c 62000F40 		.word	1074724962
 452              		.cfi_endproc
 453              	.LFE15:
 454              		.size	GLCD_1_SPIM_UDB_GetTxBufferSize, .-GLCD_1_SPIM_UDB_GetTxBufferSize
 455              		.section	.text.GLCD_1_SPIM_UDB_ClearRxBuffer,"ax",%progbits
 456              		.align	2
 457              		.global	GLCD_1_SPIM_UDB_ClearRxBuffer
 458              		.code	16
 459              		.thumb_func
 460              		.type	GLCD_1_SPIM_UDB_ClearRxBuffer, %function
 461              	GLCD_1_SPIM_UDB_ClearRxBuffer:
 462              	.LFB16:
 772:Generated_Source\PSoC4/GLCD_1_SPIM_UDB.c **** 
 773:Generated_Source\PSoC4/GLCD_1_SPIM_UDB.c **** 
 774:Generated_Source\PSoC4/GLCD_1_SPIM_UDB.c **** /*******************************************************************************
 775:Generated_Source\PSoC4/GLCD_1_SPIM_UDB.c **** * Function Name: GLCD_1_SPIM_UDB_ClearRxBuffer
 776:Generated_Source\PSoC4/GLCD_1_SPIM_UDB.c **** ********************************************************************************
 777:Generated_Source\PSoC4/GLCD_1_SPIM_UDB.c **** *
 778:Generated_Source\PSoC4/GLCD_1_SPIM_UDB.c **** * Summary:
 779:Generated_Source\PSoC4/GLCD_1_SPIM_UDB.c **** *  Clear the RX RAM buffer by setting the read and write pointers both to zero.
 780:Generated_Source\PSoC4/GLCD_1_SPIM_UDB.c **** *
 781:Generated_Source\PSoC4/GLCD_1_SPIM_UDB.c **** * Parameters:
 782:Generated_Source\PSoC4/GLCD_1_SPIM_UDB.c **** *  None.
 783:Generated_Source\PSoC4/GLCD_1_SPIM_UDB.c **** *
 784:Generated_Source\PSoC4/GLCD_1_SPIM_UDB.c **** * Return:
 785:Generated_Source\PSoC4/GLCD_1_SPIM_UDB.c **** *  None.
 786:Generated_Source\PSoC4/GLCD_1_SPIM_UDB.c **** *
 787:Generated_Source\PSoC4/GLCD_1_SPIM_UDB.c **** * Global variables:
 788:Generated_Source\PSoC4/GLCD_1_SPIM_UDB.c **** *  GLCD_1_SPIM_UDB_rxBufferWrite - used for the account of the bytes which
 789:Generated_Source\PSoC4/GLCD_1_SPIM_UDB.c **** *  have been written down in the RX software buffer, modified every function
 790:Generated_Source\PSoC4/GLCD_1_SPIM_UDB.c **** *  call - resets to zero.
 791:Generated_Source\PSoC4/GLCD_1_SPIM_UDB.c **** *  GLCD_1_SPIM_UDB_rxBufferRead - used for the account of the bytes which
ARM GAS  C:\Users\sur\AppData\Local\Temp\cc5BY4vB.s 			page 23


 792:Generated_Source\PSoC4/GLCD_1_SPIM_UDB.c **** *  have been read from the RX software buffer, modified every function call -
 793:Generated_Source\PSoC4/GLCD_1_SPIM_UDB.c **** *  resets to zero.
 794:Generated_Source\PSoC4/GLCD_1_SPIM_UDB.c **** *
 795:Generated_Source\PSoC4/GLCD_1_SPIM_UDB.c **** * Theory:
 796:Generated_Source\PSoC4/GLCD_1_SPIM_UDB.c **** *  Setting the pointers to zero makes the system believe there is no data to
 797:Generated_Source\PSoC4/GLCD_1_SPIM_UDB.c **** *  read and writing will resume at address 0 overwriting any data that may have
 798:Generated_Source\PSoC4/GLCD_1_SPIM_UDB.c **** *  remained in the RAM.
 799:Generated_Source\PSoC4/GLCD_1_SPIM_UDB.c **** *
 800:Generated_Source\PSoC4/GLCD_1_SPIM_UDB.c **** * Side Effects:
 801:Generated_Source\PSoC4/GLCD_1_SPIM_UDB.c **** *  Any received data not read from the RAM buffer will be lost when overwritten.
 802:Generated_Source\PSoC4/GLCD_1_SPIM_UDB.c **** *
 803:Generated_Source\PSoC4/GLCD_1_SPIM_UDB.c **** * Reentrant:
 804:Generated_Source\PSoC4/GLCD_1_SPIM_UDB.c **** *  No.
 805:Generated_Source\PSoC4/GLCD_1_SPIM_UDB.c **** *
 806:Generated_Source\PSoC4/GLCD_1_SPIM_UDB.c **** *******************************************************************************/
 807:Generated_Source\PSoC4/GLCD_1_SPIM_UDB.c **** void GLCD_1_SPIM_UDB_ClearRxBuffer(void) 
 808:Generated_Source\PSoC4/GLCD_1_SPIM_UDB.c **** {
 463              		.loc 1 808 0
 464              		.cfi_startproc
 465              		@ args = 0, pretend = 0, frame = 0
 466              		@ frame_needed = 0, uses_anonymous_args = 0
 467              		@ link register save eliminated.
 809:Generated_Source\PSoC4/GLCD_1_SPIM_UDB.c ****     /* Clear Hardware RX FIFO */
 810:Generated_Source\PSoC4/GLCD_1_SPIM_UDB.c ****     while(0u !=(GLCD_1_SPIM_UDB_RX_STATUS_REG & GLCD_1_SPIM_UDB_STS_RX_FIFO_NOT_EMPTY))
 468              		.loc 1 810 0
 469 0000 01E0     		b	.L42
 470              	.L43:
 811:Generated_Source\PSoC4/GLCD_1_SPIM_UDB.c ****     {
 812:Generated_Source\PSoC4/GLCD_1_SPIM_UDB.c ****         (void) CY_GET_REG16(GLCD_1_SPIM_UDB_RXDATA_PTR);
 471              		.loc 1 812 0
 472 0002 034B     		ldr	r3, .L44
 473 0004 1B88     		ldrh	r3, [r3]
 474              	.L42:
 810:Generated_Source\PSoC4/GLCD_1_SPIM_UDB.c ****     {
 475              		.loc 1 810 0
 476 0006 034B     		ldr	r3, .L44+4
 477 0008 1B78     		ldrb	r3, [r3]
 478 000a 9B06     		lsls	r3, r3, #26
 479 000c F9D4     		bmi	.L43
 813:Generated_Source\PSoC4/GLCD_1_SPIM_UDB.c ****     }
 814:Generated_Source\PSoC4/GLCD_1_SPIM_UDB.c **** 
 815:Generated_Source\PSoC4/GLCD_1_SPIM_UDB.c ****     #if(GLCD_1_SPIM_UDB_RX_SOFTWARE_BUF_ENABLED)
 816:Generated_Source\PSoC4/GLCD_1_SPIM_UDB.c ****         /* Disable RX interrupt to protect global veriables */
 817:Generated_Source\PSoC4/GLCD_1_SPIM_UDB.c ****         GLCD_1_SPIM_UDB_DisableRxInt();
 818:Generated_Source\PSoC4/GLCD_1_SPIM_UDB.c **** 
 819:Generated_Source\PSoC4/GLCD_1_SPIM_UDB.c ****         GLCD_1_SPIM_UDB_rxBufferFull  = 0u;
 820:Generated_Source\PSoC4/GLCD_1_SPIM_UDB.c ****         GLCD_1_SPIM_UDB_rxBufferRead  = 0u;
 821:Generated_Source\PSoC4/GLCD_1_SPIM_UDB.c ****         GLCD_1_SPIM_UDB_rxBufferWrite = 0u;
 822:Generated_Source\PSoC4/GLCD_1_SPIM_UDB.c **** 
 823:Generated_Source\PSoC4/GLCD_1_SPIM_UDB.c ****         GLCD_1_SPIM_UDB_EnableRxInt();
 824:Generated_Source\PSoC4/GLCD_1_SPIM_UDB.c ****     #endif /* (GLCD_1_SPIM_UDB_RX_SOFTWARE_BUF_ENABLED) */
 825:Generated_Source\PSoC4/GLCD_1_SPIM_UDB.c **** }
 480              		.loc 1 825 0
 481              		@ sp needed
 482 000e 7047     		bx	lr
 483              	.L45:
 484              		.align	2
ARM GAS  C:\Users\sur\AppData\Local\Temp\cc5BY4vB.s 			page 24


 485              	.L44:
 486 0010 A4100F40 		.word	1074729124
 487 0014 60000F40 		.word	1074724960
 488              		.cfi_endproc
 489              	.LFE16:
 490              		.size	GLCD_1_SPIM_UDB_ClearRxBuffer, .-GLCD_1_SPIM_UDB_ClearRxBuffer
 491              		.section	.text.GLCD_1_SPIM_UDB_ClearTxBuffer,"ax",%progbits
 492              		.align	2
 493              		.global	GLCD_1_SPIM_UDB_ClearTxBuffer
 494              		.code	16
 495              		.thumb_func
 496              		.type	GLCD_1_SPIM_UDB_ClearTxBuffer, %function
 497              	GLCD_1_SPIM_UDB_ClearTxBuffer:
 498              	.LFB17:
 826:Generated_Source\PSoC4/GLCD_1_SPIM_UDB.c **** 
 827:Generated_Source\PSoC4/GLCD_1_SPIM_UDB.c **** 
 828:Generated_Source\PSoC4/GLCD_1_SPIM_UDB.c **** /*******************************************************************************
 829:Generated_Source\PSoC4/GLCD_1_SPIM_UDB.c **** * Function Name: GLCD_1_SPIM_UDB_ClearTxBuffer
 830:Generated_Source\PSoC4/GLCD_1_SPIM_UDB.c **** ********************************************************************************
 831:Generated_Source\PSoC4/GLCD_1_SPIM_UDB.c **** *
 832:Generated_Source\PSoC4/GLCD_1_SPIM_UDB.c **** * Summary:
 833:Generated_Source\PSoC4/GLCD_1_SPIM_UDB.c **** *  Clear the TX RAM buffer by setting the read and write pointers both to zero.
 834:Generated_Source\PSoC4/GLCD_1_SPIM_UDB.c **** *
 835:Generated_Source\PSoC4/GLCD_1_SPIM_UDB.c **** * Parameters:
 836:Generated_Source\PSoC4/GLCD_1_SPIM_UDB.c **** *  None.
 837:Generated_Source\PSoC4/GLCD_1_SPIM_UDB.c **** *
 838:Generated_Source\PSoC4/GLCD_1_SPIM_UDB.c **** * Return:
 839:Generated_Source\PSoC4/GLCD_1_SPIM_UDB.c **** *  None.
 840:Generated_Source\PSoC4/GLCD_1_SPIM_UDB.c **** *
 841:Generated_Source\PSoC4/GLCD_1_SPIM_UDB.c **** * Global variables:
 842:Generated_Source\PSoC4/GLCD_1_SPIM_UDB.c **** *  GLCD_1_SPIM_UDB_txBufferWrite - used for the account of the bytes which
 843:Generated_Source\PSoC4/GLCD_1_SPIM_UDB.c **** *  have been written down in the TX software buffer, modified every function
 844:Generated_Source\PSoC4/GLCD_1_SPIM_UDB.c **** *  call - resets to zero.
 845:Generated_Source\PSoC4/GLCD_1_SPIM_UDB.c **** *  GLCD_1_SPIM_UDB_txBufferRead - used for the account of the bytes which
 846:Generated_Source\PSoC4/GLCD_1_SPIM_UDB.c **** *  have been read from the TX software buffer, modified every function call -
 847:Generated_Source\PSoC4/GLCD_1_SPIM_UDB.c **** *  resets to zero.
 848:Generated_Source\PSoC4/GLCD_1_SPIM_UDB.c **** *
 849:Generated_Source\PSoC4/GLCD_1_SPIM_UDB.c **** * Theory:
 850:Generated_Source\PSoC4/GLCD_1_SPIM_UDB.c **** *  Setting the pointers to zero makes the system believe there is no data to
 851:Generated_Source\PSoC4/GLCD_1_SPIM_UDB.c **** *  read and writing will resume at address 0 overwriting any data that may have
 852:Generated_Source\PSoC4/GLCD_1_SPIM_UDB.c **** *  remained in the RAM.
 853:Generated_Source\PSoC4/GLCD_1_SPIM_UDB.c **** *
 854:Generated_Source\PSoC4/GLCD_1_SPIM_UDB.c **** * Side Effects:
 855:Generated_Source\PSoC4/GLCD_1_SPIM_UDB.c **** *  Any data not yet transmitted from the RAM buffer will be lost when
 856:Generated_Source\PSoC4/GLCD_1_SPIM_UDB.c **** *  overwritten.
 857:Generated_Source\PSoC4/GLCD_1_SPIM_UDB.c **** *
 858:Generated_Source\PSoC4/GLCD_1_SPIM_UDB.c **** * Reentrant:
 859:Generated_Source\PSoC4/GLCD_1_SPIM_UDB.c **** *  No.
 860:Generated_Source\PSoC4/GLCD_1_SPIM_UDB.c **** *
 861:Generated_Source\PSoC4/GLCD_1_SPIM_UDB.c **** *******************************************************************************/
 862:Generated_Source\PSoC4/GLCD_1_SPIM_UDB.c **** void GLCD_1_SPIM_UDB_ClearTxBuffer(void) 
 863:Generated_Source\PSoC4/GLCD_1_SPIM_UDB.c **** {
 499              		.loc 1 863 0
 500              		.cfi_startproc
 501              		@ args = 0, pretend = 0, frame = 0
 502              		@ frame_needed = 0, uses_anonymous_args = 0
 503 0000 10B5     		push	{r4, lr}
ARM GAS  C:\Users\sur\AppData\Local\Temp\cc5BY4vB.s 			page 25


 504              		.cfi_def_cfa_offset 8
 505              		.cfi_offset 4, -8
 506              		.cfi_offset 14, -4
 864:Generated_Source\PSoC4/GLCD_1_SPIM_UDB.c ****     uint8 enableInterrupts;
 865:Generated_Source\PSoC4/GLCD_1_SPIM_UDB.c **** 
 866:Generated_Source\PSoC4/GLCD_1_SPIM_UDB.c ****     enableInterrupts = CyEnterCriticalSection();
 507              		.loc 1 866 0
 508 0002 FFF7FEFF 		bl	CyEnterCriticalSection
 509              	.LVL18:
 867:Generated_Source\PSoC4/GLCD_1_SPIM_UDB.c ****     /* Clear TX FIFO */
 868:Generated_Source\PSoC4/GLCD_1_SPIM_UDB.c ****     GLCD_1_SPIM_UDB_AUX_CONTROL_DP0_REG |= ((uint8)  GLCD_1_SPIM_UDB_TX_FIFO_CLR);
 510              		.loc 1 868 0
 511 0006 0A49     		ldr	r1, .L47
 512 0008 0A78     		ldrb	r2, [r1]
 513 000a 0124     		movs	r4, #1
 514 000c 0123     		movs	r3, #1
 515 000e 1A43     		orrs	r2, r3
 516 0010 D2B2     		uxtb	r2, r2
 517 0012 0A70     		strb	r2, [r1]
 869:Generated_Source\PSoC4/GLCD_1_SPIM_UDB.c ****     GLCD_1_SPIM_UDB_AUX_CONTROL_DP0_REG &= ((uint8) ~GLCD_1_SPIM_UDB_TX_FIFO_CLR);
 518              		.loc 1 869 0
 519 0014 0A78     		ldrb	r2, [r1]
 520 0016 A243     		bics	r2, r4
 521 0018 0A70     		strb	r2, [r1]
 870:Generated_Source\PSoC4/GLCD_1_SPIM_UDB.c **** 
 871:Generated_Source\PSoC4/GLCD_1_SPIM_UDB.c ****     #if(GLCD_1_SPIM_UDB_USE_SECOND_DATAPATH)
 872:Generated_Source\PSoC4/GLCD_1_SPIM_UDB.c ****         /* Clear TX FIFO for 2nd Datapath */
 873:Generated_Source\PSoC4/GLCD_1_SPIM_UDB.c ****         GLCD_1_SPIM_UDB_AUX_CONTROL_DP1_REG |= ((uint8)  GLCD_1_SPIM_UDB_TX_FIFO_CLR);
 522              		.loc 1 873 0
 523 001a 064A     		ldr	r2, .L47+4
 524 001c 1178     		ldrb	r1, [r2]
 525 001e 0B43     		orrs	r3, r1
 526 0020 DBB2     		uxtb	r3, r3
 527 0022 1370     		strb	r3, [r2]
 874:Generated_Source\PSoC4/GLCD_1_SPIM_UDB.c ****         GLCD_1_SPIM_UDB_AUX_CONTROL_DP1_REG &= ((uint8) ~GLCD_1_SPIM_UDB_TX_FIFO_CLR);
 528              		.loc 1 874 0
 529 0024 1378     		ldrb	r3, [r2]
 530 0026 A343     		bics	r3, r4
 531 0028 1370     		strb	r3, [r2]
 875:Generated_Source\PSoC4/GLCD_1_SPIM_UDB.c ****     #endif /* (GLCD_1_SPIM_UDB_USE_SECOND_DATAPATH) */
 876:Generated_Source\PSoC4/GLCD_1_SPIM_UDB.c ****     CyExitCriticalSection(enableInterrupts);
 532              		.loc 1 876 0
 533 002a FFF7FEFF 		bl	CyExitCriticalSection
 534              	.LVL19:
 877:Generated_Source\PSoC4/GLCD_1_SPIM_UDB.c **** 
 878:Generated_Source\PSoC4/GLCD_1_SPIM_UDB.c ****     #if(GLCD_1_SPIM_UDB_TX_SOFTWARE_BUF_ENABLED)
 879:Generated_Source\PSoC4/GLCD_1_SPIM_UDB.c ****         /* Disable TX interrupt to protect global veriables */
 880:Generated_Source\PSoC4/GLCD_1_SPIM_UDB.c ****         GLCD_1_SPIM_UDB_DisableTxInt();
 881:Generated_Source\PSoC4/GLCD_1_SPIM_UDB.c **** 
 882:Generated_Source\PSoC4/GLCD_1_SPIM_UDB.c ****         GLCD_1_SPIM_UDB_txBufferFull  = 0u;
 883:Generated_Source\PSoC4/GLCD_1_SPIM_UDB.c ****         GLCD_1_SPIM_UDB_txBufferRead  = 0u;
 884:Generated_Source\PSoC4/GLCD_1_SPIM_UDB.c ****         GLCD_1_SPIM_UDB_txBufferWrite = 0u;
 885:Generated_Source\PSoC4/GLCD_1_SPIM_UDB.c **** 
 886:Generated_Source\PSoC4/GLCD_1_SPIM_UDB.c ****         /* Buffer is EMPTY: disable TX FIFO NOT FULL interrupt */
 887:Generated_Source\PSoC4/GLCD_1_SPIM_UDB.c ****         GLCD_1_SPIM_UDB_TX_STATUS_MASK_REG &= ((uint8) ~GLCD_1_SPIM_UDB_STS_TX_FIFO_NOT_FULL);
 888:Generated_Source\PSoC4/GLCD_1_SPIM_UDB.c **** 
 889:Generated_Source\PSoC4/GLCD_1_SPIM_UDB.c ****         GLCD_1_SPIM_UDB_EnableTxInt();
ARM GAS  C:\Users\sur\AppData\Local\Temp\cc5BY4vB.s 			page 26


 890:Generated_Source\PSoC4/GLCD_1_SPIM_UDB.c ****     #endif /* (GLCD_1_SPIM_UDB_TX_SOFTWARE_BUF_ENABLED) */
 891:Generated_Source\PSoC4/GLCD_1_SPIM_UDB.c **** }
 535              		.loc 1 891 0
 536              		@ sp needed
 537 002e 10BD     		pop	{r4, pc}
 538              	.L48:
 539              		.align	2
 540              	.L47:
 541 0030 92000F40 		.word	1074725010
 542 0034 93000F40 		.word	1074725011
 543              		.cfi_endproc
 544              	.LFE17:
 545              		.size	GLCD_1_SPIM_UDB_ClearTxBuffer, .-GLCD_1_SPIM_UDB_ClearTxBuffer
 546              		.section	.text.GLCD_1_SPIM_UDB_PutArray,"ax",%progbits
 547              		.align	2
 548              		.global	GLCD_1_SPIM_UDB_PutArray
 549              		.code	16
 550              		.thumb_func
 551              		.type	GLCD_1_SPIM_UDB_PutArray, %function
 552              	GLCD_1_SPIM_UDB_PutArray:
 553              	.LFB18:
 892:Generated_Source\PSoC4/GLCD_1_SPIM_UDB.c **** 
 893:Generated_Source\PSoC4/GLCD_1_SPIM_UDB.c **** 
 894:Generated_Source\PSoC4/GLCD_1_SPIM_UDB.c **** #if(0u != GLCD_1_SPIM_UDB_BIDIRECTIONAL_MODE)
 895:Generated_Source\PSoC4/GLCD_1_SPIM_UDB.c ****     /*******************************************************************************
 896:Generated_Source\PSoC4/GLCD_1_SPIM_UDB.c ****     * Function Name: GLCD_1_SPIM_UDB_TxEnable
 897:Generated_Source\PSoC4/GLCD_1_SPIM_UDB.c ****     ********************************************************************************
 898:Generated_Source\PSoC4/GLCD_1_SPIM_UDB.c ****     *
 899:Generated_Source\PSoC4/GLCD_1_SPIM_UDB.c ****     * Summary:
 900:Generated_Source\PSoC4/GLCD_1_SPIM_UDB.c ****     *  If the SPI master is configured to use a single bi-directional pin then this
 901:Generated_Source\PSoC4/GLCD_1_SPIM_UDB.c ****     *  will set the bi-directional pin to transmit.
 902:Generated_Source\PSoC4/GLCD_1_SPIM_UDB.c ****     *
 903:Generated_Source\PSoC4/GLCD_1_SPIM_UDB.c ****     * Parameters:
 904:Generated_Source\PSoC4/GLCD_1_SPIM_UDB.c ****     *  None.
 905:Generated_Source\PSoC4/GLCD_1_SPIM_UDB.c ****     *
 906:Generated_Source\PSoC4/GLCD_1_SPIM_UDB.c ****     * Return:
 907:Generated_Source\PSoC4/GLCD_1_SPIM_UDB.c ****     *  None.
 908:Generated_Source\PSoC4/GLCD_1_SPIM_UDB.c ****     *
 909:Generated_Source\PSoC4/GLCD_1_SPIM_UDB.c ****     *******************************************************************************/
 910:Generated_Source\PSoC4/GLCD_1_SPIM_UDB.c ****     void GLCD_1_SPIM_UDB_TxEnable(void) 
 911:Generated_Source\PSoC4/GLCD_1_SPIM_UDB.c ****     {
 912:Generated_Source\PSoC4/GLCD_1_SPIM_UDB.c ****         GLCD_1_SPIM_UDB_CONTROL_REG |= GLCD_1_SPIM_UDB_CTRL_TX_SIGNAL_EN;
 913:Generated_Source\PSoC4/GLCD_1_SPIM_UDB.c ****     }
 914:Generated_Source\PSoC4/GLCD_1_SPIM_UDB.c **** 
 915:Generated_Source\PSoC4/GLCD_1_SPIM_UDB.c **** 
 916:Generated_Source\PSoC4/GLCD_1_SPIM_UDB.c ****     /*******************************************************************************
 917:Generated_Source\PSoC4/GLCD_1_SPIM_UDB.c ****     * Function Name: GLCD_1_SPIM_UDB_TxDisable
 918:Generated_Source\PSoC4/GLCD_1_SPIM_UDB.c ****     ********************************************************************************
 919:Generated_Source\PSoC4/GLCD_1_SPIM_UDB.c ****     *
 920:Generated_Source\PSoC4/GLCD_1_SPIM_UDB.c ****     * Summary:
 921:Generated_Source\PSoC4/GLCD_1_SPIM_UDB.c ****     *  If the SPI master is configured to use a single bi-directional pin then this
 922:Generated_Source\PSoC4/GLCD_1_SPIM_UDB.c ****     *  will set the bi-directional pin to receive.
 923:Generated_Source\PSoC4/GLCD_1_SPIM_UDB.c ****     *
 924:Generated_Source\PSoC4/GLCD_1_SPIM_UDB.c ****     * Parameters:
 925:Generated_Source\PSoC4/GLCD_1_SPIM_UDB.c ****     *  None.
 926:Generated_Source\PSoC4/GLCD_1_SPIM_UDB.c ****     *
 927:Generated_Source\PSoC4/GLCD_1_SPIM_UDB.c ****     * Return:
ARM GAS  C:\Users\sur\AppData\Local\Temp\cc5BY4vB.s 			page 27


 928:Generated_Source\PSoC4/GLCD_1_SPIM_UDB.c ****     *  None.
 929:Generated_Source\PSoC4/GLCD_1_SPIM_UDB.c ****     *
 930:Generated_Source\PSoC4/GLCD_1_SPIM_UDB.c ****     *******************************************************************************/
 931:Generated_Source\PSoC4/GLCD_1_SPIM_UDB.c ****     void GLCD_1_SPIM_UDB_TxDisable(void) 
 932:Generated_Source\PSoC4/GLCD_1_SPIM_UDB.c ****     {
 933:Generated_Source\PSoC4/GLCD_1_SPIM_UDB.c ****         GLCD_1_SPIM_UDB_CONTROL_REG &= ((uint8) ~GLCD_1_SPIM_UDB_CTRL_TX_SIGNAL_EN);
 934:Generated_Source\PSoC4/GLCD_1_SPIM_UDB.c ****     }
 935:Generated_Source\PSoC4/GLCD_1_SPIM_UDB.c **** 
 936:Generated_Source\PSoC4/GLCD_1_SPIM_UDB.c **** #endif /* (0u != GLCD_1_SPIM_UDB_BIDIRECTIONAL_MODE) */
 937:Generated_Source\PSoC4/GLCD_1_SPIM_UDB.c **** 
 938:Generated_Source\PSoC4/GLCD_1_SPIM_UDB.c **** 
 939:Generated_Source\PSoC4/GLCD_1_SPIM_UDB.c **** /*******************************************************************************
 940:Generated_Source\PSoC4/GLCD_1_SPIM_UDB.c **** * Function Name: GLCD_1_SPIM_UDB_PutArray
 941:Generated_Source\PSoC4/GLCD_1_SPIM_UDB.c **** ********************************************************************************
 942:Generated_Source\PSoC4/GLCD_1_SPIM_UDB.c **** *
 943:Generated_Source\PSoC4/GLCD_1_SPIM_UDB.c **** * Summary:
 944:Generated_Source\PSoC4/GLCD_1_SPIM_UDB.c **** *  Write available data from ROM/RAM to the TX buffer while space is available
 945:Generated_Source\PSoC4/GLCD_1_SPIM_UDB.c **** *  in the TX buffer. Keep trying until all data is passed to the TX buffer.
 946:Generated_Source\PSoC4/GLCD_1_SPIM_UDB.c **** *
 947:Generated_Source\PSoC4/GLCD_1_SPIM_UDB.c **** * Parameters:
 948:Generated_Source\PSoC4/GLCD_1_SPIM_UDB.c **** *  *buffer: Pointer to the location in RAM containing the data to send
 949:Generated_Source\PSoC4/GLCD_1_SPIM_UDB.c **** *  byteCount: The number of bytes to move to the transmit buffer.
 950:Generated_Source\PSoC4/GLCD_1_SPIM_UDB.c **** *
 951:Generated_Source\PSoC4/GLCD_1_SPIM_UDB.c **** * Return:
 952:Generated_Source\PSoC4/GLCD_1_SPIM_UDB.c **** *  None.
 953:Generated_Source\PSoC4/GLCD_1_SPIM_UDB.c **** *
 954:Generated_Source\PSoC4/GLCD_1_SPIM_UDB.c **** * Side Effects:
 955:Generated_Source\PSoC4/GLCD_1_SPIM_UDB.c **** *  Will stay in this routine until all data has been sent.  May get locked in
 956:Generated_Source\PSoC4/GLCD_1_SPIM_UDB.c **** *  this loop if data is not being initiated by the master if there is not
 957:Generated_Source\PSoC4/GLCD_1_SPIM_UDB.c **** *  enough room in the TX FIFO.
 958:Generated_Source\PSoC4/GLCD_1_SPIM_UDB.c **** *
 959:Generated_Source\PSoC4/GLCD_1_SPIM_UDB.c **** * Reentrant:
 960:Generated_Source\PSoC4/GLCD_1_SPIM_UDB.c **** *  No.
 961:Generated_Source\PSoC4/GLCD_1_SPIM_UDB.c **** *
 962:Generated_Source\PSoC4/GLCD_1_SPIM_UDB.c **** *******************************************************************************/
 963:Generated_Source\PSoC4/GLCD_1_SPIM_UDB.c **** void GLCD_1_SPIM_UDB_PutArray(const uint16 buffer[], uint8 byteCount)
 964:Generated_Source\PSoC4/GLCD_1_SPIM_UDB.c ****                                                                           
 965:Generated_Source\PSoC4/GLCD_1_SPIM_UDB.c **** {
 554              		.loc 1 965 0
 555              		.cfi_startproc
 556              		@ args = 0, pretend = 0, frame = 0
 557              		@ frame_needed = 0, uses_anonymous_args = 0
 558              	.LVL20:
 559 0000 70B5     		push	{r4, r5, r6, lr}
 560              		.cfi_def_cfa_offset 16
 561              		.cfi_offset 4, -16
 562              		.cfi_offset 5, -12
 563              		.cfi_offset 6, -8
 564              		.cfi_offset 14, -4
 565 0002 0600     		movs	r6, r0
 566 0004 0C00     		movs	r4, r1
 567              	.LVL21:
 966:Generated_Source\PSoC4/GLCD_1_SPIM_UDB.c ****     uint8 bufIndex;
 967:Generated_Source\PSoC4/GLCD_1_SPIM_UDB.c **** 
 968:Generated_Source\PSoC4/GLCD_1_SPIM_UDB.c ****     bufIndex = 0u;
 568              		.loc 1 968 0
 569 0006 0025     		movs	r5, #0
ARM GAS  C:\Users\sur\AppData\Local\Temp\cc5BY4vB.s 			page 28


 969:Generated_Source\PSoC4/GLCD_1_SPIM_UDB.c **** 
 970:Generated_Source\PSoC4/GLCD_1_SPIM_UDB.c ****     while(byteCount > 0u)
 570              		.loc 1 970 0
 571 0008 07E0     		b	.L50
 572              	.LVL22:
 573              	.L51:
 971:Generated_Source\PSoC4/GLCD_1_SPIM_UDB.c ****     {
 972:Generated_Source\PSoC4/GLCD_1_SPIM_UDB.c ****         GLCD_1_SPIM_UDB_WriteTxData(buffer[bufIndex]);
 574              		.loc 1 972 0
 575 000a 6B00     		lsls	r3, r5, #1
 576 000c F05A     		ldrh	r0, [r6, r3]
 577 000e FFF7FEFF 		bl	GLCD_1_SPIM_UDB_WriteTxData
 578              	.LVL23:
 973:Generated_Source\PSoC4/GLCD_1_SPIM_UDB.c ****         bufIndex++;
 579              		.loc 1 973 0
 580 0012 0135     		adds	r5, r5, #1
 581              	.LVL24:
 582 0014 EDB2     		uxtb	r5, r5
 583              	.LVL25:
 974:Generated_Source\PSoC4/GLCD_1_SPIM_UDB.c ****         byteCount--;
 584              		.loc 1 974 0
 585 0016 013C     		subs	r4, r4, #1
 586              	.LVL26:
 587 0018 E4B2     		uxtb	r4, r4
 588              	.LVL27:
 589              	.L50:
 970:Generated_Source\PSoC4/GLCD_1_SPIM_UDB.c ****     {
 590              		.loc 1 970 0
 591 001a 002C     		cmp	r4, #0
 592 001c F5D1     		bne	.L51
 975:Generated_Source\PSoC4/GLCD_1_SPIM_UDB.c ****     }
 976:Generated_Source\PSoC4/GLCD_1_SPIM_UDB.c **** }
 593              		.loc 1 976 0
 594              		@ sp needed
 595              	.LVL28:
 596              	.LVL29:
 597              	.LVL30:
 598 001e 70BD     		pop	{r4, r5, r6, pc}
 599              		.cfi_endproc
 600              	.LFE18:
 601              		.size	GLCD_1_SPIM_UDB_PutArray, .-GLCD_1_SPIM_UDB_PutArray
 602              		.section	.text.GLCD_1_SPIM_UDB_ClearFIFO,"ax",%progbits
 603              		.align	2
 604              		.global	GLCD_1_SPIM_UDB_ClearFIFO
 605              		.code	16
 606              		.thumb_func
 607              		.type	GLCD_1_SPIM_UDB_ClearFIFO, %function
 608              	GLCD_1_SPIM_UDB_ClearFIFO:
 609              	.LFB19:
 977:Generated_Source\PSoC4/GLCD_1_SPIM_UDB.c **** 
 978:Generated_Source\PSoC4/GLCD_1_SPIM_UDB.c **** 
 979:Generated_Source\PSoC4/GLCD_1_SPIM_UDB.c **** /*******************************************************************************
 980:Generated_Source\PSoC4/GLCD_1_SPIM_UDB.c **** * Function Name: GLCD_1_SPIM_UDB_ClearFIFO
 981:Generated_Source\PSoC4/GLCD_1_SPIM_UDB.c **** ********************************************************************************
 982:Generated_Source\PSoC4/GLCD_1_SPIM_UDB.c **** *
 983:Generated_Source\PSoC4/GLCD_1_SPIM_UDB.c **** * Summary:
 984:Generated_Source\PSoC4/GLCD_1_SPIM_UDB.c **** *  Clear the RX and TX FIFO's of all data for a fresh start.
ARM GAS  C:\Users\sur\AppData\Local\Temp\cc5BY4vB.s 			page 29


 985:Generated_Source\PSoC4/GLCD_1_SPIM_UDB.c **** *
 986:Generated_Source\PSoC4/GLCD_1_SPIM_UDB.c **** * Parameters:
 987:Generated_Source\PSoC4/GLCD_1_SPIM_UDB.c **** *  None.
 988:Generated_Source\PSoC4/GLCD_1_SPIM_UDB.c **** *
 989:Generated_Source\PSoC4/GLCD_1_SPIM_UDB.c **** * Return:
 990:Generated_Source\PSoC4/GLCD_1_SPIM_UDB.c **** *  None.
 991:Generated_Source\PSoC4/GLCD_1_SPIM_UDB.c **** *
 992:Generated_Source\PSoC4/GLCD_1_SPIM_UDB.c **** * Side Effects:
 993:Generated_Source\PSoC4/GLCD_1_SPIM_UDB.c **** *  Clear status register of the component.
 994:Generated_Source\PSoC4/GLCD_1_SPIM_UDB.c **** *
 995:Generated_Source\PSoC4/GLCD_1_SPIM_UDB.c **** *******************************************************************************/
 996:Generated_Source\PSoC4/GLCD_1_SPIM_UDB.c **** void GLCD_1_SPIM_UDB_ClearFIFO(void) 
 997:Generated_Source\PSoC4/GLCD_1_SPIM_UDB.c **** {
 610              		.loc 1 997 0
 611              		.cfi_startproc
 612              		@ args = 0, pretend = 0, frame = 0
 613              		@ frame_needed = 0, uses_anonymous_args = 0
 614 0000 10B5     		push	{r4, lr}
 615              		.cfi_def_cfa_offset 8
 616              		.cfi_offset 4, -8
 617              		.cfi_offset 14, -4
 998:Generated_Source\PSoC4/GLCD_1_SPIM_UDB.c ****     uint8 enableInterrupts;
 999:Generated_Source\PSoC4/GLCD_1_SPIM_UDB.c **** 
1000:Generated_Source\PSoC4/GLCD_1_SPIM_UDB.c ****     /* Clear Hardware RX FIFO */
1001:Generated_Source\PSoC4/GLCD_1_SPIM_UDB.c ****     while(0u !=(GLCD_1_SPIM_UDB_RX_STATUS_REG & GLCD_1_SPIM_UDB_STS_RX_FIFO_NOT_EMPTY))
 618              		.loc 1 1001 0
 619 0002 01E0     		b	.L53
 620              	.L54:
1002:Generated_Source\PSoC4/GLCD_1_SPIM_UDB.c ****     {
1003:Generated_Source\PSoC4/GLCD_1_SPIM_UDB.c ****         (void) CY_GET_REG16(GLCD_1_SPIM_UDB_RXDATA_PTR);
 621              		.loc 1 1003 0
 622 0004 0E4B     		ldr	r3, .L55
 623 0006 1B88     		ldrh	r3, [r3]
 624              	.L53:
1001:Generated_Source\PSoC4/GLCD_1_SPIM_UDB.c ****     {
 625              		.loc 1 1001 0
 626 0008 0E4B     		ldr	r3, .L55+4
 627 000a 1B78     		ldrb	r3, [r3]
 628 000c 9B06     		lsls	r3, r3, #26
 629 000e F9D4     		bmi	.L54
1004:Generated_Source\PSoC4/GLCD_1_SPIM_UDB.c ****     }
1005:Generated_Source\PSoC4/GLCD_1_SPIM_UDB.c **** 
1006:Generated_Source\PSoC4/GLCD_1_SPIM_UDB.c ****     enableInterrupts = CyEnterCriticalSection();
 630              		.loc 1 1006 0
 631 0010 FFF7FEFF 		bl	CyEnterCriticalSection
 632              	.LVL31:
1007:Generated_Source\PSoC4/GLCD_1_SPIM_UDB.c ****     /* Clear TX FIFO */
1008:Generated_Source\PSoC4/GLCD_1_SPIM_UDB.c ****     GLCD_1_SPIM_UDB_AUX_CONTROL_DP0_REG |= ((uint8)  GLCD_1_SPIM_UDB_TX_FIFO_CLR);
 633              		.loc 1 1008 0
 634 0014 0C49     		ldr	r1, .L55+8
 635 0016 0A78     		ldrb	r2, [r1]
 636 0018 0124     		movs	r4, #1
 637 001a 0123     		movs	r3, #1
 638 001c 1A43     		orrs	r2, r3
 639 001e D2B2     		uxtb	r2, r2
 640 0020 0A70     		strb	r2, [r1]
1009:Generated_Source\PSoC4/GLCD_1_SPIM_UDB.c ****     GLCD_1_SPIM_UDB_AUX_CONTROL_DP0_REG &= ((uint8) ~GLCD_1_SPIM_UDB_TX_FIFO_CLR);
ARM GAS  C:\Users\sur\AppData\Local\Temp\cc5BY4vB.s 			page 30


 641              		.loc 1 1009 0
 642 0022 0A78     		ldrb	r2, [r1]
 643 0024 A243     		bics	r2, r4
 644 0026 0A70     		strb	r2, [r1]
1010:Generated_Source\PSoC4/GLCD_1_SPIM_UDB.c **** 
1011:Generated_Source\PSoC4/GLCD_1_SPIM_UDB.c ****     #if(GLCD_1_SPIM_UDB_USE_SECOND_DATAPATH)
1012:Generated_Source\PSoC4/GLCD_1_SPIM_UDB.c ****         /* Clear TX FIFO for 2nd Datapath */
1013:Generated_Source\PSoC4/GLCD_1_SPIM_UDB.c ****         GLCD_1_SPIM_UDB_AUX_CONTROL_DP1_REG |= ((uint8)  GLCD_1_SPIM_UDB_TX_FIFO_CLR);
 645              		.loc 1 1013 0
 646 0028 084A     		ldr	r2, .L55+12
 647 002a 1178     		ldrb	r1, [r2]
 648 002c 0B43     		orrs	r3, r1
 649 002e DBB2     		uxtb	r3, r3
 650 0030 1370     		strb	r3, [r2]
1014:Generated_Source\PSoC4/GLCD_1_SPIM_UDB.c ****         GLCD_1_SPIM_UDB_AUX_CONTROL_DP1_REG &= ((uint8) ~GLCD_1_SPIM_UDB_TX_FIFO_CLR);
 651              		.loc 1 1014 0
 652 0032 1378     		ldrb	r3, [r2]
 653 0034 A343     		bics	r3, r4
 654 0036 1370     		strb	r3, [r2]
1015:Generated_Source\PSoC4/GLCD_1_SPIM_UDB.c ****     #endif /* (GLCD_1_SPIM_UDB_USE_SECOND_DATAPATH) */
1016:Generated_Source\PSoC4/GLCD_1_SPIM_UDB.c ****     CyExitCriticalSection(enableInterrupts);
 655              		.loc 1 1016 0
 656 0038 FFF7FEFF 		bl	CyExitCriticalSection
 657              	.LVL32:
1017:Generated_Source\PSoC4/GLCD_1_SPIM_UDB.c **** }
 658              		.loc 1 1017 0
 659              		@ sp needed
 660 003c 10BD     		pop	{r4, pc}
 661              	.L56:
 662 003e C046     		.align	2
 663              	.L55:
 664 0040 A4100F40 		.word	1074729124
 665 0044 60000F40 		.word	1074724960
 666 0048 92000F40 		.word	1074725010
 667 004c 93000F40 		.word	1074725011
 668              		.cfi_endproc
 669              	.LFE19:
 670              		.size	GLCD_1_SPIM_UDB_ClearFIFO, .-GLCD_1_SPIM_UDB_ClearFIFO
 671              		.section	.text.GLCD_1_SPIM_UDB_Init,"ax",%progbits
 672              		.align	2
 673              		.global	GLCD_1_SPIM_UDB_Init
 674              		.code	16
 675              		.thumb_func
 676              		.type	GLCD_1_SPIM_UDB_Init, %function
 677              	GLCD_1_SPIM_UDB_Init:
 678              	.LFB0:
  64:Generated_Source\PSoC4/GLCD_1_SPIM_UDB.c ****     /* Initialize the Bit counter */
 679              		.loc 1 64 0
 680              		.cfi_startproc
 681              		@ args = 0, pretend = 0, frame = 0
 682              		@ frame_needed = 0, uses_anonymous_args = 0
 683 0000 10B5     		push	{r4, lr}
 684              		.cfi_def_cfa_offset 8
 685              		.cfi_offset 4, -8
 686              		.cfi_offset 14, -4
  66:Generated_Source\PSoC4/GLCD_1_SPIM_UDB.c **** 
 687              		.loc 1 66 0
ARM GAS  C:\Users\sur\AppData\Local\Temp\cc5BY4vB.s 			page 31


 688 0002 1122     		movs	r2, #17
 689 0004 064B     		ldr	r3, .L58
 690 0006 1A70     		strb	r2, [r3]
  83:Generated_Source\PSoC4/GLCD_1_SPIM_UDB.c **** 
 691              		.loc 1 83 0
 692 0008 FFF7FEFF 		bl	GLCD_1_SPIM_UDB_ClearFIFO
 693              	.LVL33:
  97:Generated_Source\PSoC4/GLCD_1_SPIM_UDB.c ****     (void) GLCD_1_SPIM_UDB_ReadRxStatus(); /* Clear Rx status and swStatusRx */
 694              		.loc 1 97 0
 695 000c FFF7FEFF 		bl	GLCD_1_SPIM_UDB_ReadTxStatus
 696              	.LVL34:
  98:Generated_Source\PSoC4/GLCD_1_SPIM_UDB.c **** 
 697              		.loc 1 98 0
 698 0010 FFF7FEFF 		bl	GLCD_1_SPIM_UDB_ReadRxStatus
 699              	.LVL35:
 101:Generated_Source\PSoC4/GLCD_1_SPIM_UDB.c ****     GLCD_1_SPIM_UDB_RX_STATUS_MASK_REG = GLCD_1_SPIM_UDB_RX_INIT_INTERRUPTS_MASK;
 700              		.loc 1 101 0
 701 0014 0023     		movs	r3, #0
 702 0016 034A     		ldr	r2, .L58+4
 703 0018 1370     		strb	r3, [r2]
 102:Generated_Source\PSoC4/GLCD_1_SPIM_UDB.c **** }
 704              		.loc 1 102 0
 705 001a 034A     		ldr	r2, .L58+8
 706 001c 1370     		strb	r3, [r2]
 103:Generated_Source\PSoC4/GLCD_1_SPIM_UDB.c **** 
 707              		.loc 1 103 0
 708              		@ sp needed
 709 001e 10BD     		pop	{r4, pc}
 710              	.L59:
 711              		.align	2
 712              	.L58:
 713 0020 81000F40 		.word	1074724993
 714 0024 82000F40 		.word	1074724994
 715 0028 80000F40 		.word	1074724992
 716              		.cfi_endproc
 717              	.LFE0:
 718              		.size	GLCD_1_SPIM_UDB_Init, .-GLCD_1_SPIM_UDB_Init
 719              		.section	.text.GLCD_1_SPIM_UDB_Start,"ax",%progbits
 720              		.align	2
 721              		.global	GLCD_1_SPIM_UDB_Start
 722              		.code	16
 723              		.thumb_func
 724              		.type	GLCD_1_SPIM_UDB_Start, %function
 725              	GLCD_1_SPIM_UDB_Start:
 726              	.LFB2:
 164:Generated_Source\PSoC4/GLCD_1_SPIM_UDB.c ****     if(0u == GLCD_1_SPIM_UDB_initVar)
 727              		.loc 1 164 0
 728              		.cfi_startproc
 729              		@ args = 0, pretend = 0, frame = 0
 730              		@ frame_needed = 0, uses_anonymous_args = 0
 731 0000 10B5     		push	{r4, lr}
 732              		.cfi_def_cfa_offset 8
 733              		.cfi_offset 4, -8
 734              		.cfi_offset 14, -4
 165:Generated_Source\PSoC4/GLCD_1_SPIM_UDB.c ****     {
 735              		.loc 1 165 0
 736 0002 064B     		ldr	r3, .L62
ARM GAS  C:\Users\sur\AppData\Local\Temp\cc5BY4vB.s 			page 32


 737 0004 1B78     		ldrb	r3, [r3]
 738 0006 002B     		cmp	r3, #0
 739 0008 04D1     		bne	.L61
 167:Generated_Source\PSoC4/GLCD_1_SPIM_UDB.c ****         GLCD_1_SPIM_UDB_initVar = 1u;
 740              		.loc 1 167 0
 741 000a FFF7FEFF 		bl	GLCD_1_SPIM_UDB_Init
 742              	.LVL36:
 168:Generated_Source\PSoC4/GLCD_1_SPIM_UDB.c ****     }
 743              		.loc 1 168 0
 744 000e 0122     		movs	r2, #1
 745 0010 024B     		ldr	r3, .L62
 746 0012 1A70     		strb	r2, [r3]
 747              	.L61:
 171:Generated_Source\PSoC4/GLCD_1_SPIM_UDB.c **** }
 748              		.loc 1 171 0
 749 0014 FFF7FEFF 		bl	GLCD_1_SPIM_UDB_Enable
 750              	.LVL37:
 172:Generated_Source\PSoC4/GLCD_1_SPIM_UDB.c **** 
 751              		.loc 1 172 0
 752              		@ sp needed
 753 0018 10BD     		pop	{r4, pc}
 754              	.L63:
 755 001a C046     		.align	2
 756              	.L62:
 757 001c 00000000 		.word	.LANCHOR0
 758              		.cfi_endproc
 759              	.LFE2:
 760              		.size	GLCD_1_SPIM_UDB_Start, .-GLCD_1_SPIM_UDB_Start
 761              		.section	.text.GLCD_1_SPIM_UDB_EnableInt,"ax",%progbits
 762              		.align	2
 763              		.global	GLCD_1_SPIM_UDB_EnableInt
 764              		.code	16
 765              		.thumb_func
 766              		.type	GLCD_1_SPIM_UDB_EnableInt, %function
 767              	GLCD_1_SPIM_UDB_EnableInt:
 768              	.LFB20:
1018:Generated_Source\PSoC4/GLCD_1_SPIM_UDB.c **** 
1019:Generated_Source\PSoC4/GLCD_1_SPIM_UDB.c **** 
1020:Generated_Source\PSoC4/GLCD_1_SPIM_UDB.c **** /* Following functions are for version Compatibility, they are obsolete.
1021:Generated_Source\PSoC4/GLCD_1_SPIM_UDB.c **** *  Please do not use it in new projects.
1022:Generated_Source\PSoC4/GLCD_1_SPIM_UDB.c **** */
1023:Generated_Source\PSoC4/GLCD_1_SPIM_UDB.c **** 
1024:Generated_Source\PSoC4/GLCD_1_SPIM_UDB.c **** 
1025:Generated_Source\PSoC4/GLCD_1_SPIM_UDB.c **** /*******************************************************************************
1026:Generated_Source\PSoC4/GLCD_1_SPIM_UDB.c **** * Function Name: GLCD_1_SPIM_UDB_EnableInt
1027:Generated_Source\PSoC4/GLCD_1_SPIM_UDB.c **** ********************************************************************************
1028:Generated_Source\PSoC4/GLCD_1_SPIM_UDB.c **** *
1029:Generated_Source\PSoC4/GLCD_1_SPIM_UDB.c **** * Summary:
1030:Generated_Source\PSoC4/GLCD_1_SPIM_UDB.c **** *  Enable internal interrupt generation.
1031:Generated_Source\PSoC4/GLCD_1_SPIM_UDB.c **** *
1032:Generated_Source\PSoC4/GLCD_1_SPIM_UDB.c **** * Parameters:
1033:Generated_Source\PSoC4/GLCD_1_SPIM_UDB.c **** *  None.
1034:Generated_Source\PSoC4/GLCD_1_SPIM_UDB.c **** *
1035:Generated_Source\PSoC4/GLCD_1_SPIM_UDB.c **** * Return:
1036:Generated_Source\PSoC4/GLCD_1_SPIM_UDB.c **** *  None.
1037:Generated_Source\PSoC4/GLCD_1_SPIM_UDB.c **** *
1038:Generated_Source\PSoC4/GLCD_1_SPIM_UDB.c **** * Theory:
ARM GAS  C:\Users\sur\AppData\Local\Temp\cc5BY4vB.s 			page 33


1039:Generated_Source\PSoC4/GLCD_1_SPIM_UDB.c **** *  Enable the internal interrupt output -or- the interrupt component itself.
1040:Generated_Source\PSoC4/GLCD_1_SPIM_UDB.c **** *
1041:Generated_Source\PSoC4/GLCD_1_SPIM_UDB.c **** *******************************************************************************/
1042:Generated_Source\PSoC4/GLCD_1_SPIM_UDB.c **** void GLCD_1_SPIM_UDB_EnableInt(void) 
1043:Generated_Source\PSoC4/GLCD_1_SPIM_UDB.c **** {
 769              		.loc 1 1043 0
 770              		.cfi_startproc
 771              		@ args = 0, pretend = 0, frame = 0
 772              		@ frame_needed = 0, uses_anonymous_args = 0
 773              		@ link register save eliminated.
1044:Generated_Source\PSoC4/GLCD_1_SPIM_UDB.c ****     GLCD_1_SPIM_UDB_EnableRxInt();
1045:Generated_Source\PSoC4/GLCD_1_SPIM_UDB.c ****     GLCD_1_SPIM_UDB_EnableTxInt();
1046:Generated_Source\PSoC4/GLCD_1_SPIM_UDB.c **** }
 774              		.loc 1 1046 0
 775              		@ sp needed
 776 0000 7047     		bx	lr
 777              		.cfi_endproc
 778              	.LFE20:
 779              		.size	GLCD_1_SPIM_UDB_EnableInt, .-GLCD_1_SPIM_UDB_EnableInt
 780 0002 C046     		.section	.text.GLCD_1_SPIM_UDB_DisableInt,"ax",%progbits
 781              		.align	2
 782              		.global	GLCD_1_SPIM_UDB_DisableInt
 783              		.code	16
 784              		.thumb_func
 785              		.type	GLCD_1_SPIM_UDB_DisableInt, %function
 786              	GLCD_1_SPIM_UDB_DisableInt:
 787              	.LFB21:
1047:Generated_Source\PSoC4/GLCD_1_SPIM_UDB.c **** 
1048:Generated_Source\PSoC4/GLCD_1_SPIM_UDB.c **** 
1049:Generated_Source\PSoC4/GLCD_1_SPIM_UDB.c **** /*******************************************************************************
1050:Generated_Source\PSoC4/GLCD_1_SPIM_UDB.c **** * Function Name: GLCD_1_SPIM_UDB_DisableInt
1051:Generated_Source\PSoC4/GLCD_1_SPIM_UDB.c **** ********************************************************************************
1052:Generated_Source\PSoC4/GLCD_1_SPIM_UDB.c **** *
1053:Generated_Source\PSoC4/GLCD_1_SPIM_UDB.c **** * Summary:
1054:Generated_Source\PSoC4/GLCD_1_SPIM_UDB.c **** *  Disable internal interrupt generation.
1055:Generated_Source\PSoC4/GLCD_1_SPIM_UDB.c **** *
1056:Generated_Source\PSoC4/GLCD_1_SPIM_UDB.c **** * Parameters:
1057:Generated_Source\PSoC4/GLCD_1_SPIM_UDB.c **** *  None.
1058:Generated_Source\PSoC4/GLCD_1_SPIM_UDB.c **** *
1059:Generated_Source\PSoC4/GLCD_1_SPIM_UDB.c **** * Return:
1060:Generated_Source\PSoC4/GLCD_1_SPIM_UDB.c **** *  None.
1061:Generated_Source\PSoC4/GLCD_1_SPIM_UDB.c **** *
1062:Generated_Source\PSoC4/GLCD_1_SPIM_UDB.c **** * Theory:
1063:Generated_Source\PSoC4/GLCD_1_SPIM_UDB.c **** *  Disable the internal interrupt output -or- the interrupt component itself.
1064:Generated_Source\PSoC4/GLCD_1_SPIM_UDB.c **** *
1065:Generated_Source\PSoC4/GLCD_1_SPIM_UDB.c **** *******************************************************************************/
1066:Generated_Source\PSoC4/GLCD_1_SPIM_UDB.c **** void GLCD_1_SPIM_UDB_DisableInt(void) 
1067:Generated_Source\PSoC4/GLCD_1_SPIM_UDB.c **** {
 788              		.loc 1 1067 0
 789              		.cfi_startproc
 790              		@ args = 0, pretend = 0, frame = 0
 791              		@ frame_needed = 0, uses_anonymous_args = 0
 792              		@ link register save eliminated.
1068:Generated_Source\PSoC4/GLCD_1_SPIM_UDB.c ****     GLCD_1_SPIM_UDB_DisableTxInt();
1069:Generated_Source\PSoC4/GLCD_1_SPIM_UDB.c ****     GLCD_1_SPIM_UDB_DisableRxInt();
1070:Generated_Source\PSoC4/GLCD_1_SPIM_UDB.c **** }
 793              		.loc 1 1070 0
ARM GAS  C:\Users\sur\AppData\Local\Temp\cc5BY4vB.s 			page 34


 794              		@ sp needed
 795 0000 7047     		bx	lr
 796              		.cfi_endproc
 797              	.LFE21:
 798              		.size	GLCD_1_SPIM_UDB_DisableInt, .-GLCD_1_SPIM_UDB_DisableInt
 799 0002 C046     		.section	.text.GLCD_1_SPIM_UDB_SetInterruptMode,"ax",%progbits
 800              		.align	2
 801              		.global	GLCD_1_SPIM_UDB_SetInterruptMode
 802              		.code	16
 803              		.thumb_func
 804              		.type	GLCD_1_SPIM_UDB_SetInterruptMode, %function
 805              	GLCD_1_SPIM_UDB_SetInterruptMode:
 806              	.LFB22:
1071:Generated_Source\PSoC4/GLCD_1_SPIM_UDB.c **** 
1072:Generated_Source\PSoC4/GLCD_1_SPIM_UDB.c **** 
1073:Generated_Source\PSoC4/GLCD_1_SPIM_UDB.c **** /*******************************************************************************
1074:Generated_Source\PSoC4/GLCD_1_SPIM_UDB.c **** * Function Name: GLCD_1_SPIM_UDB_SetInterruptMode
1075:Generated_Source\PSoC4/GLCD_1_SPIM_UDB.c **** ********************************************************************************
1076:Generated_Source\PSoC4/GLCD_1_SPIM_UDB.c **** *
1077:Generated_Source\PSoC4/GLCD_1_SPIM_UDB.c **** * Summary:
1078:Generated_Source\PSoC4/GLCD_1_SPIM_UDB.c **** *  Configure which status bits trigger an interrupt event.
1079:Generated_Source\PSoC4/GLCD_1_SPIM_UDB.c **** *
1080:Generated_Source\PSoC4/GLCD_1_SPIM_UDB.c **** * Parameters:
1081:Generated_Source\PSoC4/GLCD_1_SPIM_UDB.c **** *  intSrc: An or'd combination of the desired status bit masks (defined in the
1082:Generated_Source\PSoC4/GLCD_1_SPIM_UDB.c **** *  header file).
1083:Generated_Source\PSoC4/GLCD_1_SPIM_UDB.c **** *
1084:Generated_Source\PSoC4/GLCD_1_SPIM_UDB.c **** * Return:
1085:Generated_Source\PSoC4/GLCD_1_SPIM_UDB.c **** *  None.
1086:Generated_Source\PSoC4/GLCD_1_SPIM_UDB.c **** *
1087:Generated_Source\PSoC4/GLCD_1_SPIM_UDB.c **** * Theory:
1088:Generated_Source\PSoC4/GLCD_1_SPIM_UDB.c **** *  Enables the output of specific status bits to the interrupt controller.
1089:Generated_Source\PSoC4/GLCD_1_SPIM_UDB.c **** *
1090:Generated_Source\PSoC4/GLCD_1_SPIM_UDB.c **** *******************************************************************************/
1091:Generated_Source\PSoC4/GLCD_1_SPIM_UDB.c **** void GLCD_1_SPIM_UDB_SetInterruptMode(uint8 intSrc) 
1092:Generated_Source\PSoC4/GLCD_1_SPIM_UDB.c **** {
 807              		.loc 1 1092 0
 808              		.cfi_startproc
 809              		@ args = 0, pretend = 0, frame = 0
 810              		@ frame_needed = 0, uses_anonymous_args = 0
 811              		@ link register save eliminated.
 812              	.LVL38:
1093:Generated_Source\PSoC4/GLCD_1_SPIM_UDB.c ****     GLCD_1_SPIM_UDB_TX_STATUS_MASK_REG  = (intSrc & ((uint8) ~GLCD_1_SPIM_UDB_STS_SPI_IDLE));
 813              		.loc 1 1093 0
 814 0000 1023     		movs	r3, #16
 815 0002 0200     		movs	r2, r0
 816 0004 9A43     		bics	r2, r3
 817 0006 024B     		ldr	r3, .L67
 818 0008 1A70     		strb	r2, [r3]
1094:Generated_Source\PSoC4/GLCD_1_SPIM_UDB.c ****     GLCD_1_SPIM_UDB_RX_STATUS_MASK_REG  =  intSrc;
 819              		.loc 1 1094 0
 820 000a 024B     		ldr	r3, .L67+4
 821 000c 1870     		strb	r0, [r3]
1095:Generated_Source\PSoC4/GLCD_1_SPIM_UDB.c **** }
 822              		.loc 1 1095 0
 823              		@ sp needed
 824 000e 7047     		bx	lr
 825              	.L68:
ARM GAS  C:\Users\sur\AppData\Local\Temp\cc5BY4vB.s 			page 35


 826              		.align	2
 827              	.L67:
 828 0010 82000F40 		.word	1074724994
 829 0014 80000F40 		.word	1074724992
 830              		.cfi_endproc
 831              	.LFE22:
 832              		.size	GLCD_1_SPIM_UDB_SetInterruptMode, .-GLCD_1_SPIM_UDB_SetInterruptMode
 833              		.section	.text.GLCD_1_SPIM_UDB_ReadStatus,"ax",%progbits
 834              		.align	2
 835              		.global	GLCD_1_SPIM_UDB_ReadStatus
 836              		.code	16
 837              		.thumb_func
 838              		.type	GLCD_1_SPIM_UDB_ReadStatus, %function
 839              	GLCD_1_SPIM_UDB_ReadStatus:
 840              	.LFB23:
1096:Generated_Source\PSoC4/GLCD_1_SPIM_UDB.c **** 
1097:Generated_Source\PSoC4/GLCD_1_SPIM_UDB.c **** 
1098:Generated_Source\PSoC4/GLCD_1_SPIM_UDB.c **** /*******************************************************************************
1099:Generated_Source\PSoC4/GLCD_1_SPIM_UDB.c **** * Function Name: GLCD_1_SPIM_UDB_ReadStatus
1100:Generated_Source\PSoC4/GLCD_1_SPIM_UDB.c **** ********************************************************************************
1101:Generated_Source\PSoC4/GLCD_1_SPIM_UDB.c **** *
1102:Generated_Source\PSoC4/GLCD_1_SPIM_UDB.c **** * Summary:
1103:Generated_Source\PSoC4/GLCD_1_SPIM_UDB.c **** *  Read the status register for the component.
1104:Generated_Source\PSoC4/GLCD_1_SPIM_UDB.c **** *
1105:Generated_Source\PSoC4/GLCD_1_SPIM_UDB.c **** * Parameters:
1106:Generated_Source\PSoC4/GLCD_1_SPIM_UDB.c **** *  None.
1107:Generated_Source\PSoC4/GLCD_1_SPIM_UDB.c **** *
1108:Generated_Source\PSoC4/GLCD_1_SPIM_UDB.c **** * Return:
1109:Generated_Source\PSoC4/GLCD_1_SPIM_UDB.c **** *  Contents of the status register.
1110:Generated_Source\PSoC4/GLCD_1_SPIM_UDB.c **** *
1111:Generated_Source\PSoC4/GLCD_1_SPIM_UDB.c **** * Global variables:
1112:Generated_Source\PSoC4/GLCD_1_SPIM_UDB.c **** *  GLCD_1_SPIM_UDB_swStatus - used to store in software status register,
1113:Generated_Source\PSoC4/GLCD_1_SPIM_UDB.c **** *  modified every function call - resets to zero.
1114:Generated_Source\PSoC4/GLCD_1_SPIM_UDB.c **** *
1115:Generated_Source\PSoC4/GLCD_1_SPIM_UDB.c **** * Theory:
1116:Generated_Source\PSoC4/GLCD_1_SPIM_UDB.c **** *  Allows the user and the API to read the status register for error detection
1117:Generated_Source\PSoC4/GLCD_1_SPIM_UDB.c **** *  and flow control.
1118:Generated_Source\PSoC4/GLCD_1_SPIM_UDB.c **** *
1119:Generated_Source\PSoC4/GLCD_1_SPIM_UDB.c **** * Side Effects:
1120:Generated_Source\PSoC4/GLCD_1_SPIM_UDB.c **** *  Clear status register of the component.
1121:Generated_Source\PSoC4/GLCD_1_SPIM_UDB.c **** *
1122:Generated_Source\PSoC4/GLCD_1_SPIM_UDB.c **** * Reentrant:
1123:Generated_Source\PSoC4/GLCD_1_SPIM_UDB.c **** *  No.
1124:Generated_Source\PSoC4/GLCD_1_SPIM_UDB.c **** *
1125:Generated_Source\PSoC4/GLCD_1_SPIM_UDB.c **** *******************************************************************************/
1126:Generated_Source\PSoC4/GLCD_1_SPIM_UDB.c **** uint8 GLCD_1_SPIM_UDB_ReadStatus(void) 
1127:Generated_Source\PSoC4/GLCD_1_SPIM_UDB.c **** {
 841              		.loc 1 1127 0
 842              		.cfi_startproc
 843              		@ args = 0, pretend = 0, frame = 0
 844              		@ frame_needed = 0, uses_anonymous_args = 0
 845              		@ link register save eliminated.
1128:Generated_Source\PSoC4/GLCD_1_SPIM_UDB.c ****     uint8 tmpStatus;
1129:Generated_Source\PSoC4/GLCD_1_SPIM_UDB.c **** 
1130:Generated_Source\PSoC4/GLCD_1_SPIM_UDB.c ****     #if(GLCD_1_SPIM_UDB_TX_SOFTWARE_BUF_ENABLED || GLCD_1_SPIM_UDB_RX_SOFTWARE_BUF_ENABLED)
1131:Generated_Source\PSoC4/GLCD_1_SPIM_UDB.c **** 
1132:Generated_Source\PSoC4/GLCD_1_SPIM_UDB.c ****         GLCD_1_SPIM_UDB_DisableInt();
ARM GAS  C:\Users\sur\AppData\Local\Temp\cc5BY4vB.s 			page 36


1133:Generated_Source\PSoC4/GLCD_1_SPIM_UDB.c **** 
1134:Generated_Source\PSoC4/GLCD_1_SPIM_UDB.c ****         tmpStatus  = GLCD_1_SPIM_UDB_GET_STATUS_RX(GLCD_1_SPIM_UDB_swStatusRx);
1135:Generated_Source\PSoC4/GLCD_1_SPIM_UDB.c ****         tmpStatus |= GLCD_1_SPIM_UDB_GET_STATUS_TX(GLCD_1_SPIM_UDB_swStatusTx);
1136:Generated_Source\PSoC4/GLCD_1_SPIM_UDB.c ****         tmpStatus &= ((uint8) ~GLCD_1_SPIM_UDB_STS_SPI_IDLE);
1137:Generated_Source\PSoC4/GLCD_1_SPIM_UDB.c **** 
1138:Generated_Source\PSoC4/GLCD_1_SPIM_UDB.c ****         GLCD_1_SPIM_UDB_swStatusTx = 0u;
1139:Generated_Source\PSoC4/GLCD_1_SPIM_UDB.c ****         GLCD_1_SPIM_UDB_swStatusRx = 0u;
1140:Generated_Source\PSoC4/GLCD_1_SPIM_UDB.c **** 
1141:Generated_Source\PSoC4/GLCD_1_SPIM_UDB.c ****         GLCD_1_SPIM_UDB_EnableInt();
1142:Generated_Source\PSoC4/GLCD_1_SPIM_UDB.c **** 
1143:Generated_Source\PSoC4/GLCD_1_SPIM_UDB.c ****     #else
1144:Generated_Source\PSoC4/GLCD_1_SPIM_UDB.c **** 
1145:Generated_Source\PSoC4/GLCD_1_SPIM_UDB.c ****         tmpStatus  = GLCD_1_SPIM_UDB_RX_STATUS_REG;
 846              		.loc 1 1145 0
 847 0000 034B     		ldr	r3, .L70
 848 0002 1B78     		ldrb	r3, [r3]
 849              	.LVL39:
1146:Generated_Source\PSoC4/GLCD_1_SPIM_UDB.c ****         tmpStatus |= GLCD_1_SPIM_UDB_TX_STATUS_REG;
 850              		.loc 1 1146 0
 851 0004 034A     		ldr	r2, .L70+4
 852 0006 1078     		ldrb	r0, [r2]
 853 0008 1843     		orrs	r0, r3
 854              	.LVL40:
1147:Generated_Source\PSoC4/GLCD_1_SPIM_UDB.c ****         tmpStatus &= ((uint8) ~GLCD_1_SPIM_UDB_STS_SPI_IDLE);
 855              		.loc 1 1147 0
 856 000a 1023     		movs	r3, #16
 857 000c 9843     		bics	r0, r3
 858              	.LVL41:
1148:Generated_Source\PSoC4/GLCD_1_SPIM_UDB.c **** 
1149:Generated_Source\PSoC4/GLCD_1_SPIM_UDB.c ****     #endif /* (GLCD_1_SPIM_UDB_TX_SOFTWARE_BUF_ENABLED || GLCD_1_SPIM_UDB_RX_SOFTWARE_BUF_ENABLED) 
1150:Generated_Source\PSoC4/GLCD_1_SPIM_UDB.c **** 
1151:Generated_Source\PSoC4/GLCD_1_SPIM_UDB.c ****     return(tmpStatus);
1152:Generated_Source\PSoC4/GLCD_1_SPIM_UDB.c **** }
 859              		.loc 1 1152 0
 860              		@ sp needed
 861 000e 7047     		bx	lr
 862              	.L71:
 863              		.align	2
 864              	.L70:
 865 0010 60000F40 		.word	1074724960
 866 0014 62000F40 		.word	1074724962
 867              		.cfi_endproc
 868              	.LFE23:
 869              		.size	GLCD_1_SPIM_UDB_ReadStatus, .-GLCD_1_SPIM_UDB_ReadStatus
 870              		.comm	GLCD_1_SPIM_UDB_swStatusRx,1,1
 871              		.comm	GLCD_1_SPIM_UDB_swStatusTx,1,1
 872              		.global	GLCD_1_SPIM_UDB_initVar
 873              		.bss
 874              		.set	.LANCHOR0,. + 0
 875              		.type	GLCD_1_SPIM_UDB_initVar, %object
 876              		.size	GLCD_1_SPIM_UDB_initVar, 1
 877              	GLCD_1_SPIM_UDB_initVar:
 878 0000 00       		.space	1
 879              		.text
 880              	.Letext0:
 881              		.file 2 "Generated_Source\\PSoC4\\cytypes.h"
 882              		.file 3 "Generated_Source\\PSoC4\\CyLib.h"
ARM GAS  C:\Users\sur\AppData\Local\Temp\cc5BY4vB.s 			page 37


 883              		.file 4 "Generated_Source\\PSoC4\\GLCD_1_SPIM_UDB_IntClock.h"