ARM GAS  C:\Users\sur\AppData\Local\Temp\ccOBP0Z6.s 			page 1


   1              		.syntax unified
   2              		.cpu cortex-m0
   3              		.fpu softvfp
   4              		.eabi_attribute 20, 1
   5              		.eabi_attribute 21, 1
   6              		.eabi_attribute 23, 3
   7              		.eabi_attribute 24, 1
   8              		.eabi_attribute 25, 1
   9              		.eabi_attribute 26, 1
  10              		.eabi_attribute 30, 1
  11              		.eabi_attribute 34, 0
  12              		.eabi_attribute 18, 4
  13              		.thumb
  14              		.syntax unified
  15              		.file	"GLCD_SCLK.c"
  16              		.text
  17              	.Ltext0:
  18              		.cfi_sections	.debug_frame
  19              		.section	.text.GLCD_SCLK_Write,"ax",%progbits
  20              		.align	2
  21              		.global	GLCD_SCLK_Write
  22              		.code	16
  23              		.thumb_func
  24              		.type	GLCD_SCLK_Write, %function
  25              	GLCD_SCLK_Write:
  26              	.LFB0:
  27              		.file 1 "Generated_Source\\PSoC4\\GLCD_SCLK.c"
   1:Generated_Source\PSoC4/GLCD_SCLK.c **** /*******************************************************************************
   2:Generated_Source\PSoC4/GLCD_SCLK.c **** * File Name: GLCD_SCLK.c  
   3:Generated_Source\PSoC4/GLCD_SCLK.c **** * Version 1.90
   4:Generated_Source\PSoC4/GLCD_SCLK.c **** *
   5:Generated_Source\PSoC4/GLCD_SCLK.c **** * Description:
   6:Generated_Source\PSoC4/GLCD_SCLK.c **** *  This file contains API to enable firmware control of a Pins component.
   7:Generated_Source\PSoC4/GLCD_SCLK.c **** *
   8:Generated_Source\PSoC4/GLCD_SCLK.c **** * Note:
   9:Generated_Source\PSoC4/GLCD_SCLK.c **** *
  10:Generated_Source\PSoC4/GLCD_SCLK.c **** ********************************************************************************
  11:Generated_Source\PSoC4/GLCD_SCLK.c **** * Copyright 2008-2012, Cypress Semiconductor Corporation.  All rights reserved.
  12:Generated_Source\PSoC4/GLCD_SCLK.c **** * You may use this file only in accordance with the license, terms, conditions, 
  13:Generated_Source\PSoC4/GLCD_SCLK.c **** * disclaimers, and limitations in the end user license agreement accompanying 
  14:Generated_Source\PSoC4/GLCD_SCLK.c **** * the software package with which this file was provided.
  15:Generated_Source\PSoC4/GLCD_SCLK.c **** *******************************************************************************/
  16:Generated_Source\PSoC4/GLCD_SCLK.c **** 
  17:Generated_Source\PSoC4/GLCD_SCLK.c **** #include "cytypes.h"
  18:Generated_Source\PSoC4/GLCD_SCLK.c **** #include "GLCD_SCLK.h"
  19:Generated_Source\PSoC4/GLCD_SCLK.c **** 
  20:Generated_Source\PSoC4/GLCD_SCLK.c **** #define SetP4PinDriveMode(shift, mode)  \
  21:Generated_Source\PSoC4/GLCD_SCLK.c ****     do { \
  22:Generated_Source\PSoC4/GLCD_SCLK.c ****         GLCD_SCLK_PC =   (GLCD_SCLK_PC & \
  23:Generated_Source\PSoC4/GLCD_SCLK.c ****                                 (uint32)(~(uint32)(GLCD_SCLK_DRIVE_MODE_IND_MASK << (GLCD_SCLK_DRIV
  24:Generated_Source\PSoC4/GLCD_SCLK.c ****                                 (uint32)((uint32)(mode) << (GLCD_SCLK_DRIVE_MODE_BITS * (shift))); 
  25:Generated_Source\PSoC4/GLCD_SCLK.c ****     } while (0)
  26:Generated_Source\PSoC4/GLCD_SCLK.c **** 
  27:Generated_Source\PSoC4/GLCD_SCLK.c **** 
  28:Generated_Source\PSoC4/GLCD_SCLK.c **** /*******************************************************************************
  29:Generated_Source\PSoC4/GLCD_SCLK.c **** * Function Name: GLCD_SCLK_Write
  30:Generated_Source\PSoC4/GLCD_SCLK.c **** ********************************************************************************
ARM GAS  C:\Users\sur\AppData\Local\Temp\ccOBP0Z6.s 			page 2


  31:Generated_Source\PSoC4/GLCD_SCLK.c **** *
  32:Generated_Source\PSoC4/GLCD_SCLK.c **** * Summary:
  33:Generated_Source\PSoC4/GLCD_SCLK.c **** *  Assign a new value to the digital port's data output register.  
  34:Generated_Source\PSoC4/GLCD_SCLK.c **** *
  35:Generated_Source\PSoC4/GLCD_SCLK.c **** * Parameters:  
  36:Generated_Source\PSoC4/GLCD_SCLK.c **** *  prtValue:  The value to be assigned to the Digital Port. 
  37:Generated_Source\PSoC4/GLCD_SCLK.c **** *
  38:Generated_Source\PSoC4/GLCD_SCLK.c **** * Return: 
  39:Generated_Source\PSoC4/GLCD_SCLK.c **** *  None 
  40:Generated_Source\PSoC4/GLCD_SCLK.c **** *  
  41:Generated_Source\PSoC4/GLCD_SCLK.c **** *******************************************************************************/
  42:Generated_Source\PSoC4/GLCD_SCLK.c **** void GLCD_SCLK_Write(uint8 value) 
  43:Generated_Source\PSoC4/GLCD_SCLK.c **** {
  28              		.loc 1 43 0
  29              		.cfi_startproc
  30              		@ args = 0, pretend = 0, frame = 0
  31              		@ frame_needed = 0, uses_anonymous_args = 0
  32              		@ link register save eliminated.
  33              	.LVL0:
  44:Generated_Source\PSoC4/GLCD_SCLK.c ****     uint8 drVal = (uint8)(GLCD_SCLK_DR & (uint8)(~GLCD_SCLK_MASK));
  34              		.loc 1 44 0
  35 0000 0449     		ldr	r1, .L2
  36 0002 0A68     		ldr	r2, [r1]
  37 0004 D2B2     		uxtb	r2, r2
  38 0006 4023     		movs	r3, #64
  39 0008 9A43     		bics	r2, r3
  40              	.LVL1:
  45:Generated_Source\PSoC4/GLCD_SCLK.c ****     drVal = (drVal | ((uint8)(value << GLCD_SCLK_SHIFT) & GLCD_SCLK_MASK));
  41              		.loc 1 45 0
  42 000a 8001     		lsls	r0, r0, #6
  43              	.LVL2:
  44 000c 1840     		ands	r0, r3
  45 000e 1043     		orrs	r0, r2
  46              	.LVL3:
  46:Generated_Source\PSoC4/GLCD_SCLK.c ****     GLCD_SCLK_DR = (uint32)drVal;
  47              		.loc 1 46 0
  48 0010 0860     		str	r0, [r1]
  47:Generated_Source\PSoC4/GLCD_SCLK.c **** }
  49              		.loc 1 47 0
  50              		@ sp needed
  51 0012 7047     		bx	lr
  52              	.L3:
  53              		.align	2
  54              	.L2:
  55 0014 00030440 		.word	1074004736
  56              		.cfi_endproc
  57              	.LFE0:
  58              		.size	GLCD_SCLK_Write, .-GLCD_SCLK_Write
  59              		.section	.text.GLCD_SCLK_SetDriveMode,"ax",%progbits
  60              		.align	2
  61              		.global	GLCD_SCLK_SetDriveMode
  62              		.code	16
  63              		.thumb_func
  64              		.type	GLCD_SCLK_SetDriveMode, %function
  65              	GLCD_SCLK_SetDriveMode:
  66              	.LFB1:
  48:Generated_Source\PSoC4/GLCD_SCLK.c **** 
ARM GAS  C:\Users\sur\AppData\Local\Temp\ccOBP0Z6.s 			page 3


  49:Generated_Source\PSoC4/GLCD_SCLK.c **** 
  50:Generated_Source\PSoC4/GLCD_SCLK.c **** /*******************************************************************************
  51:Generated_Source\PSoC4/GLCD_SCLK.c **** * Function Name: GLCD_SCLK_SetDriveMode
  52:Generated_Source\PSoC4/GLCD_SCLK.c **** ********************************************************************************
  53:Generated_Source\PSoC4/GLCD_SCLK.c **** *
  54:Generated_Source\PSoC4/GLCD_SCLK.c **** * Summary:
  55:Generated_Source\PSoC4/GLCD_SCLK.c **** *  Change the drive mode on the pins of the port.
  56:Generated_Source\PSoC4/GLCD_SCLK.c **** * 
  57:Generated_Source\PSoC4/GLCD_SCLK.c **** * Parameters:  
  58:Generated_Source\PSoC4/GLCD_SCLK.c **** *  mode:  Change the pins to this drive mode.
  59:Generated_Source\PSoC4/GLCD_SCLK.c **** *
  60:Generated_Source\PSoC4/GLCD_SCLK.c **** * Return: 
  61:Generated_Source\PSoC4/GLCD_SCLK.c **** *  None
  62:Generated_Source\PSoC4/GLCD_SCLK.c **** *
  63:Generated_Source\PSoC4/GLCD_SCLK.c **** *******************************************************************************/
  64:Generated_Source\PSoC4/GLCD_SCLK.c **** void GLCD_SCLK_SetDriveMode(uint8 mode) 
  65:Generated_Source\PSoC4/GLCD_SCLK.c **** {
  67              		.loc 1 65 0
  68              		.cfi_startproc
  69              		@ args = 0, pretend = 0, frame = 0
  70              		@ frame_needed = 0, uses_anonymous_args = 0
  71              		@ link register save eliminated.
  72              	.LVL4:
  66:Generated_Source\PSoC4/GLCD_SCLK.c **** 	SetP4PinDriveMode(GLCD_SCLK__0__SHIFT, mode);
  73              		.loc 1 66 0
  74 0000 034A     		ldr	r2, .L5
  75 0002 1168     		ldr	r1, [r2]
  76 0004 034B     		ldr	r3, .L5+4
  77 0006 0B40     		ands	r3, r1
  78 0008 8004     		lsls	r0, r0, #18
  79              	.LVL5:
  80 000a 1843     		orrs	r0, r3
  81 000c 1060     		str	r0, [r2]
  67:Generated_Source\PSoC4/GLCD_SCLK.c **** }
  82              		.loc 1 67 0
  83              		@ sp needed
  84 000e 7047     		bx	lr
  85              	.L6:
  86              		.align	2
  87              	.L5:
  88 0010 08030440 		.word	1074004744
  89 0014 FFFFE3FF 		.word	-1835009
  90              		.cfi_endproc
  91              	.LFE1:
  92              		.size	GLCD_SCLK_SetDriveMode, .-GLCD_SCLK_SetDriveMode
  93              		.section	.text.GLCD_SCLK_Read,"ax",%progbits
  94              		.align	2
  95              		.global	GLCD_SCLK_Read
  96              		.code	16
  97              		.thumb_func
  98              		.type	GLCD_SCLK_Read, %function
  99              	GLCD_SCLK_Read:
 100              	.LFB2:
  68:Generated_Source\PSoC4/GLCD_SCLK.c **** 
  69:Generated_Source\PSoC4/GLCD_SCLK.c **** 
  70:Generated_Source\PSoC4/GLCD_SCLK.c **** /*******************************************************************************
  71:Generated_Source\PSoC4/GLCD_SCLK.c **** * Function Name: GLCD_SCLK_Read
ARM GAS  C:\Users\sur\AppData\Local\Temp\ccOBP0Z6.s 			page 4


  72:Generated_Source\PSoC4/GLCD_SCLK.c **** ********************************************************************************
  73:Generated_Source\PSoC4/GLCD_SCLK.c **** *
  74:Generated_Source\PSoC4/GLCD_SCLK.c **** * Summary:
  75:Generated_Source\PSoC4/GLCD_SCLK.c **** *  Read the current value on the pins of the Digital Port in right justified 
  76:Generated_Source\PSoC4/GLCD_SCLK.c **** *  form.
  77:Generated_Source\PSoC4/GLCD_SCLK.c **** *
  78:Generated_Source\PSoC4/GLCD_SCLK.c **** * Parameters:  
  79:Generated_Source\PSoC4/GLCD_SCLK.c **** *  None 
  80:Generated_Source\PSoC4/GLCD_SCLK.c **** *
  81:Generated_Source\PSoC4/GLCD_SCLK.c **** * Return: 
  82:Generated_Source\PSoC4/GLCD_SCLK.c **** *  Returns the current value of the Digital Port as a right justified number
  83:Generated_Source\PSoC4/GLCD_SCLK.c **** *  
  84:Generated_Source\PSoC4/GLCD_SCLK.c **** * Note:
  85:Generated_Source\PSoC4/GLCD_SCLK.c **** *  Macro GLCD_SCLK_ReadPS calls this function. 
  86:Generated_Source\PSoC4/GLCD_SCLK.c **** *  
  87:Generated_Source\PSoC4/GLCD_SCLK.c **** *******************************************************************************/
  88:Generated_Source\PSoC4/GLCD_SCLK.c **** uint8 GLCD_SCLK_Read(void) 
  89:Generated_Source\PSoC4/GLCD_SCLK.c **** {
 101              		.loc 1 89 0
 102              		.cfi_startproc
 103              		@ args = 0, pretend = 0, frame = 0
 104              		@ frame_needed = 0, uses_anonymous_args = 0
 105              		@ link register save eliminated.
  90:Generated_Source\PSoC4/GLCD_SCLK.c ****     return (uint8)((GLCD_SCLK_PS & GLCD_SCLK_MASK) >> GLCD_SCLK_SHIFT);
 106              		.loc 1 90 0
 107 0000 024B     		ldr	r3, .L8
 108 0002 1868     		ldr	r0, [r3]
 109 0004 8009     		lsrs	r0, r0, #6
 110 0006 0123     		movs	r3, #1
 111 0008 1840     		ands	r0, r3
  91:Generated_Source\PSoC4/GLCD_SCLK.c **** }
 112              		.loc 1 91 0
 113              		@ sp needed
 114 000a 7047     		bx	lr
 115              	.L9:
 116              		.align	2
 117              	.L8:
 118 000c 04030440 		.word	1074004740
 119              		.cfi_endproc
 120              	.LFE2:
 121              		.size	GLCD_SCLK_Read, .-GLCD_SCLK_Read
 122              		.section	.text.GLCD_SCLK_ReadDataReg,"ax",%progbits
 123              		.align	2
 124              		.global	GLCD_SCLK_ReadDataReg
 125              		.code	16
 126              		.thumb_func
 127              		.type	GLCD_SCLK_ReadDataReg, %function
 128              	GLCD_SCLK_ReadDataReg:
 129              	.LFB3:
  92:Generated_Source\PSoC4/GLCD_SCLK.c **** 
  93:Generated_Source\PSoC4/GLCD_SCLK.c **** 
  94:Generated_Source\PSoC4/GLCD_SCLK.c **** /*******************************************************************************
  95:Generated_Source\PSoC4/GLCD_SCLK.c **** * Function Name: GLCD_SCLK_ReadDataReg
  96:Generated_Source\PSoC4/GLCD_SCLK.c **** ********************************************************************************
  97:Generated_Source\PSoC4/GLCD_SCLK.c **** *
  98:Generated_Source\PSoC4/GLCD_SCLK.c **** * Summary:
  99:Generated_Source\PSoC4/GLCD_SCLK.c **** *  Read the current value assigned to a Digital Port's data output register
ARM GAS  C:\Users\sur\AppData\Local\Temp\ccOBP0Z6.s 			page 5


 100:Generated_Source\PSoC4/GLCD_SCLK.c **** *
 101:Generated_Source\PSoC4/GLCD_SCLK.c **** * Parameters:  
 102:Generated_Source\PSoC4/GLCD_SCLK.c **** *  None 
 103:Generated_Source\PSoC4/GLCD_SCLK.c **** *
 104:Generated_Source\PSoC4/GLCD_SCLK.c **** * Return: 
 105:Generated_Source\PSoC4/GLCD_SCLK.c **** *  Returns the current value assigned to the Digital Port's data output register
 106:Generated_Source\PSoC4/GLCD_SCLK.c **** *  
 107:Generated_Source\PSoC4/GLCD_SCLK.c **** *******************************************************************************/
 108:Generated_Source\PSoC4/GLCD_SCLK.c **** uint8 GLCD_SCLK_ReadDataReg(void) 
 109:Generated_Source\PSoC4/GLCD_SCLK.c **** {
 130              		.loc 1 109 0
 131              		.cfi_startproc
 132              		@ args = 0, pretend = 0, frame = 0
 133              		@ frame_needed = 0, uses_anonymous_args = 0
 134              		@ link register save eliminated.
 110:Generated_Source\PSoC4/GLCD_SCLK.c ****     return (uint8)((GLCD_SCLK_DR & GLCD_SCLK_MASK) >> GLCD_SCLK_SHIFT);
 135              		.loc 1 110 0
 136 0000 024B     		ldr	r3, .L11
 137 0002 1868     		ldr	r0, [r3]
 138 0004 8009     		lsrs	r0, r0, #6
 139 0006 0123     		movs	r3, #1
 140 0008 1840     		ands	r0, r3
 111:Generated_Source\PSoC4/GLCD_SCLK.c **** }
 141              		.loc 1 111 0
 142              		@ sp needed
 143 000a 7047     		bx	lr
 144              	.L12:
 145              		.align	2
 146              	.L11:
 147 000c 00030440 		.word	1074004736
 148              		.cfi_endproc
 149              	.LFE3:
 150              		.size	GLCD_SCLK_ReadDataReg, .-GLCD_SCLK_ReadDataReg
 151              		.section	.text.GLCD_SCLK_ClearInterrupt,"ax",%progbits
 152              		.align	2
 153              		.global	GLCD_SCLK_ClearInterrupt
 154              		.code	16
 155              		.thumb_func
 156              		.type	GLCD_SCLK_ClearInterrupt, %function
 157              	GLCD_SCLK_ClearInterrupt:
 158              	.LFB4:
 112:Generated_Source\PSoC4/GLCD_SCLK.c **** 
 113:Generated_Source\PSoC4/GLCD_SCLK.c **** 
 114:Generated_Source\PSoC4/GLCD_SCLK.c **** /* If Interrupts Are Enabled for this Pins component */ 
 115:Generated_Source\PSoC4/GLCD_SCLK.c **** #if defined(GLCD_SCLK_INTSTAT) 
 116:Generated_Source\PSoC4/GLCD_SCLK.c **** 
 117:Generated_Source\PSoC4/GLCD_SCLK.c ****     /*******************************************************************************
 118:Generated_Source\PSoC4/GLCD_SCLK.c ****     * Function Name: GLCD_SCLK_ClearInterrupt
 119:Generated_Source\PSoC4/GLCD_SCLK.c ****     ********************************************************************************
 120:Generated_Source\PSoC4/GLCD_SCLK.c ****     *
 121:Generated_Source\PSoC4/GLCD_SCLK.c ****     * Summary:
 122:Generated_Source\PSoC4/GLCD_SCLK.c ****     *  Clears any active interrupts attached to port and returns the value of the 
 123:Generated_Source\PSoC4/GLCD_SCLK.c ****     *  interrupt status register.
 124:Generated_Source\PSoC4/GLCD_SCLK.c ****     *
 125:Generated_Source\PSoC4/GLCD_SCLK.c ****     * Parameters:  
 126:Generated_Source\PSoC4/GLCD_SCLK.c ****     *  None 
 127:Generated_Source\PSoC4/GLCD_SCLK.c ****     *
ARM GAS  C:\Users\sur\AppData\Local\Temp\ccOBP0Z6.s 			page 6


 128:Generated_Source\PSoC4/GLCD_SCLK.c ****     * Return: 
 129:Generated_Source\PSoC4/GLCD_SCLK.c ****     *  Returns the value of the interrupt status register
 130:Generated_Source\PSoC4/GLCD_SCLK.c ****     *  
 131:Generated_Source\PSoC4/GLCD_SCLK.c ****     *******************************************************************************/
 132:Generated_Source\PSoC4/GLCD_SCLK.c ****     uint8 GLCD_SCLK_ClearInterrupt(void) 
 133:Generated_Source\PSoC4/GLCD_SCLK.c ****     {
 159              		.loc 1 133 0
 160              		.cfi_startproc
 161              		@ args = 0, pretend = 0, frame = 0
 162              		@ frame_needed = 0, uses_anonymous_args = 0
 163              		@ link register save eliminated.
 134:Generated_Source\PSoC4/GLCD_SCLK.c **** 		uint8 maskedStatus = (uint8)(GLCD_SCLK_INTSTAT & GLCD_SCLK_MASK);
 164              		.loc 1 134 0
 165 0000 034A     		ldr	r2, .L14
 166 0002 1068     		ldr	r0, [r2]
 167 0004 4023     		movs	r3, #64
 168 0006 1840     		ands	r0, r3
 169              	.LVL6:
 135:Generated_Source\PSoC4/GLCD_SCLK.c **** 		GLCD_SCLK_INTSTAT = maskedStatus;
 170              		.loc 1 135 0
 171 0008 1060     		str	r0, [r2]
 136:Generated_Source\PSoC4/GLCD_SCLK.c ****         return maskedStatus >> GLCD_SCLK_SHIFT;
 172              		.loc 1 136 0
 173 000a 8009     		lsrs	r0, r0, #6
 174              	.LVL7:
 175 000c C0B2     		uxtb	r0, r0
 137:Generated_Source\PSoC4/GLCD_SCLK.c ****     }
 176              		.loc 1 137 0
 177              		@ sp needed
 178 000e 7047     		bx	lr
 179              	.L15:
 180              		.align	2
 181              	.L14:
 182 0010 10030440 		.word	1074004752
 183              		.cfi_endproc
 184              	.LFE4:
 185              		.size	GLCD_SCLK_ClearInterrupt, .-GLCD_SCLK_ClearInterrupt
 186              		.text
 187              	.Letext0:
 188              		.file 2 "Generated_Source\\PSoC4\\cytypes.h"