ARM GAS  C:\Users\sur\AppData\Local\Temp\ccHOGAJy.s 			page 1


   1              		.syntax unified
   2              		.cpu cortex-m0
   3              		.fpu softvfp
   4              		.eabi_attribute 20, 1
   5              		.eabi_attribute 21, 1
   6              		.eabi_attribute 23, 3
   7              		.eabi_attribute 24, 1
   8              		.eabi_attribute 25, 1
   9              		.eabi_attribute 26, 1
  10              		.eabi_attribute 30, 1
  11              		.eabi_attribute 34, 0
  12              		.eabi_attribute 18, 4
  13              		.thumb
  14              		.syntax unified
  15              		.file	"main.c"
  16              		.text
  17              	.Ltext0:
  18              		.cfi_sections	.debug_frame
  19              		.section	.text.crosshair,"ax",%progbits
  20              		.align	2
  21              		.global	crosshair
  22              		.code	16
  23              		.thumb_func
  24              		.type	crosshair, %function
  25              	crosshair:
  26              	.LFB32:
  27              		.file 1 "main.c"
   1:main.c        **** /* ========================================
   2:main.c        ****  *
   3:main.c        ****  * Copyright YOUR COMPANY, THE YEAR
   4:main.c        ****  * All Rights Reserved
   5:main.c        ****  * UNPUBLISHED, LICENSED SOFTWARE.
   6:main.c        ****  *
   7:main.c        ****  * CONFIDENTIAL AND PROPRIETARY INFORMATION
   8:main.c        ****  * WHICH IS THE PROPERTY OF your company.
   9:main.c        ****  *
  10:main.c        ****  * ========================================
  11:main.c        **** */
  12:main.c        **** #include <project.h>
  13:main.c        **** #include <stdlib.h>
  14:main.c        **** 
  15:main.c        **** //Make a struct to store coordinates of a star
  16:main.c        **** struct Star {
  17:main.c        ****     int16 x_Coor;
  18:main.c        ****     int16 y_Coor;
  19:main.c        **** };
  20:main.c        **** 
  21:main.c        **** //Function to draw the crosshair, takes 4 integers as its parameters:
  22:main.c        **** //x and y are the coordinates of the crosshair's center, radius of the circle and the color of it.
  23:main.c        **** void crosshair(int x, int y, int radius, int color) {
  28              		.loc 1 23 0
  29              		.cfi_startproc
  30              		@ args = 0, pretend = 0, frame = 0
  31              		@ frame_needed = 0, uses_anonymous_args = 0
  32              	.LVL0:
  33 0000 70B5     		push	{r4, r5, r6, lr}
  34              		.cfi_def_cfa_offset 16
ARM GAS  C:\Users\sur\AppData\Local\Temp\ccHOGAJy.s 			page 2


  35              		.cfi_offset 4, -16
  36              		.cfi_offset 5, -12
  37              		.cfi_offset 6, -8
  38              		.cfi_offset 14, -4
  39 0002 82B0     		sub	sp, sp, #8
  40              		.cfi_def_cfa_offset 24
  41 0004 0500     		movs	r5, r0
  42 0006 0C00     		movs	r4, r1
  43 0008 1E00     		movs	r6, r3
  24:main.c        ****     GLCD_DrawCircle(x,y,radius,color);
  44              		.loc 1 24 0
  45 000a FFF7FEFF 		bl	GLCD_DrawCircle
  46              	.LVL1:
  25:main.c        ****     GLCD_DrawLine(x-10,y,x+10,y,color);
  47              		.loc 1 25 0
  48 000e 2800     		movs	r0, r5
  49 0010 0A38     		subs	r0, r0, #10
  50 0012 2A00     		movs	r2, r5
  51 0014 0A32     		adds	r2, r2, #10
  52 0016 0096     		str	r6, [sp]
  53 0018 2300     		movs	r3, r4
  54 001a 2100     		movs	r1, r4
  55 001c FFF7FEFF 		bl	GLCD_DrawLine
  56              	.LVL2:
  26:main.c        ****     GLCD_DrawLine(x,y-10,x,y+10,color);
  57              		.loc 1 26 0
  58 0020 2100     		movs	r1, r4
  59 0022 0A39     		subs	r1, r1, #10
  60 0024 2300     		movs	r3, r4
  61 0026 0A33     		adds	r3, r3, #10
  62 0028 0096     		str	r6, [sp]
  63 002a 2A00     		movs	r2, r5
  64 002c 2800     		movs	r0, r5
  65 002e FFF7FEFF 		bl	GLCD_DrawLine
  66              	.LVL3:
  27:main.c        **** }
  67              		.loc 1 27 0
  68 0032 02B0     		add	sp, sp, #8
  69              		@ sp needed
  70              	.LVL4:
  71              	.LVL5:
  72              	.LVL6:
  73 0034 70BD     		pop	{r4, r5, r6, pc}
  74              		.cfi_endproc
  75              	.LFE32:
  76              		.size	crosshair, .-crosshair
  77 0036 C046     		.section	.text.fire1,"ax",%progbits
  78              		.align	2
  79              		.global	fire1
  80              		.code	16
  81              		.thumb_func
  82              		.type	fire1, %function
  83              	fire1:
  84              	.LFB33:
  28:main.c        **** void fire1(int x,int y) {
  85              		.loc 1 28 0
  86              		.cfi_startproc
ARM GAS  C:\Users\sur\AppData\Local\Temp\ccHOGAJy.s 			page 3


  87              		@ args = 0, pretend = 0, frame = 0
  88              		@ frame_needed = 0, uses_anonymous_args = 0
  89              	.LVL7:
  90 0000 70B5     		push	{r4, r5, r6, lr}
  91              		.cfi_def_cfa_offset 16
  92              		.cfi_offset 4, -16
  93              		.cfi_offset 5, -12
  94              		.cfi_offset 6, -8
  95              		.cfi_offset 14, -4
  96 0002 0500     		movs	r5, r0
  97 0004 0E00     		movs	r6, r1
  98              	.LVL8:
  99              	.LBB2:
  29:main.c        ****     for (int i=0;i<25;i++) {
 100              		.loc 1 29 0
 101 0006 0024     		movs	r4, #0
 102 0008 06E0     		b	.L3
 103              	.LVL9:
 104              	.L4:
  30:main.c        ****         GLCD_DrawCircle(x,y,i,GLCD_PINK);
 105              		.loc 1 30 0 discriminator 3
 106 000a 0D4B     		ldr	r3, .L7
 107 000c 2200     		movs	r2, r4
 108 000e 3100     		movs	r1, r6
 109 0010 2800     		movs	r0, r5
 110 0012 FFF7FEFF 		bl	GLCD_DrawCircle
 111              	.LVL10:
  29:main.c        ****     for (int i=0;i<25;i++) {
 112              		.loc 1 29 0 discriminator 3
 113 0016 0134     		adds	r4, r4, #1
 114              	.LVL11:
 115              	.L3:
  29:main.c        ****     for (int i=0;i<25;i++) {
 116              		.loc 1 29 0 is_stmt 0 discriminator 1
 117 0018 182C     		cmp	r4, #24
 118 001a F6DD     		ble	.L4
 119 001c 0024     		movs	r4, #0
 120              	.LVL12:
 121 001e 0CE0     		b	.L5
 122              	.LVL13:
 123              	.L6:
 124              	.LBE2:
 125              	.LBB3:
  31:main.c        ****     }
  32:main.c        ****     for (int i=0;i<25;i++) {
  33:main.c        ****         GLCD_DrawCircle(x,y,i,GLCD_SKYBLUE);
 126              		.loc 1 33 0 is_stmt 1 discriminator 3
 127 0020 084B     		ldr	r3, .L7+4
 128 0022 2200     		movs	r2, r4
 129 0024 3100     		movs	r1, r6
 130 0026 2800     		movs	r0, r5
 131 0028 FFF7FEFF 		bl	GLCD_DrawCircle
 132              	.LVL14:
  34:main.c        ****         GLCD_DrawCircle(x,y,i,GLCD_BLACK);
 133              		.loc 1 34 0 discriminator 3
 134 002c 0023     		movs	r3, #0
 135 002e 2200     		movs	r2, r4
ARM GAS  C:\Users\sur\AppData\Local\Temp\ccHOGAJy.s 			page 4


 136 0030 3100     		movs	r1, r6
 137 0032 2800     		movs	r0, r5
 138 0034 FFF7FEFF 		bl	GLCD_DrawCircle
 139              	.LVL15:
  32:main.c        ****         GLCD_DrawCircle(x,y,i,GLCD_SKYBLUE);
 140              		.loc 1 32 0 discriminator 3
 141 0038 0134     		adds	r4, r4, #1
 142              	.LVL16:
 143              	.L5:
  32:main.c        ****         GLCD_DrawCircle(x,y,i,GLCD_SKYBLUE);
 144              		.loc 1 32 0 is_stmt 0 discriminator 1
 145 003a 182C     		cmp	r4, #24
 146 003c F0DD     		ble	.L6
 147              	.LBE3:
  35:main.c        ****     }
  36:main.c        **** }
 148              		.loc 1 36 0 is_stmt 1
 149              		@ sp needed
 150              	.LVL17:
 151              	.LVL18:
 152              	.LVL19:
 153 003e 70BD     		pop	{r4, r5, r6, pc}
 154              	.L8:
 155              		.align	2
 156              	.L7:
 157 0040 6A0F0000 		.word	3946
 158 0044 CE080000 		.word	2254
 159              		.cfi_endproc
 160              	.LFE33:
 161              		.size	fire1, .-fire1
 162              		.section	.text.fire2,"ax",%progbits
 163              		.align	2
 164              		.global	fire2
 165              		.code	16
 166              		.thumb_func
 167              		.type	fire2, %function
 168              	fire2:
 169              	.LFB34:
  37:main.c        **** void fire2(int x, int y) {
 170              		.loc 1 37 0
 171              		.cfi_startproc
 172              		@ args = 0, pretend = 0, frame = 0
 173              		@ frame_needed = 0, uses_anonymous_args = 0
 174              	.LVL20:
 175 0000 70B5     		push	{r4, r5, r6, lr}
 176              		.cfi_def_cfa_offset 16
 177              		.cfi_offset 4, -16
 178              		.cfi_offset 5, -12
 179              		.cfi_offset 6, -8
 180              		.cfi_offset 14, -4
 181 0002 0500     		movs	r5, r0
 182 0004 0E00     		movs	r6, r1
 183              	.LVL21:
 184              	.LBB4:
  38:main.c        ****     for (int i=0;i<45;i++) {
 185              		.loc 1 38 0
 186 0006 0024     		movs	r4, #0
ARM GAS  C:\Users\sur\AppData\Local\Temp\ccHOGAJy.s 			page 5


 187 0008 06E0     		b	.L10
 188              	.LVL22:
 189              	.L11:
  39:main.c        ****         GLCD_DrawCircle(x,y,i,GLCD_WHITE);
 190              		.loc 1 39 0 discriminator 3
 191 000a 0A4B     		ldr	r3, .L14
 192 000c 2200     		movs	r2, r4
 193 000e 3100     		movs	r1, r6
 194 0010 2800     		movs	r0, r5
 195 0012 FFF7FEFF 		bl	GLCD_DrawCircle
 196              	.LVL23:
  38:main.c        ****     for (int i=0;i<45;i++) {
 197              		.loc 1 38 0 discriminator 3
 198 0016 0134     		adds	r4, r4, #1
 199              	.LVL24:
 200              	.L10:
  38:main.c        ****     for (int i=0;i<45;i++) {
 201              		.loc 1 38 0 is_stmt 0 discriminator 1
 202 0018 2C2C     		cmp	r4, #44
 203 001a F6DD     		ble	.L11
 204 001c 0024     		movs	r4, #0
 205              	.LVL25:
 206 001e 06E0     		b	.L12
 207              	.LVL26:
 208              	.L13:
 209              	.LBE4:
 210              	.LBB5:
  40:main.c        ****     }
  41:main.c        ****     for (int i=0;i<45;i++) {
  42:main.c        ****         GLCD_DrawCircle(x,y,i,GLCD_BLACK);
 211              		.loc 1 42 0 is_stmt 1 discriminator 3
 212 0020 0023     		movs	r3, #0
 213 0022 2200     		movs	r2, r4
 214 0024 3100     		movs	r1, r6
 215 0026 2800     		movs	r0, r5
 216 0028 FFF7FEFF 		bl	GLCD_DrawCircle
 217              	.LVL27:
  41:main.c        ****         GLCD_DrawCircle(x,y,i,GLCD_BLACK);
 218              		.loc 1 41 0 discriminator 3
 219 002c 0134     		adds	r4, r4, #1
 220              	.LVL28:
 221              	.L12:
  41:main.c        ****         GLCD_DrawCircle(x,y,i,GLCD_BLACK);
 222              		.loc 1 41 0 is_stmt 0 discriminator 1
 223 002e 2C2C     		cmp	r4, #44
 224 0030 F6DD     		ble	.L13
 225              	.LBE5:
  43:main.c        ****     }
  44:main.c        **** }
 226              		.loc 1 44 0 is_stmt 1
 227              		@ sp needed
 228              	.LVL29:
 229              	.LVL30:
 230              	.LVL31:
 231 0032 70BD     		pop	{r4, r5, r6, pc}
 232              	.L15:
 233              		.align	2
ARM GAS  C:\Users\sur\AppData\Local\Temp\ccHOGAJy.s 			page 6


 234              	.L14:
 235 0034 FF0F0000 		.word	4095
 236              		.cfi_endproc
 237              	.LFE34:
 238              		.size	fire2, .-fire2
 239              		.global	__aeabi_idivmod
 240              		.section	.text.main,"ax",%progbits
 241              		.align	2
 242              		.global	main
 243              		.code	16
 244              		.thumb_func
 245              		.type	main, %function
 246              	main:
 247              	.LFB35:
  45:main.c        **** int main(void)
  46:main.c        **** {
 248              		.loc 1 46 0
 249              		.cfi_startproc
 250              		@ args = 0, pretend = 0, frame = 616
 251              		@ frame_needed = 0, uses_anonymous_args = 0
 252 0000 F0B5     		push	{r4, r5, r6, r7, lr}
 253              		.cfi_def_cfa_offset 20
 254              		.cfi_offset 4, -20
 255              		.cfi_offset 5, -16
 256              		.cfi_offset 6, -12
 257              		.cfi_offset 7, -8
 258              		.cfi_offset 14, -4
 259 0002 804C     		ldr	r4, .L33
 260 0004 A544     		add	sp, sp, r4
 261              		.cfi_def_cfa_offset 640
  47:main.c        ****     CyGlobalIntEnable; /* Enable global interrupts. */
 262              		.loc 1 47 0
 263              		.syntax divided
 264              	@ 47 "main.c" 1
 265 0006 62B6     		CPSIE   i
 266              	@ 0 "" 2
 267              	.LVL32:
  48:main.c        ****     
  49:main.c        ****     int16 i;
  50:main.c        ****     int16 x_Center = 62; //x-coordinate of center point
  51:main.c        ****     int16 y_Center = 62; //y-coordinate of center point
  52:main.c        ****     int16 xCur=x_Center,yCur=y_Center; //current coordinates of the crosshair
  53:main.c        ****     int16 count = 100;
  54:main.c        **** 
  55:main.c        ****     
  56:main.c        ****     struct Star stars[150]; //Array of 150 stars
  57:main.c        ****     
  58:main.c        ****     //Randomly put stars into the2 array
  59:main.c        ****     for (i=0;i<150;i++) {
 268              		.loc 1 59 0
 269              		.thumb
 270              		.syntax unified
 271 0008 0024     		movs	r4, #0
 272 000a 12E0     		b	.L17
 273              	.LVL33:
 274              	.L18:
  60:main.c        ****         stars[i].x_Coor = rand() % 132;
ARM GAS  C:\Users\sur\AppData\Local\Temp\ccHOGAJy.s 			page 7


 275              		.loc 1 60 0 discriminator 3
 276 000c FFF7FEFF 		bl	rand
 277              	.LVL34:
 278 0010 8421     		movs	r1, #132
 279 0012 FFF7FEFF 		bl	__aeabi_idivmod
 280              	.LVL35:
 281 0016 A500     		lsls	r5, r4, #2
 282 0018 04AB     		add	r3, sp, #16
 283 001a E952     		strh	r1, [r5, r3]
  61:main.c        ****         stars[i].y_Coor = rand() % 132;
 284              		.loc 1 61 0 discriminator 3
 285 001c FFF7FEFF 		bl	rand
 286              	.LVL36:
 287 0020 8421     		movs	r1, #132
 288 0022 FFF7FEFF 		bl	__aeabi_idivmod
 289              	.LVL37:
 290 0026 04AB     		add	r3, sp, #16
 291 0028 9C46     		mov	ip, r3
 292 002a 6544     		add	r5, r5, ip
 293 002c 6980     		strh	r1, [r5, #2]
  59:main.c        ****         stars[i].x_Coor = rand() % 132;
 294              		.loc 1 59 0 discriminator 3
 295 002e 0134     		adds	r4, r4, #1
 296              	.LVL38:
 297 0030 24B2     		sxth	r4, r4
 298              	.LVL39:
 299              	.L17:
  59:main.c        ****         stars[i].x_Coor = rand() % 132;
 300              		.loc 1 59 0 is_stmt 0 discriminator 1
 301 0032 952C     		cmp	r4, #149
 302 0034 EADD     		ble	.L18
  62:main.c        ****     }
  63:main.c        ****     
  64:main.c        ****     //Initialize the LCD
  65:main.c        ****     GLCD_Start();  
 303              		.loc 1 65 0 is_stmt 1
 304 0036 FFF7FEFF 		bl	GLCD_Start
 305              	.LVL40:
  66:main.c        ****     Backlight_Write(1);       // turn on backlight
 306              		.loc 1 66 0
 307 003a 0120     		movs	r0, #1
 308 003c FFF7FEFF 		bl	Backlight_Write
 309              	.LVL41:
  67:main.c        ****     GLCD_Clear(GLCD_BLACK);   //turn background to black
 310              		.loc 1 67 0
 311 0040 0020     		movs	r0, #0
 312 0042 FFF7FEFF 		bl	GLCD_Clear
 313              	.LVL42:
  68:main.c        ****     LED_Red_Write(1); LED_Green_Write(1); LED_Blue_Write(0);  // make sure all LEDs are off
 314              		.loc 1 68 0
 315 0046 0120     		movs	r0, #1
 316 0048 FFF7FEFF 		bl	LED_Red_Write
 317              	.LVL43:
 318 004c 0120     		movs	r0, #1
 319 004e FFF7FEFF 		bl	LED_Green_Write
 320              	.LVL44:
 321 0052 0020     		movs	r0, #0
ARM GAS  C:\Users\sur\AppData\Local\Temp\ccHOGAJy.s 			page 8


 322 0054 FFF7FEFF 		bl	LED_Blue_Write
 323              	.LVL45:
  53:main.c        **** 
 324              		.loc 1 53 0
 325 0058 6427     		movs	r7, #100
  52:main.c        ****     int16 count = 100;
 326              		.loc 1 52 0
 327 005a 3E24     		movs	r4, #62
 328              	.LVL46:
 329 005c 3E25     		movs	r5, #62
 330              	.LVL47:
 331              	.L19:
 332              	.LBB6:
  69:main.c        ****     for(;;) {
  70:main.c        ****         //Draw stars
  71:main.c        ****         for (i=0;i<150;i++) {
 333              		.loc 1 71 0
 334 005e 0026     		movs	r6, #0
 335 0060 0CE0     		b	.L20
 336              	.LVL48:
 337              	.L21:
  72:main.c        ****             GLCD_Pixel(stars[i].x_Coor, stars[i].y_Coor,GLCD_WHITE);
 338              		.loc 1 72 0 discriminator 3
 339 0062 B300     		lsls	r3, r6, #2
 340 0064 04AA     		add	r2, sp, #16
 341 0066 985E     		ldrsh	r0, [r3, r2]
 342 0068 04AA     		add	r2, sp, #16
 343 006a 9446     		mov	ip, r2
 344 006c 6344     		add	r3, r3, ip
 345 006e 0221     		movs	r1, #2
 346 0070 595E     		ldrsh	r1, [r3, r1]
 347 0072 654A     		ldr	r2, .L33+4
 348 0074 FFF7FEFF 		bl	GLCD_Pixel
 349              	.LVL49:
  71:main.c        ****             GLCD_Pixel(stars[i].x_Coor, stars[i].y_Coor,GLCD_WHITE);
 350              		.loc 1 71 0 discriminator 3
 351 0078 0136     		adds	r6, r6, #1
 352              	.LVL50:
 353 007a 36B2     		sxth	r6, r6
 354              	.LVL51:
 355              	.L20:
  71:main.c        ****             GLCD_Pixel(stars[i].x_Coor, stars[i].y_Coor,GLCD_WHITE);
 356              		.loc 1 71 0 is_stmt 0 discriminator 1
 357 007c 952E     		cmp	r6, #149
 358 007e F0DD     		ble	.L21
  73:main.c        ****         }
  74:main.c        ****         crosshair(xCur,yCur,8,GLCD_YELLOW);
 359              		.loc 1 74 0 is_stmt 1
 360 0080 0295     		str	r5, [sp, #8]
 361 0082 0394     		str	r4, [sp, #12]
 362 0084 FF23     		movs	r3, #255
 363 0086 1B01     		lsls	r3, r3, #4
 364 0088 0822     		movs	r2, #8
 365 008a 2100     		movs	r1, r4
 366 008c 2800     		movs	r0, r5
 367 008e FFF7FEFF 		bl	crosshair
 368              	.LVL52:
ARM GAS  C:\Users\sur\AppData\Local\Temp\ccHOGAJy.s 			page 9


  75:main.c        ****         
  76:main.c        ****         //Make the starts twinking
  77:main.c        ****         int16 randomS = rand() % 150;
 369              		.loc 1 77 0
 370 0092 FFF7FEFF 		bl	rand
 371              	.LVL53:
 372 0096 9621     		movs	r1, #150
 373 0098 FFF7FEFF 		bl	__aeabi_idivmod
 374              	.LVL54:
 375 009c 09B2     		sxth	r1, r1
 376              	.LVL55:
  78:main.c        ****         GLCD_Pixel(stars[randomS].x_Coor, stars[randomS].y_Coor,GLCD_BLACK);
 377              		.loc 1 78 0
 378 009e 8900     		lsls	r1, r1, #2
 379              	.LVL56:
 380 00a0 04AB     		add	r3, sp, #16
 381 00a2 CE5E     		ldrsh	r6, [r1, r3]
 382              	.LVL57:
 383 00a4 04AB     		add	r3, sp, #16
 384 00a6 9C46     		mov	ip, r3
 385 00a8 6144     		add	r1, r1, ip
 386 00aa 0222     		movs	r2, #2
 387 00ac 8B5E     		ldrsh	r3, [r1, r2]
 388 00ae 0022     		movs	r2, #0
 389 00b0 0193     		str	r3, [sp, #4]
 390 00b2 1900     		movs	r1, r3
 391 00b4 3000     		movs	r0, r6
 392 00b6 FFF7FEFF 		bl	GLCD_Pixel
 393              	.LVL58:
  79:main.c        ****         CyDelay(50);
 394              		.loc 1 79 0
 395 00ba 3220     		movs	r0, #50
 396 00bc FFF7FEFF 		bl	CyDelay
 397              	.LVL59:
  80:main.c        ****         GLCD_Pixel(stars[randomS].x_Coor, stars[randomS].y_Coor,GLCD_WHITE);
 398              		.loc 1 80 0
 399 00c0 514A     		ldr	r2, .L33+4
 400 00c2 0199     		ldr	r1, [sp, #4]
 401 00c4 3000     		movs	r0, r6
 402 00c6 FFF7FEFF 		bl	GLCD_Pixel
 403              	.LVL60:
  81:main.c        **** 
  82:main.c        ****         //Draw the crosshair
  83:main.c        ****         if (D_Read()==0 && yCur>=15){
 404              		.loc 1 83 0
 405 00ca FFF7FEFF 		bl	D_Read
 406              	.LVL61:
 407 00ce 0028     		cmp	r0, #0
 408 00d0 12D1     		bne	.L22
 409              		.loc 1 83 0 is_stmt 0 discriminator 1
 410 00d2 0E2C     		cmp	r4, #14
 411 00d4 10DD     		ble	.L22
  84:main.c        ****             crosshair(xCur,yCur,8,GLCD_BLACK);
 412              		.loc 1 84 0 is_stmt 1
 413 00d6 0023     		movs	r3, #0
 414 00d8 0822     		movs	r2, #8
 415 00da 039E     		ldr	r6, [sp, #12]
ARM GAS  C:\Users\sur\AppData\Local\Temp\ccHOGAJy.s 			page 10


 416 00dc 3100     		movs	r1, r6
 417 00de 0298     		ldr	r0, [sp, #8]
 418 00e0 FFF7FEFF 		bl	crosshair
 419              	.LVL62:
  85:main.c        ****             crosshair(xCur,yCur-4,8,GLCD_YELLOW);
 420              		.loc 1 85 0
 421 00e4 3100     		movs	r1, r6
 422 00e6 0439     		subs	r1, r1, #4
 423 00e8 FF23     		movs	r3, #255
 424 00ea 1B01     		lsls	r3, r3, #4
 425 00ec 0822     		movs	r2, #8
 426 00ee 0298     		ldr	r0, [sp, #8]
 427 00f0 FFF7FEFF 		bl	crosshair
 428              	.LVL63:
  86:main.c        ****             yCur = yCur - 4;
 429              		.loc 1 86 0
 430 00f4 043C     		subs	r4, r4, #4
 431              	.LVL64:
 432 00f6 24B2     		sxth	r4, r4
 433              	.LVL65:
 434              	.L22:
  87:main.c        ****         }
  88:main.c        ****         if (A_Read()==0 && xCur>=15){
 435              		.loc 1 88 0
 436 00f8 FFF7FEFF 		bl	A_Read
 437              	.LVL66:
 438 00fc 0028     		cmp	r0, #0
 439 00fe 11D1     		bne	.L23
 440              		.loc 1 88 0 is_stmt 0 discriminator 1
 441 0100 0E2D     		cmp	r5, #14
 442 0102 0FDD     		ble	.L23
  89:main.c        ****             crosshair(xCur-4,yCur,8,GLCD_YELLOW);
 443              		.loc 1 89 0 is_stmt 1
 444 0104 029E     		ldr	r6, [sp, #8]
 445 0106 301F     		subs	r0, r6, #4
 446 0108 FF23     		movs	r3, #255
 447 010a 1B01     		lsls	r3, r3, #4
 448 010c 0822     		movs	r2, #8
 449 010e 2100     		movs	r1, r4
 450 0110 FFF7FEFF 		bl	crosshair
 451              	.LVL67:
  90:main.c        ****             crosshair(xCur,yCur,8,GLCD_BLACK);
 452              		.loc 1 90 0
 453 0114 0023     		movs	r3, #0
 454 0116 0822     		movs	r2, #8
 455 0118 2100     		movs	r1, r4
 456 011a 3000     		movs	r0, r6
 457 011c FFF7FEFF 		bl	crosshair
 458              	.LVL68:
  91:main.c        ****             xCur=xCur-4;
 459              		.loc 1 91 0
 460 0120 043D     		subs	r5, r5, #4
 461              	.LVL69:
 462 0122 2DB2     		sxth	r5, r5
 463              	.LVL70:
 464              	.L23:
  92:main.c        ****         }
ARM GAS  C:\Users\sur\AppData\Local\Temp\ccHOGAJy.s 			page 11


  93:main.c        ****         if (B_Read()==0 && yCur <=116){
 465              		.loc 1 93 0
 466 0124 FFF7FEFF 		bl	B_Read
 467              	.LVL71:
 468 0128 0028     		cmp	r0, #0
 469 012a 10D1     		bne	.L24
 470              		.loc 1 93 0 is_stmt 0 discriminator 1
 471 012c 742C     		cmp	r4, #116
 472 012e 0EDC     		bgt	.L24
  94:main.c        ****             crosshair(xCur,yCur+4,8,GLCD_YELLOW);
 473              		.loc 1 94 0 is_stmt 1
 474 0130 211D     		adds	r1, r4, #4
 475 0132 FF23     		movs	r3, #255
 476 0134 1B01     		lsls	r3, r3, #4
 477 0136 0822     		movs	r2, #8
 478 0138 2800     		movs	r0, r5
 479 013a FFF7FEFF 		bl	crosshair
 480              	.LVL72:
  95:main.c        ****             crosshair(xCur,yCur,8,GLCD_BLACK);
 481              		.loc 1 95 0
 482 013e 0023     		movs	r3, #0
 483 0140 0822     		movs	r2, #8
 484 0142 2100     		movs	r1, r4
 485 0144 2800     		movs	r0, r5
 486 0146 FFF7FEFF 		bl	crosshair
 487              	.LVL73:
  96:main.c        ****             yCur=yCur+4;
 488              		.loc 1 96 0
 489 014a 0434     		adds	r4, r4, #4
 490              	.LVL74:
 491 014c 24B2     		sxth	r4, r4
 492              	.LVL75:
 493              	.L24:
  97:main.c        ****         }
  98:main.c        ****         if (C_Read()==0 && xCur <=116){
 494              		.loc 1 98 0
 495 014e FFF7FEFF 		bl	C_Read
 496              	.LVL76:
 497 0152 0028     		cmp	r0, #0
 498 0154 10D1     		bne	.L25
 499              		.loc 1 98 0 is_stmt 0 discriminator 1
 500 0156 742D     		cmp	r5, #116
 501 0158 0EDC     		bgt	.L25
  99:main.c        ****             crosshair(xCur+4,yCur,8,GLCD_YELLOW);
 502              		.loc 1 99 0 is_stmt 1
 503 015a 281D     		adds	r0, r5, #4
 504 015c FF23     		movs	r3, #255
 505 015e 1B01     		lsls	r3, r3, #4
 506 0160 0822     		movs	r2, #8
 507 0162 2100     		movs	r1, r4
 508 0164 FFF7FEFF 		bl	crosshair
 509              	.LVL77:
 100:main.c        ****             crosshair(xCur,yCur,8,GLCD_BLACK);
 510              		.loc 1 100 0
 511 0168 0023     		movs	r3, #0
 512 016a 0822     		movs	r2, #8
 513 016c 2100     		movs	r1, r4
ARM GAS  C:\Users\sur\AppData\Local\Temp\ccHOGAJy.s 			page 12


 514 016e 2800     		movs	r0, r5
 515 0170 FFF7FEFF 		bl	crosshair
 516              	.LVL78:
 101:main.c        ****             xCur=xCur+4;
 517              		.loc 1 101 0
 518 0174 0435     		adds	r5, r5, #4
 519              	.LVL79:
 520 0176 2DB2     		sxth	r5, r5
 521              	.LVL80:
 522              	.L25:
 102:main.c        ****         }
 103:main.c        ****                
 104:main.c        ****         if (count == 0) {
 523              		.loc 1 104 0
 524 0178 002F     		cmp	r7, #0
 525 017a 02D1     		bne	.L26
 105:main.c        ****             LED_Red_Write(0);
 526              		.loc 1 105 0
 527 017c 0020     		movs	r0, #0
 528 017e FFF7FEFF 		bl	LED_Red_Write
 529              	.LVL81:
 530              	.L26:
 106:main.c        ****         }
 107:main.c        ****         if ((LED_Red_Read() == 0)&& (Joy_Center_Read()==0))
 531              		.loc 1 107 0
 532 0182 FFF7FEFF 		bl	LED_Red_Read
 533              	.LVL82:
 534 0186 0028     		cmp	r0, #0
 535 0188 04D1     		bne	.L27
 536              		.loc 1 107 0 is_stmt 0 discriminator 1
 537 018a FFF7FEFF 		bl	Joy_Center_Read
 538              	.LVL83:
 539 018e 0028     		cmp	r0, #0
 540 0190 00D1     		bne	.LCB524
 541 0192 64E7     		b	.L19	@long jump
 542              	.LCB524:
 543              	.L27:
 108:main.c        ****             continue;
 109:main.c        ****         
 110:main.c        ****         if (count == 50) {       
 544              		.loc 1 110 0 is_stmt 1
 545 0194 322F     		cmp	r7, #50
 546 0196 05D1     		bne	.L29
 111:main.c        ****             LED_Red_Write(1);
 547              		.loc 1 111 0
 548 0198 0120     		movs	r0, #1
 549 019a FFF7FEFF 		bl	LED_Red_Write
 550              	.LVL84:
 112:main.c        ****             LED_Green_Write(0);
 551              		.loc 1 112 0
 552 019e 0020     		movs	r0, #0
 553 01a0 FFF7FEFF 		bl	LED_Green_Write
 554              	.LVL85:
 555              	.L29:
 113:main.c        ****         }
 114:main.c        ****         if ((count >=50) && (count <100) && (Joy_Center_Read()==0)){
 556              		.loc 1 114 0
ARM GAS  C:\Users\sur\AppData\Local\Temp\ccHOGAJy.s 			page 13


 557 01a4 3B00     		movs	r3, r7
 558 01a6 323B     		subs	r3, r3, #50
 559 01a8 9BB2     		uxth	r3, r3
 560 01aa 312B     		cmp	r3, #49
 561 01ac 0ED8     		bhi	.L30
 562              		.loc 1 114 0 is_stmt 0 discriminator 1
 563 01ae FFF7FEFF 		bl	Joy_Center_Read
 564              	.LVL86:
 565 01b2 0028     		cmp	r0, #0
 566 01b4 0AD1     		bne	.L30
 115:main.c        ****             fire1(xCur,yCur);
 567              		.loc 1 115 0 is_stmt 1
 568 01b6 2100     		movs	r1, r4
 569 01b8 2800     		movs	r0, r5
 570 01ba FFF7FEFF 		bl	fire1
 571              	.LVL87:
 116:main.c        ****             LED_Green_Write(1);
 572              		.loc 1 116 0
 573 01be 0120     		movs	r0, #1
 574 01c0 FFF7FEFF 		bl	LED_Green_Write
 575              	.LVL88:
 117:main.c        ****             LED_Red_Write(0);
 576              		.loc 1 117 0
 577 01c4 0020     		movs	r0, #0
 578 01c6 FFF7FEFF 		bl	LED_Red_Write
 579              	.LVL89:
 118:main.c        ****             count = 0;
 580              		.loc 1 118 0
 581 01ca 0027     		movs	r7, #0
 582              	.LVL90:
 583              	.L30:
 119:main.c        ****         }
 120:main.c        ****         
 121:main.c        ****         if (count == 100) {      
 584              		.loc 1 121 0
 585 01cc 642F     		cmp	r7, #100
 586 01ce 05D1     		bne	.L31
 122:main.c        ****             LED_Green_Write(1);
 587              		.loc 1 122 0
 588 01d0 0120     		movs	r0, #1
 589 01d2 FFF7FEFF 		bl	LED_Green_Write
 590              	.LVL91:
 123:main.c        ****             LED_Blue_Write(0);
 591              		.loc 1 123 0
 592 01d6 0020     		movs	r0, #0
 593 01d8 FFF7FEFF 		bl	LED_Blue_Write
 594              	.LVL92:
 595              	.L31:
 124:main.c        ****         }
 125:main.c        ****         if ((count >=100) && (Joy_Center_Read()==0)) {
 596              		.loc 1 125 0
 597 01dc 632F     		cmp	r7, #99
 598 01de 0EDD     		ble	.L32
 599              		.loc 1 125 0 is_stmt 0 discriminator 1
 600 01e0 FFF7FEFF 		bl	Joy_Center_Read
 601              	.LVL93:
 602 01e4 0028     		cmp	r0, #0
ARM GAS  C:\Users\sur\AppData\Local\Temp\ccHOGAJy.s 			page 14


 603 01e6 0AD1     		bne	.L32
 126:main.c        ****             fire2(xCur,yCur);
 604              		.loc 1 126 0 is_stmt 1
 605 01e8 2100     		movs	r1, r4
 606 01ea 2800     		movs	r0, r5
 607 01ec FFF7FEFF 		bl	fire2
 608              	.LVL94:
 127:main.c        ****             LED_Blue_Write(1);
 609              		.loc 1 127 0
 610 01f0 0120     		movs	r0, #1
 611 01f2 FFF7FEFF 		bl	LED_Blue_Write
 612              	.LVL95:
 128:main.c        ****             LED_Red_Write(0);
 613              		.loc 1 128 0
 614 01f6 0020     		movs	r0, #0
 615 01f8 FFF7FEFF 		bl	LED_Red_Write
 616              	.LVL96:
 129:main.c        ****             count = 0;
 617              		.loc 1 129 0
 618 01fc 0027     		movs	r7, #0
 619              	.LVL97:
 620              	.L32:
 130:main.c        ****         }
 131:main.c        ****         count++;
 621              		.loc 1 131 0
 622 01fe 7B1C     		adds	r3, r7, #1
 623 0200 1FB2     		sxth	r7, r3
 624              	.LVL98:
 625 0202 2CE7     		b	.L19
 626              	.L34:
 627              		.align	2
 628              	.L33:
 629 0204 94FDFFFF 		.word	-620
 630 0208 FF0F0000 		.word	4095
 631              	.LBE6:
 632              		.cfi_endproc
 633              	.LFE35:
 634              		.size	main, .-main
 635              		.comm	GLCD_FONT8x16,1552,4
 636              		.text
 637              	.Letext0:
 638              		.file 2 "Generated_Source\\PSoC4/cytypes.h"
 639              		.file 3 "Generated_Source\\PSoC4/GLCD.h"
 640              		.file 4 "c:\\program files (x86)\\cypress\\psoc creator\\4.2\\psoc creator\\import\\gnu\\arm\\5.4.
 641              		.file 5 "Generated_Source\\PSoC4/CyLib.h"
 642              		.file 6 "Generated_Source\\PSoC4/D.h"
 643              		.file 7 "Generated_Source\\PSoC4/A.h"
 644              		.file 8 "Generated_Source\\PSoC4/B.h"
 645              		.file 9 "Generated_Source\\PSoC4/C.h"
 646              		.file 10 "Generated_Source\\PSoC4/LED_Red.h"
 647              		.file 11 "Generated_Source\\PSoC4/Joy_Center.h"
 648              		.file 12 "Generated_Source\\PSoC4/LED_Green.h"
 649              		.file 13 "Generated_Source\\PSoC4/LED_Blue.h"
 650              		.file 14 "Generated_Source\\PSoC4/Backlight.h"